MM3393

 Preferred load address is 0040000

 Start         Length     Name                   C
 0001:00001000 001AF000H .text                   C
 0002:00000308 00011CF8H .rdata                  DA
 0003:00000000 000F4000H .data                   DA
 0004:00000000 00001000H .rsrc                   DA

  Address         Publics by Value              Rva+Base

 0001:00000000       __setargv                  00401000
 0001:00000010       ?ProgressRect@@YAXHHHHI@Z  00401010
 0001:000000F0       ?ProgressCB@@YAXPBDH@Z     004010F0
 0001:000001E0       ?Main@@YAHXZ               004011E0
 0001:00000690       ?InitDirectDraw@@YAXXZ     00401690
 0001:000006D0       ?MainPhase@@YAX_NH@Z       004016D0
 0001:00000A00       ?GameLoop@@YAX_N@Z         00401A00
 0001:00000AA0       ?BeginPhase@@YAX_N@Z       00401AA0
 0001:00000DD0       ?GetLoadScreenName@@YAXPBD@Z 00401DD0
 0001:00000E70       ?InitAudioManager@@YAX_N@Z 00401E70
 0001:00000FC0       ?EndPhase@@YAXXZ           00401FC0
 0001:000010C0       ?KillAudioManager@@YAXXZ   004020C0
 0001:000010F0       ?RestoreFocus@@YAXXZ       004020F0
 0001:00001180       ?CreateGameMutex@@YAXPBD@Z 00402180
 0001:000011D0       ?CheckGlobalMemory@@YAXXZ  004021D0
 0001:00001250       ?CheckDiskSpace@@YAXXZ     00402250
 0001:000012B0       ?ExceptMain@@YAHXZ         004022B0
 0001:00001340       ?ArchInit@@YAXHPAPAD@Z     00402340
 0001:00001350       ?ageProcessEvents@@YAXXZ   00402350
 0001:00001360       _main                      00402360
 0001:000015D0       nullsub_267                004025D0
 0001:000015E0       nullsub_268                004025E0
 0001:000015F0       nullsub_269                004025F0
 0001:00001600       ??_H@YGXPAXIHP6EX0@Z@Z     00402600
 0001:00001630       ?ageDebug@@YAXHPBDZZ       00402630
 0001:00001640       ImmDestroyContext          00402640
 0001:00001646       ImmAssociateContext        00402646
 0001:0000164C       ImmGetContext              0040264C
 0001:00001652       GetSystemDefaultLangID     00402652
 0001:00001658       WaitForSingleObject        00402658
 0001:0000165E       CreateMutexA               0040265E
 0001:00001664       GlobalMemoryStatus         00402664
 0001:0000166A       GetDiskFreeSpaceA          0040266A
 0001:00001670       OutputDebugStringA         00402670
 0001:00001676       GetProcAddress             00402676
 0001:0000167C       LoadLibraryA               0040267C
 0001:00001682       MessageBoxA                00402682
 0001:00001688       EnumDisplaySettingsA       00402688
 0001:0000168E       SetFocus                   0040268E
 0001:00001694       ChangeDisplaySettingsA     00402694
 0001:0000169A       ShellExecuteA              0040269A
 0001:000016A0       ?FirstRunEula@@YA_NXZ      004026A0
 0001:00001780       ?ebolaPlayMovie@@YAXPAD@Z  00402780
 0001:000019E0       ??0mmGameManager@@QAE@XZ   004029E0
 0001:00001E30       ?Reset@mmGameManager@@UAEXXZ 00402E30
 0001:00001E40       ??1mmGameManager@@UAE@XZ   00402E40
 0001:00001FA0       ?BeDone@mmGameManager@@QAEXXZ 00402FA0
 0001:00001FB0       ?ForcePopupUI@mmGameManager@@QAEXXZ 00402FB0
 0001:00001FE0       ?ForceReplayUI@mmGameManager@@QAEXXZ 00402FE0
 0001:00002000       ?Update@mmGameManager@@UAEXXZ 00403000
 0001:000021D0       ?Cull@mmGameManager@@UAEXXZ 004031D0
 0001:00002300       ??_GmmGameManager@@UAEPAXI@Z 00403300
 0001:00002330       ?FileIO@asNode@@UAEXAAVdatParser@@@Z 00403330
 0001:00002340       ?AfterLoad@asNode@@UAEXXZ  00403340
 0001:00002350       ?BeforeSave@asNode@@UAEXXZ 00403350
 0001:00002360       ?GetClassNameA@asNode@@UAEPADXZ 00403360
 0001:00002370       ??_EphSleep@@QAEPAXI@Z     00403370
 0001:000023D0       ??0mmPlayer@@QAE@XZ        004033D0
 0001:00002800       ??1mmPlayer@@UAE@XZ        00403800
 0001:00002990       ?BeforeSave@mmPlayer@@UAEXXZ 00403990
 0001:000029A0       ?AfterLoad@mmPlayer@@UAEXXZ 004039A0
 0001:000029B0       ?ReInit@mmPlayer@@QAEXPAD@Z 004039B0
 0001:00002B20       ?Init@mmPlayer@@QAEXPAD0PAVmmGame@@@Z 00403B20
 0001:000030B0       ?InitSpeechAudio@mmPlayer@@AAEXPAD@Z 004040B0
 0001:00003200       ?SetGameCallback@mmPlayer@@QAEXVdatCallback@@@Z 00404200
 0001:00003220       ?ImpactCallback@mmPlayer@@QAEXPAX0@Z 00404220
 0001:00003250       ?SetPreRaceCam@mmPlayer@@QAEXXZ 00404250
 0001:00003350       ?SetPostRaceCam@mmPlayer@@QAEXXZ 00404350
 0001:00003460       ?SetMPPostCam@mmPlayer@@QAEXPAVMatrix34@@M@Z 00404460
 0001:00003550       ?IsPOV@mmPlayer@@QAEHXZ    00404550
 0001:00003580       ?SetWideFOV@mmPlayer@@QAEXH@Z 00404580
 0001:000036B0       ?GetNextCycleCamIndex@mmPlayer@@IAEHXZ 004046B0
 0001:000036D0       ?GetNextCycleXCamIndex@mmPlayer@@IAEHXZ 004046D0
 0001:000036F0       ?GetCurrentGameCamIndex@mmPlayer@@IAEHXZ 004046F0
 0001:00003700       ?GetCurrentXCamIndex@mmPlayer@@IAEHXZ 00404700
 0001:00003710       ?SetCamera@mmPlayer@@IAEXHH@Z 00404710
 0001:00003890       ?GetCamera@mmPlayer@@IAEXAAH0@Z 00404890
 0001:000038E0       ?GetCurrentCameraPtr@mmPlayer@@AAEPAVcamCarCS@@XZ 004048E0
 0001:00003920       ?UpdateHOG@mmPlayer@@QAEXXZ 00404920
 0001:00003A60       ?Reset@mmPlayer@@UAEXXZ    00404A60
 0001:00003BE0       ?ResetFF@mmPlayer@@QAEXXZ  00404BE0
 0001:00003C50       ?SetSteering@mmPlayer@@QAEXM@Z 00404C50
 0001:00003C70       ?playerFilterSteering@@YAMM@Z 00404C70
 0001:00003C90       ?FilterSteering@mmPlayer@@QAEMM@Z 00404C90
 0001:00004340       ?UpdateFF@mmPlayer@@QAEXXZ 00405340
 0001:00004760       ?Update@mmPlayer@@UAEXXZ   00405760
 0001:000050D0       ?SetCamInterest@mmPlayer@@QAEXPAVphInertialCS@@@Z 004060D0
 0001:00005140       ?IsMaxDamaged@mmPlayer@@QAEHXZ 00406140
 0001:00005160       ?EnableRegen@mmPlayer@@QAEXH@Z 00406160
 0001:00005180       ?ResetDamage@mmPlayer@@QAEXXZ 00406180
 0001:000051A0       ?UpdateRegen@mmPlayer@@QAEXXZ 004061A0
 0001:00005240       ?FFImpactCallback@mmPlayer@@QAEXM@Z 00406240
 0001:00005320       ?FileIO@mmPlayer@@UAEXAAVdatParser@@@Z 00406320
 0001:000057D0       ??_GmmPlayer@@UAEPAXI@Z    004067D0
 0001:00005800       ??1camPolarCS@@UAE@XZ      00406800
 0001:00005810       ??1camAICS@@UAE@XZ         00406810
 0001:00005820       ??1camPointCS@@UAE@XZ      00406820
 0001:00005830       ??1camPreCS@@UAE@XZ        00406830
 0001:00005840       ??1camPostCS@@UAE@XZ       00406840
 0001:00005850       ?AddValue@datParser@@QAEXPBDPAMPAVdatCallback@@@Z 00406850
 0001:00005870       ??0mmReplayManager@@QAE@XZ 00406870
 0001:00005920       LogRandomCall              00406920
 0001:00005930       ??1mmReplayManager@@UAE@XZ 00406930
 0001:00005990       ?Reset@mmReplayManager@@UAEXXZ 00406990
 0001:000059E0       ?Update@mmReplayManager@@UAEXXZ 004069E0
 0001:00005DF0       ?Cull@mmReplayManager@@UAEXXZ 00406DF0
 0001:00005E00       ?ProcessCam@mmReplayManager@@AAEXXZ 00406E00
 0001:00005E80       ?StartReplay@mmReplayManager@@AAEXXZ 00406E80
 0001:00005EF0       ?SetReplayDesc@mmReplayManager@@QAEXPAD@Z 00406EF0
 0001:00005F30       ?LoadReplayDesc@mmReplayManager@@QAEHPAD@Z 00406F30
 0001:00006000       ?LoadReplay@mmReplayManager@@QAEXPAD@Z 00407000
 0001:00006130       ?EndOfReplay@mmReplayManager@@QAE_NXZ 00407130
 0001:00006150       ?SaveReplayDesc@mmReplayManager@@QAEXPAD@Z 00407150
 0001:000061E0       ?SaveReplay@mmReplayManager@@QAEXPAD@Z 004071E0
 0001:000062D0       ?GetBrakes@mmReplayManager@@QAEMXZ 004072D0
 0001:00006300       ?GetHandBrakes@mmReplayManager@@QAEMXZ 00407300
 0001:00006330       ?GetSteering@mmReplayManager@@QAEMXZ 00407330
 0001:00006360       ?GetThrottle@mmReplayManager@@QAEMXZ 00407360
 0001:00006390       ?GetData@mmReplayManager@@QAEXPAHPA_N@Z 00407390
 0001:000063D0       ?SetData@mmReplayManager@@QAEXH_N@Z 004073D0
 0001:00006410       ?GetReplayInfo@mmReplayManager@@AAEXXZ 00407410
 0001:000065A0       ?SetReplayInfo@mmReplayManager@@AAEXXZ 004075A0
 0001:00006720       ?WriteReplayInfo@mmReplayManager@@AAEXPAVStream@@@Z 00407720
 0001:00006920       ?ReadReplayInfo@mmReplayManager@@AAEXPAVStream@@@Z 00407920
 0001:00006B10       ??_GmmReplayManager@@UAEPAXI@Z 00407B10
 0001:00006B40       ?GetClassName@asNode@@UAEPADXZ 00407B40
 0001:00006B50       ?IsStock@@YAHPAD@Z         00407B50
 0001:00006B80       ?GetHostCars@@YAXAAVstring@@@Z 00407B80
 0001:00006C80       ??0mmInterface@@QAE@XZ     00407C80
 0001:00008030       ?InitPlayerInfo@mmInterface@@QAEXXZ 00409030
 0001:000084C0       ??1mmInterface@@UAE@XZ     004094C0
 0001:000085E0       ?MessageCallback@mmInterface@@QAEXPAX0@Z 004095E0
 0001:00008D30       ?MessageCallback2@mmInterface@@QAEXPAX0@Z 00409D30
 0001:00009130       ?Reset@mmInterface@@UAEXXZ 0040A130
 0001:00009140       ?ShowMain@mmInterface@@QAEXH@Z 0040A140
 0001:000094D0       ?GetReplayDescCB@mmInterface@@AAEXXZ 0040A4D0
 0001:00009590       ?ShowLockedVehicleMessage@mmInterface@@QAEXXZ 0040A590
 0001:000095B0       ?BeDone@mmInterface@@QAEXXZ 0040A5B0
 0001:000096C0       ?Update@mmInterface@@UAEXXZ 0040A6C0
 0001:0000B060       mmInterface_IsAutodialEnabled 0040C060
 0001:0000B0E0       ?NetJoinCB@mmInterface@@AAEXXZ 0040C0E0
 0001:0000B140       ?NetNameCB@mmInterface@@AAEXXZ 0040C140
 0001:0000B170       ?JoinGame@mmInterface@@AAEXXZ 0040C170
 0001:0000B1B0       ?JoinLobbyGame@mmInterface@@AAEXXZ 0040C1B0
 0001:0000B1D0       ?JoinLAN@mmInterface@@AAEXXZ 0040C1D0
 0001:0000B260       ?JoinSerial@mmInterface@@AAEHXZ 0040C260
 0001:0000B320       ?JoinModem@mmInterface@@AAEHXZ 0040C320
 0001:0000B430       ?UpdateLobby@mmInterface@@QAEXXZ 0040C430
 0001:0000BF90       ?Switch@mmInterface@@QAEXHH@Z 0040CF90
 0001:0000C460       ?LobbySwitch@mmInterface@@QAEXHH@Z 0040D460
 0001:0000C7E0       ?GetUnlockedCar@mmInterface@@AAEXXZ 0040D7E0
 0001:0000C830       ?GetUnlockedColor@mmInterface@@AAEXXZ 0040D830
 0001:0000C840       ?RequestProverb@mmInterface@@AAEXXZ 0040D840
 0001:0000C990       ?LimitToHostCars@mmInterface@@AAEXVstring@@@Z 0040D990
 0001:0000CAE0       ?PlayerRemoveCB@mmInterface@@AAEXXZ 0040DAE0
 0001:0000CB10       ?PlayerRemove@mmInterface@@AAEXPAD@Z 0040DB10
 0001:0000CD00       ?PlayerCreateCB@mmInterface@@AAEXXZ 0040DD00
 0001:0000CD50       ?PlayerCreate@mmInterface@@AAEHPAD@Z 0040DD50
 0001:0000CF30       ?PlayerLoadCB@mmInterface@@AAEXXZ 0040DF30
 0001:0000CF60       ?PlayerGraphicsCB@mmInterface@@AAEXXZ 0040DF60
 0001:0000CFE0       ?PlayerLoad@mmInterface@@AAEXPAD@Z 0040DFE0
 0001:0000D120       ?PlayerSwitchCityCB@mmInterface@@AAEXXZ 0040E120
 0001:0000D150       ?PlayerSetState@mmInterface@@AAEXXZ 0040E150
 0001:0000D380       ?CitySetupCB@mmInterface@@AAEXXZ 0040E380
 0001:0000D580       ?GetTimeString@mmInterface@@AAEXMPAD@Z 0040E580
 0001:0000D5E0       ?GetScoreString@mmInterface@@AAEXHPAD@Z 0040E5E0
 0001:0000D620       ?GetRaceString@mmInterface@@AAEXHPAD@Z 0040E620
 0001:0000D680       ?GetRaceName@mmInterface@@AAEPADW4dgGameMode@@HPAD@Z 0040E680
 0001:0000D820       ?HOFInitRecords@mmInterface@@AAEXHPAD@ 0040E820
 0001:0000D8F0       ?HOFCB@mmInterface@@AAEXXZ 0040E8F0
 0001:0000D920       ?HOFFillRecords@mmInterface@@AAEXPAD@Z 0040E920
 0001:0000E3B0       ?PlayerInitStats@mmInterface@@AAEXPAD@Z 0040F3B0
 0001:0000E460       ?PlayerFillStats@mmInterface@@AAEXXZ 0040F460
 0001:0000E620       ?PlayerFillRecords@mmInterface@@AAEXPAD@Z 0040F620
 0001:0000EAD0       ?PlayerFillCrashRecords@mmInterface@@AAEXPAD@Z 0040FAD0
 0001:0000EBA0       ?PlayerResolveScore@mmInterface@@AAEXXZ 0040FBA0
 0001:0000EE20       ?PlayerResolveCars@mmInterface@@AAEXXZ 0040FE20
 0001:0000EE80       ?PlayerReadState@mmInterface@@AAEXXZ 0040FE80
 0001:0000EEA0       ?RefreshDriverList@mmInterface@@AAEXXZ 0040FEA0
 0001:0000EF50       ?SetStateRace@mmInterface@@AAEXH@Z 0040FF50
 0001:0000EF60       ?SetStateDefaults@mmInterface@@AAEXXZ 0040FF60
 0001:0000EF80       ?InitNetwork@mmInterface@@AAEXXZ 0040FF80
 0001:0000F090       ?InitLobby@mmInterface@@QAEXXZ 00410090
 0001:0000F1B0       ?InitProtocols@mmInterface@@AAEXXZ 004101B0
 0001:0000F1D0       ?ShowSessions@mmInterface@@AAEXXZ 004101D0
 0001:0000F3A0       ?ClearSessions@mmInterface@@AAEXXZ 004103A0
 0001:0000F3C0       ?RefreshSessions@mmInterface@@AAEXXZ 004103C0
 0001:0000F3F0       ?JoinSession@mmInterface@@AAEHH@Z 004103F0
 0001:0000F5D0       ?JoinPasswordSession@mmInterface@@AAEHH@Z 004105D0
 0001:0000F750       ?MultiAllReady@mmInterface@@AAE_NXZ 00410750
 0001:0000F7B0       ?MultiStartGame@mmInterface@@AAEXXZ 004107B0
 0001:0000F8B0       ?MultiFillRoster@mmInterface@@AAEXXZ 004108B0
 0001:0000F930       ?SetHostProtocol@mmInterface@@AAEXXZ 00410930
 0001:0000F9D0       ?SetProtocol@mmInterface@@AAEXXZ 004109D0
 0001:0000FA90       ?SetProtocol2@mmInterface@@AAEHXZ 00410A90
 0001:0000FAE0       ?CreatePlayer@mmInterface@@AAEHH@Z 00410AE0
 0001:0000FD60       ?GetHostPlayerData@mmInterface@@AAEHAAUmmPlayerInfo@@@Z 00410D60
 0001:0000FDB0       ?GetUniquePlayerName@mmInterface@@AAEXXZ 00410DB0
 0001:0000FE90       ?ChangePlayerData@mmInterface@@AAEXH@Z 00410E90
 0001:00010160       ?RefreshPlayers@mmInterface@@AAEXXZ 00411160
 0001:00010420       ?GetSessionData@mmInterface@@AAEXUNETSESSION_DESC@@@Z 00411420
 0001:00010670       ?CreateSession@mmInterface@@AAEHXZ 00411670
 0001:000107F0       ?SetSessionData@mmInterface@@AAEXPAUNETSESSION_DESC@@@Z 004117F0
 0001:000109A0       ?SetCRStateData@mmInterface@@AAEXXZ 004119A0
 0001:00010A10       ?LobbyCreate@mmInterface@@AAEHXZ 00411A10
 0001:00010D80       ?SendChatMessage@mmInterface@@AAEXPAX@Z 00411D80
 0001:00010E60       ?SendMsg@mmInterface@@AAEXHH@Z 00411E60
 0001:00010E80       ?SendStartMsg@mmInterface@@AAEXXZ 00411E80
 0001:00010EF0       ?BootPlayerCB@mmInterface@@AAEXPAX0@Z 00411EF0
 0001:00010F20       ?SendBootMsg@mmInterface@@AAEXK@Z 00411F20
 0001:00010F40       ?SendReadyStatus@mmInterface@@AAEXXZ 00411F40
 0001:00010F70       ?SendReadyReq@mmInterface@@AAEXXZ 00411F70
 0001:00010F90       ?SendHostCars@mmInterface@@AAEXK@Z 00411F90
 0001:00011010       ?SetupArchiveTest@mmInterface@@QAEXAAH@Z 00412010
 0001:00011280       ?PlayUIMusic@mmInterface@@AAEXXZ 00412280
 0001:00011340       ?RefreshMe@mmInterface@@AAEXXZ 00412340
 0001:000114D0       ??_EmmInterface@@UAEPAXI@Z 004124D0
 0001:00011500       ?Init@string@@QAEXH@Z      00412500
 0001:00011550       ??0mmGame@@QAE@XZ          00412550
 0001:00011710       ?Init@mmGame@@UAEHXZ       00412710
 0001:00012210       ?InitGizmos@mmGame@@IAEXXZ 00413210
 0001:00012370       ?InitWeather@mmGame@@IAEXXZ 00413370
 0001:000123F0       ?InitOtherPlayers@mmGame@@UAEXXZ 004133F0
 0001:00012520       ?CollideAIOpponents@mmGame@@QAEXXZ 00413520
 0001:00012650       ?InitGameStrings@mmGame@@UAEXXZ 00413650
 0001:00012940       ??1mmGame@@UAE@XZ          00413940
 0001:00012B70       ?RespawnXYZ@mmGame@@IAEXAAVVector3@@AAM_N22@Z 00413B70
 0001:00012D30       ?IsPopupEnabled@mmGame@@QAEHXZ 00413D30
 0001:00012D40       ?Reset@mmGame@@UAEXXZ      00413D40
 0001:00012DF0       ?StartMusic@mmGame@@QAEXXZ 00413DF0
 0001:00012E90       ?Update@mmGame@@UAEXXZ     00413E90
 0001:000131F0       ?UpdateDMusic@mmGame@@QAEXXZ 004141F0
 0001:00013280       ?DropThruCityHandler@mmGame@@UAEXXZ 00414280
 0001:00013290       ?HitWaterHandler@mmGame@@UAEXXZ 00414290
 0001:000132A0       ?UpdateDebugInput@mmGame@@QAE_NXZ 004142A0
 0001:000134A0       ?UpdatePaused@mmGame@@UAEXXZ 004144A0
 0001:000135B0       ?UpdateHorn@mmGame@@QAEX_N@Z 004145B0
 0001:00013660       ?UpdateGameInput@mmGame@@QAEXXZ 00414660
 0001:00013A00       ?UpdateSteeringBrakes@mmGame@@QAEXXZ 00414A00
 0001:00013BB0       ?SetIconsState@mmGame@@QAEXXZ 00414BB0
 0001:00013BD0       ?PlayerSetState@mmGame@@QAEXXZ 00414BD0
 0001:00013D30       ?BeDone@mmGame@@UAEXH@Z    00414D30
 0001:00013E00       ?CalculateRaceScore@mmGame@@IAEHHH@Z 00414E00
 0001:00013E50       ?SendChatMessage@mmGame@@UAEXPAD@Z 00414E50
 0001:00013EC0       ?FarClipCB@mmGame@@QAEXXZ  00414EC0
 0001:00013EF0       ?SetLevelGraphics@mmGame@@QAEXXZ 00414EF0
 0001:00013F70       ?CycleCam@mmGame@@QAEXXZ   00414F70
 0001:00013F80       ?NetHost@mmGame@@QAEHXZ    00414F80
 0001:00013FA0       ?FindGroundPos@mmGame@@QAEXAAVVector3@@0@Z 00414FA0
 0001:000141F0       ??_GmmGame@@UAEPAXI@Z      004151F0
 0001:00014220       ??0phIntersectionPoint@@QAE@XZ 00415220
 0001:00014230       ??0phIntersection@@QAE@XZ  00415230
 0001:00014240       ?init_gizmo_mgr@@YAPAVgizSailboatMgr@@PAVmmGame@@PBD1@Z 00415240
 0001:00014400       ?init_gizmo_mgr@@YAPAVgizBridgeMgr@@PAVmmGame@@PBD1@Z 00415400
 0001:000145C0       ?init_gizmo_mgr@@YAPAVgizTrainMgr@@PAVmmGame@@PBD1@Z 004155C0
 0001:00014780       ?init_gizmo_mgr@@YAPAVgizFerryMgr@@PAVmmGame@@PBD1@Z 00415780
 0001:00014940       ?init_gizmo_mgr@@YAPAVgizParkedCarMgr@@PAVmmGame@@PBD1@Z 00415940
 0001:00014B00       ??0mmSingleStunt@@QAE@XZ   00415B00
 0001:00014BC0       ??1mmSingleStunt@@UAE@XZ   00415BC0
 0001:00014C40       ?Init@mmSingleStunt@@UAEHXZ 00415C40
 0001:00014D40       ?InitMyPlayer@mmSingleStunt@@UAEXXZ 00415D40
 0001:00014DB0       ?InitHUD@mmSingleStunt@@UAEXXZ 00415DB0
 0001:00015070       ?LoadEventFile@mmSingleStunt@@AAE_NPAD@Z 00416070
 0001:00015310       ?InitNewEvent@mmSingleStunt@@QAEXXZ 00416310
 0001:00015450       ?InitGameObjects@mmSingleStunt@@UAEXXZ 00416450
 0001:00015720       ?InitOtherPlayers@mmSingleStunt@@UAEXXZ 00416720
 0001:00015760       ?Reset@mmSingleStunt@@UAEXXZ 00416760
 0001:00015820       ?EnableRacers@mmSingleStunt@@QAEXXZ 00416820
 0001:00015900       ?GetOpponentIndex@mmSingleStunt@@AAEHXZ 00416900
 0001:00015920       ?HitWaterHandler@mmSingleStunt@@UAEXXZ 00416920
 0001:00015970       ?Update@mmSingleStunt@@UAEXXZ 00416970
 0001:00015980       ?UpdateGameInput@mmSingleStunt@@UAEXH@Z 00416980
 0001:00015990       ?UpdateGame@mmSingleStunt@@UAEXXZ 00416990
 0001:00015A50       ?UpdateEvade@mmSingleStunt@@AAEXXZ 00416A50
 0001:00016030       ?UpdateAccel@mmSingleStunt@@AAEXXZ 00417030
 0001:000164C0       ?UpdateJump@mmSingleStunt@@AAEXXZ 004174C0
 0001:00016B10       ?UpdateChase@mmSingleStunt@@AAEXXZ 00417B10
 0001:000170F0       ?UpdateFrogger@mmSingleStunt@@AAEXXZ 004180F0
 0001:000177A0       ?UpdateCorner@mmSingleStunt@@AAEXXZ 004187A0
 0001:00018010       ?UpdateBlitz@mmSingleStunt@@AAEXXZ 00419010
 0001:000185F0       ?UpdateStop@mmSingleStunt@@AAEXXZ 004195F0
 0001:00018C90       ?UpdateCollide@mmSingleStunt@@AAEXXZ 00419C90
 0001:00019130       ?CheckTimeUp@mmSingleStunt@@AAE_NXZ 0041A130
 0001:000191B0       ?CheckCopPursuit@mmSingleStunt@@AAE_NXZ 0041A1B0
 0001:00019310       ?HUDMessage@mmSingleStunt@@AAEXH@Z 0041A310
 0001:00019340       ?EventSoundCtrl@mmSingleStunt@@QAEX_NH@Z 0041A340
 0001:00019390       ?PlayTimerWarning@mmSingleStunt@@AAEXM@Z 0041A390
 0001:00019460       ?SwitchState@mmSingleStunt@@UAEXH@Z 0041A460
 0001:00019470       ?NextRaceAvailable@mmSingleStunt@@AAE_NXZ 0041A470
 0001:00019490       ?NextRace@mmSingleStunt@@UAEXXZ 0041A490
 0001:000196F0       ?RegisterFinish@mmSingleStunt@@QAEHH@Z 0041A6F0
 0001:00019A40       ??_EmmSingleStunt@@UAEPAXI@Z 0041AA40
 0001:00019A70       ??0mmPlayerRecord@@QAE@ABV0@@Z 0041AA70
 0001:00019AF0       ??_GBase@@UAEPAXI@Z        0041AAF0
 0001:00019B20       ??_GmmPlayerRecord@@UAEPAXI@Z 0041AB20
 0001:00019B50       ?FileIO@mmInfoBase@@UAEXAAVdatParser@@@Z 0041AB50
 0001:00019B60       ??_GmmInfoBase@@UAEPAXI@Z  0041AB60
 0001:00019B90       ??1mmInfoBase@@UAE@XZ      0041AB90
 0001:00019BA0       ?GetWaypoints@mmGameSingle@@UAEPAVmmWaypoints@@XZ 0041ABA0
 0001:00019BC0       ??0mmCCData@@QAE@XZ        0041ABC0
 0001:00019BE0       ??1mmCCData@@QAE@XZ        0041ABE0
 0001:00019BF0       ?UpdateDebugKeyInput@mmSingleStunt@@UAEXH@Z 0041ABF0
 0001:00019C00       ??0mmSingleBlitz@@QAE@XZ   0041AC00
 0001:00019C70       ??1mmSingleBlitz@@UAE@XZ   0041AC70
 0001:00019D30       ?Init@mmSingleBlitz@@UAEHXZ 0041AD30
 0001:00019E50       ?InitMyPlayer@mmSingleBlitz@@UAEXXZ 0041AE50
 0001:00019EC0       ?InitHUD@mmSingleBlitz@@UAEXXZ 0041AEC0
 0001:0001A0D0       ?InitGameObjects@mmSingleBlitz@@UAEXXZ 0041B0D0
 0001:0001A360       ?InitOtherPlayers@mmSingleBlitz@@UAEXXZ 0041B360
 0001:0001A370       ?Reset@mmSingleBlitz@@UAEXXZ 0041B370
 0001:0001A400       ?HitWaterHandler@mmSingleBlitz@@UAEXXZ 0041B400
 0001:0001A460       ?Update@mmSingleBlitz@@UAEXXZ 0041B460
 0001:0001A590       ?UpdateGameInput@mmSingleBlitz@@UAEXH@Z 0041B590
 0001:0001A5D0       ?UpdateGame@mmSingleBlitz@@UAEXXZ 0041B5D0
 0001:0001ADB0       ?SwitchState@mmSingleBlitz@@UAEXH@Z 0041BDB0
 0001:0001ADC0       ?RegisterFinish@mmSingleBlitz@@AAEHXZ 0041BDC0
 0001:0001AFA0       ?FinishMessage@mmSingleBlitz@@AAEXH@Z 0041BFA0
 0001:0001AFD0       ?ProgressCheck@mmSingleBlitz@@AAEHHH@Z 0041BFD0
 0001:0001B080       ?NextRace@mmSingleBlitz@@UAEXXZ 0041C080
 0001:0001B260       ?PlayTimerWarning@mmSingleBlitz@@QAEXM@Z 0041C260
 0001:0001B450       ??_GmmSingleBlitz@@UAEPAXI@Z 0041C450
 0001:0001B480       ?UpdateDebugKeyInput@mmSingleBlitz@@UAEXH@Z 0041C480
 0001:0001B490       ?GetWaypoints@mmSingleBlitz@@UAEPAVmmWaypoints@@XZ 0041C490
 0001:0001B4A0       ??0mmSingleCircuit@@QAE@XZ 0041C4A0
 0001:0001B4E0       ??1mmSingleCircuit@@UAE@XZ 0041C4E0
 0001:0001B590       ?Init@mmSingleCircuit@@UAEHXZ 0041C590
 0001:0001B6B0       ?InitMyPlayer@mmSingleCircuit@@UAEXXZ 0041C6B0
 0001:0001B720       ?InitHUD@mmSingleCircuit@@UAEXXZ 0041C720
 0001:0001B770       ?InitGameObjects@mmSingleCircuit@@UAEXXZ 0041C770
 0001:0001BA40       ?InitOtherPlayers@mmSingleCircuit@@UAEXXZ 0041CA40
 0001:0001BA50       ?Reset@mmSingleCircuit@@UAEXXZ 0041CA50
 0001:0001BAA0       ?HitWaterHandler@mmSingleCircuit@@UAEXXZ 0041CAA0
 0001:0001BB80       ?Update@mmSingleCircuit@@UAEXXZ 0041CB80
 0001:0001BB90       ?UpdateGameInput@mmSingleCircuit@@UAEXH@Z 0041CB90
 0001:0001BBA0       ?UpdateScore@mmSingleCircuit@@QAEXXZ 0041CBA0
 0001:0001BEE0       ?UpdateGame@mmSingleCircuit@@UAEXXZ 0041CEE0
 0001:0001C480       ?UpdateOpponentStatus@mmSingleCircuit@@QAEXXZ 0041D480
 0001:0001C690       ?SwitchState@mmSingleCircuit@@UAEXH@Z 0041D690
 0001:0001C6A0       ?FinishMessage@mmSingleCircuit@@AAEXHH@Z 0041D6A0
 0001:0001C840       ?RegisterLap@mmSingleCircuit@@AAEHXZ 0041D840
 0001:0001C8A0       ?RegisterFinish@mmSingleCircuit@@AAEHXZ 0041D8A0
 0001:0001CB80       ?ProgressCheck@mmSingleCircuit@@AAEHHH@Z 0041DB80
 0001:0001CBC0       ?NextRace@mmSingleCircuit@@UAEXXZ 0041DBC0
 0001:0001CEE0       ??_EmmSingleCircuit@@UAEPAXI@Z 0041DEE0
 0001:0001CF10       ?UpdateDebugKeyInput@mmSingleCircuit@@UAEXH@Z 0041DF10
 0001:0001CF20       ?GetWaypoints@mmSingleCircuit@@UAEPAVmmWaypoints@@XZ 0041DF20
 0001:0001CF30       ??0mmSingleRace@@QAE@XZ    0041DF30
 0001:0001CF60       ??1mmSingleRace@@UAE@XZ    0041DF60
 0001:0001D010       ?Init@mmSingleRace@@UAEHXZ 0041E010
 0001:0001D130       ?InitMyPlayer@mmSingleRace@@UAEXXZ 0041E130
 0001:0001D1A0       ?InitHUD@mmSingleRace@@UAEXXZ 0041E1A0
 0001:0001D200       ?InitGameObjects@mmSingleRace@@UAEXXZ 0041E200
 0001:0001D4E0       ?InitOtherPlayers@mmSingleRace@@UAEXXZ 0041E4E0
 0001:0001D4F0       ?Reset@mmSingleRace@@UAEXXZ 0041E4F0
 0001:0001D530       ?HitWaterHandler@mmSingleRace@@UAEXXZ 0041E530
 0001:0001D5A0       ?Update@mmSingleRace@@UAEXXZ 0041E5A0
 0001:0001D5B0       ?UpdateGameInput@mmSingleRace@@UAEXH@Z 0041E5B0
 0001:0001D5F0       ?UpdateGame@mmSingleRace@@UAEXXZ 0041E5F0
 0001:0001DBA0       ?UpdateOpponentStatus@mmSingleRace@@QAEXXZ 0041EBA0
 0001:0001DDB0       ?SwitchState@mmSingleRace@@UAEXH@Z 0041EDB0
 0001:0001DDC0       ?UpdateScore@mmSingleRace@@QAEXXZ 0041EDC0
 0001:0001E100       ?NextRaceAvailable@mmSingleRace@@AAEHXZ 0041F100
 0001:0001E170       ?FinishMessage@mmSingleRace@@AAEXHH@Z 0041F170
 0001:0001E310       ?RegisterFinish@mmSingleRace@@AAEHXZ 0041F310
 0001:0001E590       ?ProgressCheck@mmSingleRace@@AAEHHH@Z 0041F590
 0001:0001E600       ?NextRace@mmSingleRace@@UAEXXZ 0041F600
 0001:0001E940       ??_GmmSingleRace@@UAEPAXI@Z 0041F940
 0001:0001E970       ?UpdateDebugKeyInput@mmSingleRace@@UAEXH@Z 0041F970
 0001:0001E980       ?GetWaypoints@mmSingleRace@@UAEPAVmmWaypoints@@XZ 0041F980
 0001:0001E990       ??0mmSingleRoam@@QAE@XZ    0041F990
 0001:0001E9C0       ??1mmSingleRoam@@UAE@XZ    0041F9C0
 0001:0001EA30       ?Init@mmSingleRoam@@UAEHXZ 0041FA30
 0001:0001EAA0       ?InitMyPlayer@mmSingleRoam@@UAEXXZ 0041FAA0
 0001:0001EB10       ?InitHUD@mmSingleRoam@@UAEXXZ 0041FB10
 0001:0001EB40       ?InitGameObjects@mmSingleRoam@@UAEXXZ 0041FB40
 0001:0001EC40       ?InitOtherPlayers@mmSingleRoam@@UAEXXZ 0041FC40
 0001:0001EC90       ?Reset@mmSingleRoam@@UAEXXZ 0041FC90
 0001:0001ECD0       ?HitWaterHandler@mmSingleRoam@@UAEXXZ 0041FCD0
 0001:0001ECE0       ?Update@mmSingleRoam@@UAEXXZ 0041FCE0
 0001:0001ECF0       ?UpdateGameInput@mmSingleRoam@@UAEXH@Z 0041FCF0
 0001:0001ED00       ?UpdateGame@mmSingleRoam@@UAEXXZ 0041FD00
 0001:0001ED90       ?SwitchState@mmSingleRoam@@UAEXH@Z 0041FD90
 0001:0001EDA0       ?NextRace@mmSingleRoam@@UAEXXZ 0041FDA0
 0001:0001EEE0       ??_GmmSingleRoam@@UAEPAXI@Z 0041FEE0
 0001:0001EF20       ?UpdateDebugKeyInput@mmSingleRoam@@UAEXH@Z 0041FF20
 0001:0001EF30       ??0mmMultiBlitz@@QAE@XZ    0041FF30
 0001:0001EF60       ??1mmMultiBlitz@@UAE@XZ    0041FF60
 0001:0001F000       ?Init@mmMultiBlitz@@UAEHXZ 00420000
 0001:0001F130       ?InitMyPlayer@mmMultiBlitz@@UAEXXZ 00420130
 0001:0001F1A0       ?InitHUD@mmMultiBlitz@@UAEXXZ 004201A0
 0001:0001F220       ?InitGameObjects@mmMultiBlitz@@UAEXXZ 00420220
 0001:0001F4B0       ?InitNetworkPlayers@mmMultiBlitz@@UAEXXZ 004204B0
 0001:0001F880       ?Reset@mmMultiBlitz@@UAEXXZ 00420880
 0001:0001F940       ?UpdateGameInput@mmMultiBlitz@@UAEXH@Z 00420940
 0001:0001F980       ?UpdateGame@mmMultiBlitz@@UAEXXZ 00420980
 0001:00020250       ?SwitchState@mmMultiBlitz@@UAEXH@Z 00421250
 0001:00020260       ?SystemMessage@mmMultiBlitz@@UAEXPAUNETSYS_MSG@@@Z 00421260
 0001:00020370       ?GameMessage@mmMultiBlitz@@UAEXPAUNET_RCXHEAD@@@Z 00421370
 0001:00020930       ?PlayTimerWarning@mmMultiBlitz@@QAEXM@Z 00421930
 0001:00020B40       ??_GmmMultiBlitz@@UAEPAXI@Z 00421B40
 0001:00020B70       ?NextRace@mmGameMulti@@UAEXXZ 00421B70
 0001:00020B80       ?GetWaypoints@mmMultiBlitz@@UAEPAVmmWaypoints@@XZ 00421B80
 0001:00020B90       ??0mmMultiCircuit@@QAE@XZ  00421B90
 0001:00020BC0       ??1mmMultiCircuit@@UAE@XZ  00421BC0
 0001:00020C60       ?Init@mmMultiCircuit@@UAEHXZ 00421C60
 0001:00020DD0       ?InitMyPlayer@mmMultiCircuit@@UAEXXZ 00421DD0
 0001:00020E40       ?InitHUD@mmMultiCircuit@@UAEXXZ 00421E40
 0001:00020E90       ?InitGameObjects@mmMultiCircuit@@UAEXXZ 00421E90
 0001:000210A0       ?InitNetworkPlayers@mmMultiCircuit@@UAEXXZ 004220A0
 0001:00021470       ?Reset@mmMultiCircuit@@UAEXXZ 00422470
 0001:00021530       ?UpdateGameInput@mmMultiCircuit@@UAEXH@Z 00422530
 0001:00021570       ?UpdateGame@mmMultiCircuit@@UAEXXZ 00422570
 0001:00021D90       ?SwitchState@mmMultiCircuit@@UAEXH@Z 00422D90
 0001:00021DA0       ?UpdateDebugKeyInput@mmMultiCircuit@@UAEXH@Z 00422DA0
 0001:00021DB0       ?SystemMessage@mmMultiCircuit@@UAEXPAUNETSYS_MSG@@@Z 00422DB0
 0001:00021EC0       ?GameMessage@mmMultiCircuit@@UAEXPAUNET_RCXHEAD@@@Z 00422EC0
 0001:000226A0       ?GetWaypoints@mmMultiCircuit@@UAEPAVmmWaypoints@@XZ 004236A0
 0001:000226E0       ??0mmMultiCR@@QAE@XZ       004236E0
 0001:000227C0       ??1mmMultiCR@@UAE@XZ       004237C0
 0001:00022870       ?Init@mmMultiCR@@UAEHXZ    00423870
 0001:000229F0       ?InitMyPlayer@mmMultiCR@@UAEXXZ 004239F0
 0001:00022B00       ?InitHUD@mmMultiCR@@UAEXXZ 00423B00
 0001:00022C80       ?InitGameObjects@mmMultiCR@@UAEXXZ 00423C80
 0001:00023090       ?InitNetworkPlayers@mmMultiCR@@UAEXXZ 00424090
 0001:00023440       ?Reset@mmMultiCR@@UAEXXZ   00424440
 0001:00023640       ?LoadSets@mmMultiCR@@QAEHPAD@Z 00424640
 0001:00023880       ?LoadCSV@mmMultiCR@@QAEHPAD@Z 00424880
 0001:00023900       ?ImpactCallback@mmMultiCR@@QAEXPAX0@Z 00424900
 0001:00023A00       ?FondleCarMass@mmMultiCR@@QAEXPAVvehCar@@M@Z 00424A00
 0001:00023AD0       ?GetNewSet@mmMultiCR@@AAEXXZ 00424AD0
 0001:00023BF0       ?GetRandomPoints@mmMultiCR@@AAEXAAVVector3@@00@Z 00424BF0
 0001:00023E20       ?GetRandomIndex@mmMultiCR@@AAEHXZ 00424E20
 0001:00023E40       ?ResetPositions@mmMultiCR@@QAEXH@Z 00424E40
 0001:00023F70       ?SelectTeams@mmMultiCR@@AAEHXZ 00424F70
 0001:00023F80       ?UpdateGameInput@mmMultiCR@@UAEXH@Z 00424F80
 0001:00023F90       ?UpdateGame@mmMultiCR@@UAEXXZ 00424F90
 0001:00024390       ?SwitchState@mmMultiCR@@UAEXH@Z 00425390
 0001:000243A0       ?HitWaterHandler@mmMultiCR@@UAEXXZ 004253A0
 0001:00024460       ?DropThruCityHandler@mmMultiCR@@UAEXXZ 00425460
 0001:00024520       ?StealGold@mmMultiCR@@AAEXPAVvehCar@@@Z 00425520
 0001:00024560       ?OppStealGold@mmMultiCR@@AAEXH@Z 00425560
 0001:000245D0       ?FindGround@mmMultiCR@@AAEXVVector3@@AAV2@@Z 004255D0
 0001:000246A0       ?DropGold@mmMultiCR@@AAEXVVector3@@HH@Z 004256A0
 0001:00024830       ?UpdateGold@mmMultiCR@@AAEXXZ 00425830
 0001:00024A50       ?UpdateHideout@mmMultiCR@@AAEXXZ 00425A50
 0001:00024BA0       ?UpdateBank@mmMultiCR@@AAEXXZ 00425BA0
 0001:00024CF0       ?UpdateLimit@mmMultiCR@@AAEXXZ 00425CF0
 0001:00024EE0       ?FillResults@mmMultiCR@@AAEXXZ 00425EE0
 0001:000251B0       ?SystemMessage@mmMultiCR@@UAEXPAUNETSYS_MSG@@@Z 004261B0
 0001:00025340       ?GameMessage@mmMultiCR@@UAEXPAUNET_RCXHEAD@@@Z 00426340
 0001:00025D10       ?UpdateTimeWarning@mmMultiCR@@AAEXXZ 00426D10
 0001:00025E80       ?DisplayTimeWarning@mmMultiCR@@AAEXH@Z 00426E80
 0001:00025F10       ?SendGameState@mmMultiCR@@AAEXK@Z 00426F10
 0001:00025FF0       ?SendSetup@mmMultiCR@@AAEXK@Z 00426FF0
 0001:00026000       ?SendGoldDrop@mmMultiCR@@AAEXVVector3@@@Z 00427000
 0001:00026040       ?SendGoldAck@mmMultiCR@@AAEXK@Z 00427040
 0001:00026080       ?SendGoldDeliver@mmMultiCR@@AAEXXZ 00427080
 0001:000260A0       ?SendChangeSet@mmMultiCR@@AAEXH@Z 004270A0
 0001:00026120       ?SendLimitReached@mmMultiCR@@AAEXH@Z 00427120
 0001:00026150       ?SendTimeWarning@mmMultiCR@@AAEXH@Z 00427150
 0001:00026180       ?UpdateHUD@mmMultiCR@@AAEXXZ 00427180
 0001:000262A0       ?Score@mmMultiCR@@AAEXH@Z  004272A0
 0001:000262D0       ?UpdateDebugKeyInput@mmMultiCR@@UAEXH@Z 004272D0
 0001:000262E0       ?CycleInterest@mmMultiCR@@AAEXH@Z 004272E0
 0001:00026340       ?SendLobbyResults@mmMultiCR@@QAEXKHH@Z 00427340
 0001:000264E0       ??_GmmMultiCR@@UAEPAXI@Z   004274E0
 0001:00026510       ?GetWaypoints@mmMultiCR@@UAEPAVmmWaypoints@@XZ 00427510
 0001:00026520       ??1netScoreInfo@@QAE@XZ    00427520
 0001:00026530       ??0mmMultiRoam@@QAE@XZ     00427530
 0001:00026560       ??1mmMultiRoam@@UAE@XZ     00427560
 0001:00026600       ?Init@mmMultiRoam@@UAEHXZ  00427600
 0001:00026700       ?InitMyPlayer@mmMultiRoam@@UAEXXZ 00427700
 0001:00026770       ?InitHUD@mmMultiRoam@@UAEXXZ 00427770
 0001:000267A0       ?InitGameObjects@mmMultiRoam@@UAEXXZ 004277A0
 0001:00026880       ?InitNetworkPlayers@mmMultiRoam@@UAEXXZ 00427880
 0001:00026C50       ?Reset@mmMultiRoam@@UAEXXZ 00427C50
 0001:00026CC0       ?UpdateGameInput@mmMultiRoam@@UAEXH@Z 00427CC0
 0001:00026CD0       ?UpdateGame@mmMultiRoam@@UAEXXZ 00427CD0
 0001:00026EB0       ?SwitchState@mmMultiRoam@@UAEXH@Z 00427EB0
 0001:00026EC0       ?SystemMessage@mmMultiRoam@@UAEXPAUNETSYS_MSG@@@Z 00427EC0
 0001:00027050       ?GameMessage@mmMultiRoam@@UAEXPAUNET_RCXHEAD@@@Z 00428050
 0001:00027220       ??_GmmMultiRoam@@UAEPAXI@Z 00428220
 0001:00027250       ?GetWaypoints@mmMultiRoam@@UAEPAVmmWaypoints@@XZ 00428250
 0001:00027260       ??0mmMultiRace@@QAE@XZ     00428260
 0001:000272A0       ??1mmMultiRace@@UAE@XZ     004282A0
 0001:00027340       ?Init@mmMultiRace@@UAEHXZ  00428340
 0001:00027430       ?InitMyPlayer@mmMultiRace@@UAEXXZ 00428430
 0001:000274A0       ?InitHUD@mmMultiRace@@UAEXXZ 004284A0
 0001:000274F0       ?InitGameObjects@mmMultiRace@@UAEXXZ 004284F0
 0001:00027700       ?InitNetworkPlayers@mmMultiRace@@UAEXXZ 00428700
 0001:00027AD0       ?Reset@mmMultiRace@@UAEXXZ 00428AD0
 0001:00027BA0       ?UpdateGameInput@mmMultiRace@@UAEXH@Z 00428BA0
 0001:00027BE0       ?UpdateGame@mmMultiRace@@UAEXXZ 00428BE0
 0001:00028440       ?SwitchState@mmMultiRace@@UAEXH@Z 00429440
 0001:00028450       ?SystemMessage@mmMultiRace@@UAEXPAUNETSYS_MSG@@@Z 00429450
 0001:00028560       ?GameMessage@mmMultiRace@@UAEXPAUNET_RCXHEAD@@@Z 00429560
 0001:00028BE0       ?SetTimeoutOn@mmMultiRace@@QAEXXZ 00429BE0
 0001:00028C10       ?SetTimeoutOff@mmMultiRace@@QAEXXZ 00429C10
 0001:00028D50       ??_GmmMultiRace@@UAEPAXI@Z 00429D50
 0001:00028D80       ?GetWaypoints@mmMultiRace@@UAEPAVmmWaypoints@@XZ 00429D80
 0001:00028D90       ??0mmPopup@@QAE@PAVmmGame@@MMMM@Z 00429D90
 0001:00029270       ??1mmPopup@@UAE@XZ         0042A270
 0001:00029280       ?IsEnabled@mmPopup@@QAEHXZ 0042A280
 0001:00029290       ?DisablePU@mmPopup@@QAEXH@Z 0042A290
 0001:00029320       ?ProcessEscape@mmPopup@@QAEXH@Z 0042A320
 0001:00029400       ?ProcessChat@mmPopup@@QAEXXZ 0042A400
 0001:000294B0       ?ProcessKeymap@mmPopup@@QAEXH@Z 0042A4B0
 0001:000295E0       ?ShowResults@mmPopup@@QAEXH@Z 0042A5E0
 0001:000296D0       ?ShowRoster@mmPopup@@QAEXXZ 0042A6D0
 0001:00029760       ?ShowReplay@mmPopup@@QAEXXZ 0042A760
 0001:000297A0       ?ForceRoster@mmPopup@@QAEXXZ 0042A7A0
 0001:00029830       ?Update@mmPopup@@UAEXXZ    0042A830
 0001:0002A430       ?Reset@mmPopup@@UAEXXZ     0042B430
 0001:0002A450       ?GetComment@mmPopup@@QAEPADXZ 0042B450
 0001:0002A460       ?SetComment@mmPopup@@QAEXPAD@Z 0042B460
 0001:0002A480       ?SaveReplay@mmPopup@@QAEXXZ 0042B480
 0001:0002A4F0       ?Lock@mmPopup@@QAEXXZ      0042B4F0
 0001:0002A500       ?Unlock@mmPopup@@QAEXXZ    0042B500
 0001:0002A510       ?ChatCB@mmPopup@@QAEXXZ    0042B510
 0001:0002A570       ?PlayPauseMusic@mmPopup@@QAEXXZ 0042B570
 0001:0002A5B0       ?PlayReturnMusic@mmPopup@@QAEXXZ 0042B5B0
 0001:0002A720       ??_GmmPopup@@UAEPAXI@Z     0042B720
 0001:0002A750       ??0mmMirror@@QAE@XZ        0042B750
 0001:0002A7A0       ??1mmMirror@@UAE@XZ        0042B7A0
 0001:0002A7C0       ?Init@mmMirror@@QAEXXZ     0042B7C0
 0001:0002A840       ?Reset@mmMirror@@UAEXXZ    0042B840
 0001:0002A8B0       ?Update@mmMirror@@UAEXXZ   0042B8B0
 0001:0002A8C0       ?Cull@mmMirror@@UAEXXZ     0042B8C0
 0001:0002A9E0       ?FileIO@mmMirror@@UAEXAAVdatParser@@@Z 0042B9E0
 0001:0002AAB0       ??0vehCar@@QAE@H@Z         0042BAB0
 0001:0002ACC0       ??1vehCar@@UAE@XZ          0042BCC0
 0001:0002AE10       ?Init@vehCar@@QAEXPBDHH_N@Z 0042BE10
 0001:0002B1D0       ?SetColliderID@vehCar@@QAEXH@Z 0042C1D0
 0001:0002B1E0       ?SetAudio@vehCar@@QAEXPAVvehCarAudioContainer@@@Z 0042C1E0
 0001:0002B1F0       ?InitAudio@vehCar@@QAEXPBDH@Z 0042C1F0
 0001:0002B290       ?SetInput@vehCar@@QAEXPAVvehInput@@@Z 0042C290
 0001:0002B2A0       ?GetInput@vehCar@@QAEPAVvehInput@@XZ 0042C2A0
 0001:0002B2B0       ?SetDriver@vehCar@@QAEXPAVvehDriver@@@Z 0042C2B0
 0001:0002B2C0       ?SetDrivable@vehCar@@QAEXHH@Z 0042C2C0
 0001:0002B330       ?Reset@vehCar@@QAEXXZ      0042C330
 0001:0002B450       ?ClearDamage@vehCar@@QAEXXZ 0042C450
 0001:0002B480       ?PreUpdate@vehCar@@UAEXXZ  0042C480
 0001:0002B570       ?UpdateTrack@vehCar@@AAEXAAVlvlTrackManager@@ABVvehWheel@@@Z 0042C570
 0001:0002B5E0       ?DrawTracks@vehCar@@QAEXXZ 0042C5E0
 0001:0002B690       ?Update@vehCar@@UAEXXZ     0042C690
 0001:0002B890       ?IsPlayer@vehCar@@QAEHXZ   0042C890
 0001:0002B8B0       ?PostUpdate@vehCar@@UAEXXZ 0042C8B0
 0001:0002BA70       ?GetICS@vehCar@@UAEPAVphInertialCS@@XZ 0042CA70
 0001:0002BA80       ?GetInst@vehCar@@UAEPAVlvlInstance@@XZ 0042CA80
 0001:0002BA90       ?RequiresTerrainCollision@vehCar@@UAE_NXZ 0042CA90
 0001:0002BBA0       ??_GmmMirror@@UAEPAXI@Z    0042CBA0
 0001:0002BBD0       ?GetClassName@mmMirror@@UAEPADXZ 0042CBD0
 0001:0002BBE0       ?PreUpdate@dgPhysEntity@@UAEXXZ 0042CBE0
 0001:0002BBF0       ?GetCollider@dgPhysEntity@@UAEPAVphCollider@@XZ 0042CBF0
 0001:0002BC00       ?DetachMe@dgPhysEntity@@UAEXXZ 0042CC00
 0001:0002BC10       ?RequiresTerrainCollision@dgPhysEntity@@UAE_NXZ 0042CC10
 0001:0002BC20       ?FirstImpactCallback@dgPhysEntity@@UAEXXZ 0042CC20
 0001:0002BC30       ??_GvehCar@@UAEPAXI@Z      0042CC30
 0001:0002BC60       ??1dgPhysEntity@@UAE@XZ    0042CC60
 0001:0002BC70       ??_GdgPhysEntity@@UAEPAXI@Z 0042CC70
 0001:0002BCA0       ?GetInstance@lvlMaterialMgr@@SAAAV1@XZ 0042CCA0
 0001:0002BD50       ??0mmHUD@@QAE@XZ           0042CD50
 0001:0002C280       ?PostChatMessage@mmHUD@@QAEXPAD@Z 0042D280
 0001:0002C2E0       ?ResChange@mmHUD@@UAEXHH@Z 0042D2E0
 0001:0002C3C0       ??1mmHUD@@UAE@XZ           0042D3C0
 0001:0002C560       ?StartTimers@mmHUD@@QAEXXZ 0042D560
 0001:0002C580       ?StopTimers@mmHUD@@QAEXXZ  0042D580
 0001:0002C5A0       ?ResetTimers@mmHUD@@QAEXXZ 0042D5A0
 0001:0002C5E0       ?Init@mmHUD@@QAEXPADPAVmmPlayer@@H@Z 0042D5E0
 0001:0002C910       ?Enable@mmHUD@@QAEXXZ      0042D910
 0001:0002C970       ?Disable@mmHUD@@QAEXH@Z    0042D970
 0001:0002C9D0       ?Toggle@mmHUD@@QAEXXZ      0042D9D0
 0001:0002C9F0       ?ToggleExternalView@mmHUD@@QAEXXZ 0042D9F0
 0001:0002CA90       ?SetDash@mmHUD@@QAEXH@Z    0042DA90
 0001:0002CAB0       ?ActivateDash@mmHUD@@QAEXXZ 0042DAB0
 0001:0002CAE0       ?DeactivateDash@mmHUD@@QAEXXZ 0042DAE0
 0001:0002CB10       ?IsDashActive@mmHUD@@QAEHXZ 0042DB10
 0001:0002CB20       ?Reset@mmHUD@@UAEXXZ       0042DB20
 0001:0002CB60       ?SetTransparency@mmHUD@@QAEX_N@Z 0042DB60
 0001:0002CB70       ?PostUpdate@mmHUD@@QAEXXZ  0042DB70
 0001:0002CBC0       ?Update@mmHUD@@UAEXXZ      0042DBC0
 0001:0002CF10       ?UpdatePaused@mmHUD@@UAEXXZ 0042DF10
 0001:0002CF40       ?Cull@mmHUD@@UAEXXZ        0042DF40
 0001:0002D040       ?ShowSplitTime@mmHUD@@QAEXXZ 0042E040
 0001:0002D0A0       ?SetStandings@mmHUD@@QAEXHH@Z 0042E0A0
 0001:0002D0E0       ?PostLapTime@mmHUD@@QAEX_N@Z 0042E0E0
 0001:0002D140       ?SetLapTime@mmHUD@@QAEXHH_N@Z 0042E140
 0001:0002D1D0       ?SetWPCleared@mmHUD@@QAEXHH@Z 0042E1D0
 0001:0002D1F0       ?SetMessage@mmHUD@@QAEXPAULocString@@MH@Z 0042E1F0
 0001:0002D240       ?SetMessage2@mmHUD@@QAEXPAULocString@@@Z 0042E240
 0001:0002D270       ?SetScore@mmHUD@@QAEXPAD@Z 0042E270
 0001:0002D290       ?AddPlayer@mmHUD@@QAEXPBDKHH@Z 0042E290
 0001:0002D2C0       ?SetScore@mmHUD@@QAEXKH@Z  0042E2C0
 0001:0002D2E0       ?RemovePlayer@mmHUD@@QAEXK@Z 0042E2E0
 0001:0002D300       ?ActivateGold@mmHUD@@QAEXXZ 0042E300
 0001:0002D310       ?DeactivateGold@mmHUD@@QAEXXZ 0042E310
 0001:0002D320       ?GetTime@mmHUD@@QAEXPADM@Z 0042E320
 0001:0002D340       ?PlayNetAlert@mmHUD@@QAEXXZ 0042E340
 0001:0002D360       ?TogglePositionDisplay@mmHUD@@QAEXH@Z 0042E360
 0001:0002D3C0       ?GetPosHdg@mmHUD@@QAEXAAVVector4@@@Z 0042E3C0
 0001:0002D420       ??0mmTimer@@QAE@XZ         0042E420
 0001:0002D480       ??1mmTimer@@UAE@XZ         0042E480
 0001:0002D490       ?Init@mmTimer@@QAEXHMH@Z   0042E490
 0001:0002D4C0       ?GetTime@mmTimer@@QAEMXZ   0042E4C0
 0001:0002D4D0       ?Update@mmTimer@@UAEXXZ    0042E4D0
 0001:0002D5F0       ?Reset@mmTimer@@UAEXXZ     0042E5F0
 0001:0002D610       ?Start@mmTimer@@QAEXXZ     0042E610
 0001:0002D630       ?Stop@mmTimer@@QAEXXZ      0042E630
 0001:0002D640       ?StartStop@mmTimer@@QAEXXZ 0042E640
 0001:0002D650       ??0mmArrow@@QAE@XZ         0042E650
 0001:0002D710       ??1mmArrow@@UAE@XZ         0042E710
 0001:0002D770       ?Init@mmArrow@@QAEXPAVMatrix34@@@Z 0042E770
 0001:0002D780       ?Reset@mmArrow@@UAEXXZ     0042E780
 0001:0002D790       ?SetInterest@mmArrow@@QAEXPAVVector3@@@Z 0042E790
 0001:0002D7A0       ?ReColorArrow@mmArrow@@AAEXH@Z 0042E7A0
 0001:0002D7F0       ?Update@mmArrow@@UAEXXZ    0042E7F0
 0001:0002DA50       ??_GmmHUD@@UAEPAXI@Z       0042EA50
 0001:0002DA80       ??1mmExternalView@@UAE@XZ  0042EA80
 0001:0002DAE0       ??_GmmTimer@@UAEPAXI@Z     0042EAE0
 0001:0002DB10       ??_GmmArrow@@UAEPAXI@Z     0042EB10
 0001:0002DB40       ?Scale@Vector3@@QAEXM@Z    0042EB40
 0001:0002DB60       ??0mmHudMap@@QAE@XZ        0042EB60
 0001:0002DC70       ??1mmHudMap@@UAE@XZ        0042EC70
 0001:0002DC80       ?Init@mmHudMap@@QAEXPAVMatrix34@@PAVmmGame@@PAD@Z 0042EC80
 0001:0002DE90       ?Reset@mmHudMap@@UAEXXZ    0042EE90
 0001:0002DEA0       ?RegisterOpponents@mmHudMap@@QAEXPAUOppIconInfo@@H@Z 0042EEA0
 0001:0002DEC0       ?RegisterCopsnRobbers@mmHudMap@@QAEXPAPAVVector3@@@Z 0042EEC0
 0001:0002DEE0       ?Activate@mmHudMap@@QAEXXZ 0042EEE0
 0001:0002DEF0       ?Deactivate@mmHudMap@@QAEXXZ 0042EEF0
 0001:0002DF00       ?GetNextMapMode@mmHudMap@@IAEHXZ 0042EF00
 0001:0002DF20       ?GetCurrentMapMode@mmHudMap@@IAEHXZ 0042EF20
 0001:0002DF30       ?SetMapMode@mmHudMap@@IAEXH@Z 0042EF30
 0001:0002E1A0       ?Update@mmHudMap@@UAEXXZ   0042F1A0
 0001:0002E1B0       ?Cull@mmHudMap@@UAEXXZ     0042F1B0
 0001:0002E580       ?DrawIcon@mmHudMap@@AAEXW4IconType@1@ABVMatrix34@@@Z 0042F580
 0001:0002E600       ?DrawColoredTri@@YAXIABVMatrix34@@@Z 0042F600
 0001:0002E690       ?DrawPlayer@mmHudMap@@AAEXXZ 0042F690
 0001:0002E6F0       ?DrawIndicator@mmHudMap@@AAEXW4IndicatorType@1@ABVVector3@@@Z 0042F6F0
 0001:0002E7D0       ?DrawOpponents@mmHudMap@@AAEXXZ 0042F7D0
 0001:0002E830       ?DrawCops@mmHudMap@@AAEXXZ 0042F830
 0001:0002E890       ?DrawWaypoints@mmHudMap@@AAEXXZ 0042F890
 0001:0002E9A0       ?DrawCopsnRobbers@mmHudMap@@AAEXXZ 0042F9A0
 0001:0002EA00       ?ToggleMapRes@mmHudMap@@QAEXXZ 0042FA00
 0001:0002EA10       ?ToggleMapOrient@mmHudMap@@QAEXXZ 0042FA10
 0001:0002EA20       ?SetZoomIn@mmHudMap@@QAEX_N@Z 0042FA20
 0001:0002EA30       ?GetZoomIn@mmHudMap@@QAE_NXZ 0042FA30
 0001:0002EA40       ?SetOrient@mmHudMap@@QAEX_N@Z 0042FA40
 0001:0002EA50       ?GetOrient@mmHudMap@@QAE_NXZ 0042FA50
 0001:0002EA60       ?FileIO@mmHudMap@@UAEXAAVdatParser@@@Z 0042FA60
 0001:0002ECC0       ??_GmmHudMap@@UAEPAXI@Z    0042FCC0
 0001:0002ECF0       ?Convert@@YAAAVMatrix44@@AAV1@ABVMatrix34@@@Z 0042FCF0
 0001:0002ED60       ?GetClassName@mmHudMap@@UAEPADXZ 0042FD60
 0001:0002ED70       ??0mmCarRoadFF@@QAE@XZ     0042FD70
 0001:0002EDB0       ??1mmCarRoadFF@@UAE@XZ     0042FDB0
 0001:0002EE10       ?AssignProperties@mmCarRoadFF@@QAEXMH@Z 0042FE10
 0001:0002EE20       ?SetFGVals@mmCarRoadFF@@QAEXMMM@Z 0042FE20
 0001:0002EF10       ?Start@mmCarRoadFF@@QAEXXZ 0042FF10
 0001:0002EF30       ?Stop@mmCarRoadFF@@QAEXXZ  0042FF30
 0001:0002EF40       ?Reset@mmCarRoadFF@@UAEXXZ 0042FF40
 0001:0002EF70       ?IsPlaying@mmCarRoadFF@@QAEHXZ 0042FF70
 0001:0002EF80       ?Update@mmCarRoadFF@@UAEXXZ 0042FF80
 0001:0002EFD0       ?UpdateVals@mmCarRoadFF@@QAEXXZ 0042FFD0
 0001:0002F020       ??_GmmCarRoadFF@@UAEPAXI@Z 00430020
 0001:0002F050       ??0mmRainAudio@@QAE@XZ     00430050
 0001:0002F220       ??1mmRainAudio@@QAE@XZ     00430220
 0001:0002F260       ?SetInterior@mmRainAudio@@QAEXE@Z 00430260
 0001:0002F2F0       ?ShelterOn@mmRainAudio@@QAEXXZ 004302F0
 0001:0002F350       ?ShelterOff@mmRainAudio@@QAEXXZ 00430350
 0001:0002F3C0       ?Update@mmRainAudio@@QAEXXZ 004303C0
 0001:0002F610       ??0mmDashView@@QAE@XZ      00430610
 0001:0002F7B0       ??1mmDashView@@UAE@XZ      004307B0
 0001:0002F890       ?Init@mmDashView@@QAEXPADPAVmmPlayer@@@Z 00430890
 0001:0002FA90       ?LoadPkg@mmDashView@@AAEXPAD@Z 00430A90
 0001:0002FC30       ?LoadPivotInfo@mmDashView@@AAEXPAD@Z 00430C30
 0001:0002FD90       ?Reset@mmDashView@@UAEXXZ  00430D90
 0001:0002FDA0       ?BeforeSave@mmDashView@@UAEXXZ 00430DA0
 0001:0002FE00       ?AfterLoad@mmDashView@@UAEXXZ 00430E00
 0001:0002FE60       ?ActivateUntilTransitionIsOver@mmDashView@@QAEXXZ 00430E60
 0001:0002FE80       ?Activate@mmDashView@@QAEXXZ 00430E80
 0001:0002FEA0       ?Deactivate@mmDashView@@QAEXXZ 00430EA0
 0001:0002FEC0       ?TempDeactivate@mmDashView@@QAEXXZ 00430EC0
 0001:0002FED0       ?Update@mmDashView@@UAEXXZ 00430ED0
 0001:0002FFB0       ?Cull@mmDashView@@UAEXXZ   00430FB0
 0001:000305D0       ?FileIO@mmDashView@@EAEXAAVdatParser@@@Z 004315D0
 0001:000307B0       ??0mmExternalView@@QAE@XZ  004317B0
 0001:00030840       ?Init@mmExternalView@@QAEXPAVmmPlayer@@@Z 00431840
 0001:00030880       ?ResChange@mmExternalView@@UAEXHH@Z 00431880
 0001:000309D0       ?Reset@mmExternalView@@UAEXXZ 004319D0
 0001:000309E0       ?Update@mmExternalView@@UAEXXZ 004319E0
 0001:000309F0       ?Cull@mmExternalView@@UAEXXZ 004319F0
 0001:00030B50       ??_GmmDashView@@UAEPAXI@Z  00431B50
 0001:00030B80       ??1asLinearCS@@UAE@XZ      00431B80
 0001:00030B90       ??1RadialGauge@@UAE@XZ     00431B90
 0001:00030BE0       ??_GmmExternalView@@UAEPAXI@Z 00431BE0
 0001:00030C10       ??1mmSlidingGauge@@QAE@XZ  00431C10
 0001:00030C20       ?GetClassNameA@mmExternalView@@UAEPADXZ 00431C20
 0001:00030C30       ?GetClassNameA@mmDashView@@UAEPADXZ 00431C30
 0001:00030C40       ??0mmViewMgr@@QAE@XZ       00431C40
 0001:00030C60       ??1mmViewMgr@@UAE@XZ       00431C60
 0001:00030C80       ?Init@mmViewMgr@@QAEXPAVmmHUD@@PAVmmHudMap@@PAVmmPlayer@@@Z 00431C80
 0001:00030D10       ?SetViewSetting@mmViewMgr@@QAEXH@Z 00431D10
 0001:00031100       ?Update@mmViewMgr@@UAEXXZ  00432100
 0001:00031110       ??_GmmViewMgr@@UAEPAXI@Z   00432110
 0001:00031140       ??0mmIcons@@QAE@XZ         00432140
 0001:00031210       ??1mmIcons@@UAE@XZ         00432210
 0001:00031290       ?Init@mmIcons@@QAEXPAVMatrix34@@MMH@Z 00432290
 0001:000312F0       ?RegisterOpponents@mmIcons@@QAEXPAUOppIconInfo@@HPAX@Z 004322F0
 0001:00031390       ?Update@mmIcons@@UAEXXZ    00432390
 0001:000313D0       ?Cull@mmIcons@@UAEXXZ      004323D0
 0001:00031C10       ??_GmmIcons@@UAEPAXI@Z     00432C10
 0001:00031C40       ??0mmAmbientAudio@@QAE@PAVmmPlayer@@@Z 00432C40
 0001:00031D00       ??1mmAmbientAudio@@QAE@XZ  00432D00
 0001:00031D10       ?Update@mmAmbientAudio@@QAEXXZ 00432D10
 0001:00031F70       ??0mmCDPlayer@@QAE@XZ      00432F70
 0001:00032000       ?Init@mmCDPlayer@@QAEXPAVmmHUD@@@Z 00433000
 0001:000320F0       ?Reset@mmCDPlayer@@UAEXXZ  004330F0
 0001:00032100       ?Update@mmCDPlayer@@UAEXXZ 00433100
 0001:00032170       ?Cull@mmCDPlayer@@UAEXXZ   00433170
 0001:00032370       ?PlayStop@mmCDPlayer@@QAEXXZ 00433370
 0001:000323F0       ?NextTrack@mmCDPlayer@@QAEXXZ 004333F0
 0001:00032460       ?PrevTrack@mmCDPlayer@@QAEXXZ 00433460
 0001:000324D0       ?Toggle@mmCDPlayer@@QAEXXZ 004334D0
 0001:00032640       ??_GmmCDPlayer@@UAEPAXI@Z  00433640
 0001:00032670       ??1mmCDPlayer@@UAE@XZ      00433670
 0001:000326D0       ?LoadMusic@mmSingleRaceMusicData@@UAE_NPAD@Z 004336D0
 0001:00032890       ?LoadMusicSegments@mmSingleRaceMusicData@@AAE_NPAVStream@@F@Z 00433890
 0001:00032A60       ??0mmGameSingle@@QAE@XZ    00433A60
 0001:00032A90       ??1mmGameSingle@@UAE@XZ    00433A90
 0001:00032AA0       ?Init@mmGameSingle@@UAEHXZ 00433AA0
 0001:00032AB0       ?InitOtherPlayers@mmGameSingle@@UAEXXZ 00433AB0
 0001:00032AC0       ?Reset@mmGameSingle@@UAEXXZ 00433AC0
 0001:00032B50       ?EnableRacers@mmGameSingle@@IAEXXZ 00433B50
 0001:00032C00       ?DisableRacers@mmGameSingle@@IAEXXZ 00433C00
 0001:00032C70       ?HitWaterHandler@mmGameSingle@@UAEXXZ 00433C70
 0001:00032C80       ?Update@mmGameSingle@@UAEXXZ 00433C80
 0001:00032C90       ?UpdateGameInput@mmGameSingle@@UAEXH@Z 00433C90
 0001:00032CA0       ?UpdateGame@mmGameSingle@@UAEXXZ 00433CA0
 0001:00032CB0       ?UpdateRewards@mmGameSingle@@IAE_NXZ 00433CB0
 0001:00032EF0       ??_GmmGameSingle@@UAEPAXI@Z 00433EF0
 0001:00032F20       ?UpdateDebugKeyInput@mmGameSingle@@UAEXH@Z 00433F20
 0001:00032F30       ??1mmRewardRecord@@QAE@XZ  00433F30
 0001:00032F40       ?Load@mmGameMusicData@@QAE_NPAD0@Z 00433F40
 0001:00032FB0       ?GetNumDMusicChoiceGroups@mmGameMusicData@@QAEFPAVStream@@@Z 00433FB0
 0001:00033000       ?RandomizeNumber@mmGameMusicData@@QAEFF@Z 00434000
 0001:00033060       ?LoadAmbientSFX@mmGameMusicData@@AAE_NPAD@Z 00434060
 0001:00033190       ?LoadAmbientSFXSegments@mmGameMusicData@@AAE_NPAVStream@@F@Z 00434190
 0001:00033250       ?LoadMusic@mmGameMusicData@@UAE_NPAD@Z 00434250
 0001:00033260       ??0mmWaypoints@@QAE@XZ     00434260
 0001:00033370       ??1mmWaypoints@@UAE@XZ     00434370
 0001:00033430       ?Init@mmWaypoints@@QAEHPAVmmPlayer@@PADHHHHI@Z 00434430
 0001:00033540       ?InitStatic@mmWaypoints@@QAEXPAVmmPlayer@@HI@Z 00434540
 0001:00033700       ?ReInit@mmWaypoints@@QAEXHPADI@Z 00434700
 0001:00033960       ?GetStartAngle@mmWaypoints@@QAEMXZ 00434960
 0001:00033980       ?SaveCSV@mmWaypoints@@QAEHPAD@Z 00434980
 0001:00033A70       ?LoadCSV@mmWaypoints@@QAEHPADH@Z 00434A70
 0001:00034240       ?Cull@mmWaypoints@@UAEXXZ  00435240
 0001:00034280       ?Update@mmWaypoints@@UAEXXZ 00435280
 0001:000347D0       ?DeactivateFinish@mmWaypoints@@QAEXXZ 004357D0
 0001:000347E0       ?Reset@mmWaypoints@@UAEXXZ 004357E0
 0001:000348F0       ?GetStart@mmWaypoints@@QAEXAAVVector3@@@Z 004358F0
 0001:00034930       ?GetWaypoint@mmWaypoints@@QAEXHAAVVector3@@@Z 00435930
 0001:00034970       ?GetHeading@mmWaypoints@@QAEMH@Z 00435970
 0001:000349A0       ?GenerateHitRooms@mmWaypoints@@IAEXXZ 004359A0
 0001:00034A00       ?GetHitRoom@mmWaypoints@@QAEHH@Z 00435A00
 0001:00034A20       ?SetArrow@mmWaypoints@@QAEXXZ 00435A20
 0001:00034A50       ?GetCurrentDistance@mmWaypoints@@QAEMXZ 00435A50
 0001:00034AA0       ?ResetAllTags@mmWaypoints@@QAEXXZ 00435AA0
 0001:00034B10       ?GetClosestWaypoint@mmWaypoints@@QAEXXZ 00435B10
 0001:00034BD0       ?CycleCurrentWaypoint@mmWaypoints@@IAEXH@Z 00435BD0
 0001:00034C40       ?GetNextWaypoint@mmWaypoints@@QAEXXZ 00435C40
 0001:00034C50       ?GetLastWaypoint@mmWaypoints@@QAEXXZ 00435C50
 0001:00034C60       ?SetCurrentGoals@mmWaypoints@@IAEXH@Z 00435C60
 0001:00034CA0       ?AnyDrawn@mmWaypoints@@QAEHXZ 00435CA0
 0001:00034CE0       ?AIWPHit@mmWaypoints@@QAEHHHVMatrix34@@VVector3@@M@Z 00435CE0
 0001:00034DE0       ?AnyWPHits@mmWaypoints@@QAEHH@Z 00435DE0
 0001:00034F60       ?ClearWaypoint@mmWaypoints@@IAEXH@Z 00435F60
 0001:000350C0       ?DisplayHUDMessage@mmWaypoints@@QAEXH@Z 004360C0
 0001:000353A0       ??_GmmWaypoints@@UAEPAXI@Z 004363A0
 0001:000353D0       ??0mmWPHUD@@QAE@XZ         004363D0
 0001:000354D0       ??1mmWPHUD@@UAE@XZ         004364D0
 0001:00035580       ?SetWPCleared@mmWPHUD@@QAEXXZ 00436580
 0001:000355C0       ?SetStandings@mmWPHUD@@QAEXHH@Z 004365C0
 0001:00035600       ?Init@mmWPHUD@@QAEXHPAH0H@Z 00436600
 0001:000358D0       ?Reset@mmWPHUD@@UAEXXZ     004368D0
 0001:00035920       ?Update@mmWPHUD@@UAEXXZ    00436920
 0001:00035950       ?Cull@mmWPHUD@@UAEXXZ      00436950
 0001:00035960       ??0mmCircuitHUD@@QAE@XZ    00436960
 0001:00035A60       ??1mmCircuitHUD@@UAE@XZ    00436A60
 0001:00035B50       ?Init@mmCircuitHUD@@QAEXXZ 00436B50
 0001:000360D0       ?Update@mmCircuitHUD@@UAEXXZ 004370D0
 0001:000360E0       ?SetStandings@mmCircuitHUD@@QAEXHH@Z 004370E0
 0001:00036120       ?SetLapTime@mmCircuitHUD@@QAEXHMPADH@Z 00437120
 0001:000361C0       ?SetWPCleared@mmCircuitHUD@@QAEXHH@Z 004371C0
 0001:00036200       ?Reset@mmCircuitHUD@@UAEXXZ 00437200
 0001:000362A0       ??0mmCRHUD@@QAE@XZ         004372A0
 0001:00036430       ??1mmCRHUD@@UAE@XZ         00437430
 0001:00036560       ?Init@mmCRHUD@@QAEXPAVMatrix34@@PADW4mmCRGameClass@@@Z 00437560
 0001:00036D40       ?ToggleScores@mmCRHUD@@QAEXXZ 00437D40
 0001:00036D70       ?AddPlayer@mmCRHUD@@QAEXPBDKHI@Z 00437D70
 0001:00036EC0       ?UnPackColor@mmCRHUD@@QAEXIAAVVector4@@@Z 00437EC0
 0001:00036F40       ?SetScore@mmCRHUD@@QAEXPAD@Z 00437F40
 0001:00036F60       ?SetName@mmCRHUD@@QAEXPADH@Z 00437F60
 0001:00036FE0       ?SetScore@mmCRHUD@@QAEXKH@Z 00437FE0
 0001:00037050       ?RemovePlayer@mmCRHUD@@QAEXK@Z 00438050
 0001:000371E0       ?ActivateGold@mmCRHUD@@QAEXXZ 004381E0
 0001:000371F0       ?DeactivateGold@mmCRHUD@@QAEXXZ 004381F0
 0001:00037200       ?ActivateRosterGold@mmCRHUD@@QAEXK@Z 00438200
 0001:00037240       ?DeactivateRosterGold@mmCRHUD@@QAEXXZ 00438240
 0001:00037270       ?UpdateGold@mmCRHUD@@QAEXXZ 00438270
 0001:000372E0       ?PostUpdate@mmCRHUD@@UAEXXZ 004382E0
 0001:00037300       ?Update@mmCRHUD@@UAEXXZ    00438300
 0001:00037310       ?Reset@mmCRHUD@@UAEXXZ     00438310
 0001:00037320       ?SetBlueScore@mmCRHUD@@QAEXH@Z 00438320
 0001:00037360       ?SetRedScore@mmCRHUD@@QAEXH@Z 00438360
 0001:000373A0       ??0mmCollideHUD@@QAE@XZ    004383A0
 0001:000373D0       ??1mmCollideHUD@@UAE@XZ    004383D0
 0001:00037460       ?Init@mmCollideHUD@@QAEXHPAH0H@Z 00438460
 0001:000376F0       ?Update@mmCollideHUD@@UAEXXZ 004386F0
 0001:00037700       ?Reset@mmCollideHUD@@UAEXXZ 00438700
 0001:00037720       ?SetBangerCount@mmCollideHUD@@QAEXH@Z 00438720
 0001:00037760       ?SetVehicleCount@mmCollideHUD@@QAEXH@Z 00438760
 0001:000377A0       ??_GmmWPHUD@@UAEPAXI@Z     004387A0
 0001:000377D0       ??_GmmCircuitHUD@@UAEPAXI@Z 004387D0
 0001:00037800       ??_EmmNumber@@UAEPAXI@Z    00438800
 0001:00037860       ??_EmmTextNode@@UAEPAXI@Z  00438860
 0001:000378C0       ??_GmmCRHUD@@UAEPAXI@Z     004388C0
 0001:000378F0       ??_GmmCollideHUD@@UAEPAXI@Z 004388F0
 0001:00037920       ??1mmGameHUD@@UAE@XZ       00438920
 0001:00037930       ??_GmmGameHUD@@UAEPAXI@Z   00438930
 0001:00037960       ?PostUpdate@mmWPHUD@@UAEXXZ 00438960
 0001:00037970       ?PostUpdate@mmCircuitHUD@@UAEXXZ 00438970
 0001:00037980       ?LoadMusic@mmSingleRoamMusicData@@UAE_NPAD@Z 00438980
 0001:00037B00       ?LoadMusicSegments@mmSingleRoamMusicData@@AAE_NPAVStream@@F@Z 00438B00
 0001:00037CC0       ??0mmGameMulti@@QAE@XZ     00438CC0
 0001:00037E60       ??1mmGameMulti@@UAE@XZ     00438E60
 0001:00037F40       ?Init@mmGameMulti@@UAEHXZ  00438F40
 0001:00038130       ?HitWaterHandler@mmGameMulti@@UAEXXZ 00439130
 0001:00038230       ?DropThruCityHandler@mmGameMulti@@UAEXXZ 00439230
 0001:00038240       ?InitGameStrings@mmGameMulti@@UAEXXZ 00439240
 0001:00038470       ?SetFinishCam@mmGameMulti@@QAEXXZ 00439470
 0001:000384E0       ?StartXYZ@mmGameMulti@@IAEXHAAVVector3@@0MM@Z 004394E0
 0001:00038710       ?SystemMessageCB@mmGameMulti@@QAEXPAX0@Z 00439710
 0001:00038AF0       ?GameMessageCB@mmGameMulti@@QAEXPAX0@Z 00439AF0
 0001:000393B0       ?BootStrapCars@mmGameMulti@@QAEXXZ 0043A3B0
 0001:000394D0       ?BeDone@mmGameMulti@@UAEXH@Z 0043A4D0
 0001:000395D0       ?Reset@mmGameMulti@@UAEXXZ 0043A5D0
 0001:000396E0       ?ClearNetObjects@mmGameMulti@@QAEXXZ 0043A6E0
 0001:00039720       ?InitOtherPlayers@mmGameMulti@@UAEXXZ 0043A720
 0001:00039750       ?InitRoster@mmGameMulti@@UAEXXZ 0043A750
 0001:000397F0       ?SendPosition@mmGameMulti@@QAEXXZ 0043A7F0
 0001:00039900       ?Update@mmGameMulti@@UAEXXZ 0043A900
 0001:00039980       ?UpdateGame@mmGameMulti@@UAEXXZ 0043A980
 0001:000399B0       ?UpdateScore@mmGameMulti@@QAEXXZ 0043A9B0
 0001:00039DA0       ?ClearRank@mmGameMulti@@QAEXXZ 0043ADA0
 0001:00039DC0       ?UpdateDebugKeyInput@mmGameMulti@@UAEXH@Z 0043ADC0
 0001:00039DD0       ?RegisterMapNetObjects@mmGameMulti@@QAEXH@Z 0043ADD0
 0001:00039EF0       ?DeactivateMapNetObject@mmGameMulti@@QAEXH@Z 0043AEF0
 0001:00039F20       ?ActivateMapNetObject@mmGameMulti@@QAEXH@Z 0043AF20
 0001:00039F60       ?GetInactiveNetObject@mmGameMulti@@QAEPAVmmNetObject@@XZ 0043AF60
 0001:00039F90       ?GetInactiveNetObjectIndex@mmGameMulti@@QAEHXZ 0043AF90
 0001:00039FB0       ?GetNetObject@mmGameMulti@@QAEPAVmmNetObject@@KH@Z 0043AFB0
 0001:00039FF0       ?GetNetObjectIndex@mmGameMulti@@QAEHKH@Z 0043AFF0
 0001:0003A040       ?EnableRacers@mmGameMulti@@IAEXXZ 0043B040
 0001:0003A0E0       ?DisableRacers@mmGameMulti@@IAEXXZ 0043B0E0
 0001:0003A140       ?QuitNetwork@mmGameMulti@@QAEXXZ 0043B140
 0001:0003A170       ?PlayerFinishedLoading@mmGameMulti@@QAEXXZ 0043B170
 0001:0003A1D0       ?PlayerClearLoaded@mmGameMulti@@QAEXXZ 0043B1D0
 0001:0003A220       ?ParseChatMessage@mmGameMulti@@QAEHPADH@Z 0043B220
 0001:0003A310       ?SortResults@mmGameMulti@@IAE_NKMH@Z 0043B310
 0001:0003A390       ?UpdateResults@mmGameMulti@@IAEXH@Z 0043B390
 0001:0003A4C0       ?BroadCastCarTuning@mmGameMulti@@QAEXH@Z 0043B4C0
 0001:0003A530       ?SendChatMessage@mmGameMulti@@UAEXPAD@Z 0043B530
 0001:0003A5A0       ?SendToChatMessage@mmGameMulti@@QAEXPADK@Z 0043B5A0
 0001:0003A610       ?SendTimeMsg@mmGameMulti@@QAEXK@Z 0043B610
 0001:0003A630       ?SendCarTuning@mmGameMulti@@QAEXPBDK@Z 0043B630
 0001:0003A640       ?SendHostCars@mmGameMulti@@QAEXK@Z 0043B640
 0001:0003A6C0       ?FinishMessage@mmGameMulti@@QAEXH@Z 0043B6C0
 0001:0003A780       ?BootPlayerCB@mmGameMulti@@QAEXPAX0@Z 0043B780
 0001:0003A7C0       ?UpdateNetWorkAudio@mmGameMulti@@QAEXXZ 0043B7C0
 0001:0003A7D0       ?SendLobbyResults@mmGameMulti@@QAEXHIM@Z 0043B7D0
 0001:0003A870       ?GetCarCRC@mmGameMulti@@IAEKPAD@Z 0043B870
 0001:0003A8B0       ?SendMsg@mmGameMulti@@QAEXH@Z 0043B8B0
 0001:0003A8D0       ?SendBootMsg@mmGameMulti@@QAEXK@Z 0043B8D0
 0001:0003A8F0       ?SendFinishAck@mmGameMulti@@IAEXKMH@Z 0043B8F0
 0001:0003A930       ?SendFinishReq@mmGameMulti@@IAEXMH@Z 0043B930
 0001:0003A970       ?SendRaceReady@mmGameMulti@@IAEXXZ 0043B970
 0001:0003A9B0       ?SendGameSet@mmGameMulti@@IAEXXZ 0043B9B0
 0001:0003A9E0       ?SendCheater@mmGameMulti@@IAEXK@Z 0043B9E0
 0001:0003AA20       ?SendHitWater@mmGameMulti@@IAEXXZ 0043BA20
 0001:0003AB80       ??_GmmGameMulti@@UAEPAXI@Z 0043BB80
 0001:0003ABB0       ?Dot@Vector3@@QAEXABV1@ABVMatrix34@@@Z 0043BBB0
 0001:0003AC10       ?Init@mmAccelCompute@@QAEHVVector3@@0@Z 0043BC10
 0001:0003AC60       ?SetLatest@mmAccelCompute@@QAEXVVector3@@M@Z 0043BC60
 0001:0003AD70       ??0mmNetPath@@QAE@XZ       0043BD70
 0001:0003ADB0       ??1mmNetPath@@QAE@XZ       0043BDB0
 0001:0003ADC0       ?Reset@mmNetPath@@QAEXXZ   0043BDC0
 0001:0003ADF0       ?Compute@mmNetPath@@QAEXAAVVector3@@000@Z 0043BDF0
 0001:0003AFE0       ?Solve@mmNetPath@@QAEXAAVVector3@@0M@Z 0043BFE0
 0001:0003B080       ??0mmNetObject@@QAE@XZ     0043C080
 0001:0003B240       ??1mmNetObject@@UAE@XZ     0043C240
 0001:0003B260       ?ResetValues@mmNetObject@@QAEXXZ 0043C260
 0001:0003B370       ?Clear@mmNetObject@@QAEXXZ 0043C370
 0001:0003B480       ?Activate@mmNetObject@@QAEXXZ 0043C480
 0001:0003B4B0       ?Deactivate@mmNetObject@@QAEXXZ 0043C4B0
 0001:0003B4E0       ?Init@mmNetObject@@QAEXPAVvehCar@@PADMHK1_N@Z 0043C4E0
 0001:0003B5D0       ?ReInit@mmNetObject@@QAEXPAVvehCar@@PADMHK1_N@Z 0043C5D0
 0001:0003B740       ?SetCar@mmNetObject@@QAEXPAVvehCar@@@Z 0043C740
 0001:0003B750       ?Set@mmNetObject@@QAEXH@Z  0043C750
 0001:0003B760       ?SetActive@mmNetObject@@QAEXH@Z 0043C760
 0001:0003B780       ?SetScore@mmNetObject@@QAEXH@Z 0043C780
 0001:0003B790       ?SetInputData@mmNetObject@@QAEXXZ 0043C790
 0001:0003B820       ?SetPositionData@mmNetObject@@QAEHK@Z 0043C820
 0001:0003BC90       ?InputUpdate@mmNetObject@@QAEXPAUNET_INPUTDATA@@M@Z 0043CC90
 0001:0003BD10       ?PositionUpdate@mmNetObject@@QAEXPAUNET_POSDATA@@M@Z 0043CD10
 0001:0003C700       ?GetPositionApproach@mmNetObject@@QAEMABVVector3@@0@Z 0043D700
 0001:0003C750       ?GetAngleApproach@mmNetObject@@QAEMMM@Z 0043D750
 0001:0003C760       ?Predict@mmNetObject@@QAEXXZ 0043D760
 0001:0003C850       ?Update@mmNetObject@@UAEXXZ 0043D850
 0001:0003C980       ?Cull@mmNetObject@@UAEXXZ  0043D980
 0001:0003CD00       ??_GmmNetObject@@UAEPAXI@Z 0043DD00
 0001:0003CD50       ??XVector3@@QAEXABV0@@Z    0043DD50
 0001:0003CD80       ?Set@Vector4@@QAEXMMMM@Z   0043DD80
 0001:0003CDA0       ?Dot@Vector4@@QBEMABV1@@Z  0043DDA0
 0001:0003CDE0       nullsub_224                0043DDE0
 0001:0003CDF0       ?wpmin@@YAMMM@Z            0043DDF0
 0001:0003CE10       ?wpmax@@YAMMM@Z            0043DE10
 0001:0003CE30       ??0mmWaypointObject@@QAE@AAVVector4@@PADHMHM@Z 0043DE30
 0001:0003D010       ??1mmWaypointObject@@UAE@XZ 0043E010
 0001:0003D020       ?Reset@mmWaypointObject@@UAEXXZ 0043E020
 0001:0003D060       ?Update@mmWaypointObject@@UAEXXZ 0043E060
 0001:0003D0C0       ?Activate@mmWaypointObject@@QAEXXZ 0043E0C0
 0001:0003D0D0       ?Deactivate@mmWaypointObject@@QAEXXZ 0043E0D0
 0001:0003D0E0       ?SetHeading@mmWaypointObject@@QAEXM@Z 0043E0E0
 0001:0003D140       ?SetPos@mmWaypointObject@@QAEXVVector3@@@Z 0043E140
 0001:0003D160       ?SetHeadingType@mmWaypointObject@@QAEXH@Z 0043E160
 0001:0003D170       ?SetRadius@mmWaypointObject@@QAEXM@Z 0043E170
 0001:0003D190       ?CalculateGatePoints@mmWaypointObject@@QAEXXZ 0043E190
 0001:0003D210       ?PlaneHit@mmWaypointObject@@QAEHVMatrix34@@VVector2@@1VVector3@@@Z 0043E210
 0001:0003D3B0       ?RadiusHit@mmWaypointObject@@QAEHVVector3@@@Z 0043E3B0
 0001:0003D400       ?LineIntersect@mmWaypointObject@@QAEHVVector2@@000M@Z 0043E400
 0001:0003D5E0       ?GetDrawFlag@mmWaypointObject@@QAEHXZ 0043E5E0
 0001:0003D5F0       ?Move@mmWaypointObject@@QAEXXZ 0043E5F0
 0001:0003D6C0       ?GetHitFlag@mmWaypointObject@@QAEHXZ 0043E6C0
 0001:0003D6D0       ?SetHitFlag@mmWaypointObject@@QAEXH@Z 0043E6D0
 0001:0003D6E0       ??_GmmWaypointObject@@UAEPAXI@Z 0043E6E0
 0001:0003D710       ??0RadialGauge@@QAE@XZ     0043E710
 0001:0003D7A0       ?Init@RadialGauge@@QAEXPAVmodStatic@@PAPAVmodShader@@VVector3@@PBM3M@Z 0043E7A0
 0001:0003D820       ?Update@RadialGauge@@UAEXXZ 0043E820
 0001:0003D940       ?Cull@RadialGauge@@UAEXXZ  0043E940
 0001:0003D9F0       ?Cull@RadialGauge@@QAEXPBVMatrix34@@@Z 0043E9F0
 0001:0003DD50       ?GetArrowAngle@RadialGauge@@AAEMXZ 0043ED50
 0001:0003DE40       ??0mmLinearGauge@@QAE@XZ   0043EE40
 0001:0003DE60       ??1mmLinearGauge@@QAE@XZ   0043EE60
 0001:0003DE70       ?Init@mmLinearGauge@@QAEXPADPAM1HPAVmmExternalView@@@Z 0043EE70
 0001:0003DED0       ?InitOverlay@mmLinearGauge@@QAEXPAD@Z 0043EED0
 0001:0003DEF0       ?Draw@mmLinearGauge@@QAEXXZ 0043EEF0
 0001:0003DFB0       ?Init@mmSlidingGauge@@QAEXPADPAM1HPAVmmExternalView@@H@Z 0043EFB0
 0001:0003DFE0       ?Draw@mmSlidingGauge@@QAEXXZ 0043EFE0
 0001:0003E0A0       ??0mmGearIndicator@@QAE@XZ 0043F0A0
 0001:0003E0C0       ?Init@mmGearIndicator@@QAEXPAVmmExternalView@@PAVmmPlayer@@@Z 0043F0C0
 0001:0003E1F0       ?Draw@mmGearIndicator@@QAEXXZ 0043F1F0
 0001:0003E260       ??0mmSpeedIndicator@@QAE@XZ 0043F260
 0001:0003E280       ?Init@mmSpeedIndicator@@QAEXPAVmmExternalView@@PAVvehCarSim@@@Z 0043F280
 0001:0003E330       ?Draw@mmSpeedIndicator@@QAEXXZ 0043F330
 0001:0003E450       ??_GRadialGauge@@UAEPAXI@Z 0043F450
 0001:0003E480       ?CheckSet@gfxRenderState@@AAEXAAEE@Z 0043F480
 0001:0003E4A0       ??0mmWaypointInstance@@QAE@XZ 0043F4A0
 0001:0003E510       ??1mmWaypointInstance@@QAE@XZ 0043F510
 0001:0003E520       ?GetPosition@mmWaypointInstance@@UAEABVVector3@@XZ 0043F520
 0001:0003E530       ?GetMatrix@mmWaypointInstance@@UAEABVMatrix34@@AAV2@@Z 0043F530
 0001:0003E550       ?SetMatrix@mmWaypointInstance@@UAEXABVMatrix34@@@Z 0043F550
 0001:0003E570       ?MakeVisible@mmWaypointInstance@@QAEXXZ 0043F570
 0001:0003E580       ?MakeInvisible@mmWaypointInstance@@QAEXXZ 0043F580
 0001:0003E590       ??0mmCheckpointInstance@@QAE@XZ 0043F590
 0001:0003E5F0       ??1mmCheckpointInstance@@QAE@XZ 0043F5F0
 0001:0003E600       ?Init@mmCheckpointInstance@@UAEXPADVVector3@@@Z 0043F600
 0001:0003E650       ?Draw@mmCheckpointInstance@@UAEXH@Z 0043F650
 0001:0003E7A0       ?SizeOf@mmCheckpointInstance@@UAEIXZ 0043F7A0
 0001:0003E7B0       ??0mmBillInstance@@QAE@XZ  0043F7B0
 0001:0003E810       ??1mmBillInstance@@QAE@XZ  0043F810
 0001:0003E820       ?Init@mmBillInstance@@UAEXPADVVector3@@@Z 0043F820
 0001:0003E860       ?Draw@mmBillInstance@@UAEXH@Z 0043F860
 0001:0003EA10       ?SizeOf@mmBillInstance@@UAEIXZ 0043FA10
 0001:0003EA20       ??0mmPowerupInstance@@QAE@XZ 0043FA20
 0001:0003EA80       ??1mmPowerupInstance@@QAE@XZ 0043FA80
 0001:0003EA90       ?Init@mmPowerupInstance@@UAEXPADVVector3@@@Z 0043FA90
 0001:0003EAD0       ?Draw@mmPowerupInstance@@UAEXH@Z 0043FAD0
 0001:0003EC20       ?SizeOf@mmPowerupInstance@@UAEIXZ 0043FC20
 0001:0003EC30       ?Detach@lvlInstance@@UAEXXZ 0043FC30
 0001:0003EC40       ?IsCollidable@lvlInstance@@UAE_NXZ 0043FC40
 0001:0003EC50       ?IsTerrainCollidable@lvlInstance@@UAE_NXZ 0043FC50
 0001:0003EC60       ?SetVariant@mmWaypointInstance@@UAEXH@Z 0043FC60
 0001:0003EC70       ??0dgBangerActive@@QAE@XZ  0043FC70
 0001:0003ED40       ??1dgBangerActive@@UAE@XZ  0043FD40
 0001:0003EDB0       ?GetInst@dgBangerActive@@UAEPAVlvlInstance@@XZ 0043FDB0
 0001:0003EDC0       ?Attach@dgBangerActive@@QAEXPAVdgBangerInstance@@@Z 0043FDC0
 0001:0003EFF0       ?Detach@dgBangerActive@@QAEXXZ 0043FFF0
 0001:0003F030       ?DetachMe@dgBangerActive@@UAEXXZ 00440030
 0001:0003F050       ?Update@dgBangerActive@@UAEXXZ 00440050
 0001:0003F0E0       ?PostUpdate@dgBangerActive@@UAEXXZ 004400E0
 0001:0003F170       ??0dgBangerActiveManager@@QAE@XZ 00440170
 0001:0003F220       ??1dgBangerActiveManager@@UAE@XZ 00440220
 0001:0003F290       ?GetActive@dgBangerActiveManager@@QAEPAVdgBangerActive@@PAVdgBangerInstance@@@Z 00440290
 0001:0003F2C0       ?Attach@dgBangerActiveManager@@QAEPAVdgBangerActive@@PAVdgBangerInstance@@@Z 004402C0
 0001:0003F350       ?Detach@dgBangerActiveManager@@QAEXPAVdgBangerActive@@@Z 00440350
 0001:0003F3A0       ?Update@dgBangerActiveManager@@UAEXXZ 004403A0
 0001:0003F500       ?Reset@dgBangerActiveManager@@UAEXXZ 00440500
 0001:0003F560       ??_GdgBangerActive@@UAEPAXI@Z 00440560
 0001:0003F590       ??_GdgBangerActiveManager@@UAEPAXI@Z 00440590
 0001:0003F5C0       ?GetICS@dgBangerActive@@UAEPAVphInertialCS@@XZ 004405C0
 0001:0003F5D0       ?LoadEntry@dgBangerData@@QAEHPAD@Z 004405D0
 0001:0003F600       ?GetDirName@dgBangerData@@UAEPBDXZ 00440600
 0001:0003F610       ?AdjustPrim@dgBangerData@@QAEXXZ 00440610
 0001:0003F6E0       ??0dgBangerDataManager@@QAE@XZ 004406E0
 0001:0003F860       ??1dgBangerDataManager@@UAE@XZ 00440860
 0001:0003F940       ?AddBangerDataEntry@dgBangerDataManager@@QAEHPBD0@Z 00440940
 0001:0003FA60       ?ChangeData@dgBangerDataManager@@QAEXXZ 00440A60
 0001:0003FA90       ?Load@dgBangerData@@UAE_NXZ 00440A90
 0001:0003FDB0       ?Save@dgBangerData@@UAE_NXZ 00440DB0
 0001:00040170       ?AdjustBound@dgBangerData@@QAEXXZ 00441170
 0001:000401C0       ?InitBound@dgBangerData@@QAEXXZ 004411C0
 0001:000403D0       ??_GdgBangerDataManager@@UAEPAXI@Z 004413D0
 0001:00040400       ??1ptxGlassBirthRules@@UAE@XZ 00441400
 0001:00040410       ??_GptxGlassBirthRules@@UAEPAXI@Z 00441410
 0001:00040440       ?GetClassName@ptxGlassBirthRules@@UAEPADXZ 00441440
 0001:00040450       ??0dgBangerData@@QAE@XZ    00441450
 0001:00040520       ?GetClassName@dgBangerData@@UAEPADXZ 00441520
 0001:00040530       ??_GdgBangerData@@UAEPAXI@Z 00441530
 0001:00040560       ??1dgBangerData@@UAE@XZ    00441560
 0001:000405B0       ?GetClassName@dgBangerDataManager@@UAEPADXZ 004415B0
 0001:000405C0       ?ComputeLod@dgBangerInstance@@UAEHMM@Z 004415C0
 0001:000405E0       ?Draw@dgBangerInstance@@UAEXH@Z 004415E0
 0001:000407B0       ?DrawReflected@dgBangerInstance@@UAEXM@Z 004417B0
 0001:000407C0       ?DrawTree@dgBangerInstance@@QAEXH@Z 004417C0
 0001:00040840       ?DrawGlow@dgBangerInstance@@UAEXXZ 00441840
 0001:00040990       ?DrawShadow@dgBangerInstance@@UAEXXZ 00441990
 0001:000409A0       ?DrawShadowMap@dgBangerInstance@@UAEXXZ 004419A0
 0001:00040AB0       ?GetData@dgBangerInstance@@QAEPAVdgBangerData@@XZ 00441AB0
 0001:00040AD0       ?GetEntity@dgBangerInstance@@UAEPAVdgPhysEntity@@XZ 00441AD0
 0001:00040AE0       ?AttachEntity@dgBangerInstance@@UAEPAVdgPhysEntity@@XZ 00441AE0
 0001:00040B20       ?GetVelocity@dgBangerInstance@@UAEABVVector3@@XZ 00441B20
 0001:00040B40       ?SetMatrix@dgHitBangerInstance@@UAEXABVMatrix34@@@Z 00441B40
 0001:00040B60       ?GetMatrix@dgHitBangerInstance@@UAEABVMatrix34@@AAV2@@Z 00441B60
 0001:00040B70       ?GetPosition@dgHitBangerInstance@@UAEABVVector3@@XZ 00441B70
 0001:00040B80       ?InitBreakables@dgUnhitBangerInstance@@QAEXPBDPAVdgBangerData@@@Z 00441B80
 0001:00040C30       ?Init@dgUnhitBangerInstance@@UAEHPBDABVMatrix34@@H@Z 00441C30
 0001:00040D80       ?RequestBanger@dgUnhitBangerInstance@@SAPAV1@PBDH@Z 00441D80
 0001:00040EE0       ?Reset@dgUnhitBangerInstance@@UAEXXZ 00441EE0
 0001:00040F40       ?SetMatrix@dgUnhitYBangerInstance@@UAEXABVMatrix34@@@Z 00441F40
 0001:00040F70       ?GetMatrix@dgUnhitYBangerInstance@@UAEABVMatrix34@@AAV2@@Z 00441F70
 0001:00040FC0       ?GetPosition@dgUnhitYBangerInstance@@UAEABVVector3@@XZ 00441FC0
 0001:00040FD0       ?SetMatrix@dgUnhitMtxBangerInstance@@UAEXABVMatrix34@@@Z 00441FD0
 0001:00040FF0       ?GetMatrix@dgUnhitMtxBangerInstance@@UAEABVMatrix34@@AAV2@@Z 00441FF0
 0001:00041000       ?GetPosition@dgUnhitMtxBangerInstance@@UAEABVVector3@@XZ 00442000
 0001:00041010       ?Impact@dgUnhitBangerInstance@@UAEXPAVlvlInstance@@PAVVector3@@@Z 00442010
 0001:00041570       ?InitBound@dgUnhitBangerInstance@@QAE_NPBD0PAVdgBangerData@@H@Z 00442570
 0001:00041580       ?GetBound@dgBangerInstance@@UAEPBVphBound@@H@Z 00442580
 0001:00041680       ?Detach@dgHitBangerInstance@@UAEXXZ 00442680
 0001:000416B0       ??0dgBangerManager@@QAE@XZ 004426B0
 0001:000416E0       ??1dgBangerManager@@UAE@XZ 004426E0
 0001:00041780       ?GetBanger@dgBangerManager@@QAEPAVdgHitBangerInstance@@XZ 00442780
 0001:000417E0       ?Init@dgBangerManager@@QAEXH@Z 004427E0
 0001:00041870       ?InitGlow@dgBangerManager@@QAEXPBD@Z 00442870
 0001:000418A0       ?Reset@dgBangerManager@@UAEXXZ 004428A0
 0001:00041910       ?SetupGfxLights@dgBangerInstance@@UBEHABVMatrix34@@@Z 00442910
 0001:00041920       ??_GdgBangerManager@@UAEPAXI@Z 00442920
 0001:00041950       ??_EdgHitBangerInstance@@QAEPAXI@Z 00442950
 0001:000419B0       ??1dgHitBangerInstance@@QAE@XZ 004429B0
 0001:000419C0       ?Cross@Vector3@@QAEXABV1@0@Z 004429C0
 0001:00041A10       ?SetVariant@dgBangerInstance@@UAEXH@Z 00442A10
 0001:00041A60       ??0dgHitBangerInstance@@QAE@XZ 00442A60
 0001:00041AB0       ?SizeOf@dgHitBangerInstance@@UAEIXZ 00442AB0
 0001:00041AC0       j_??1lvlInstance@@QAE@XZ   00442AC0
 0001:00041AD0       ?ImpactCB@dgUnhitBangerInstance@@UAEXPAVdgHitBangerInstance@@@Z 00442AD0
 0001:00041AE0       ?SizeOf@dgUnhitYBangerInstance@@UAEIXZ 00442AE0
 0001:00041AF0       ?SizeOf@dgUnhitMtxBangerInstance@@UAEIXZ 00442AF0
 0001:00041B00       ??0dgTreeRenderer@@QAE@XZ  00442B00
 0001:00041B20       ?AddTree@dgTreeRenderer@@QAEXPAVdgBangerInstance@@H@Z 00442B20
 0001:00041B50       ?RenderTrees@dgTreeRenderer@@QAEXXZ 00442B50
 0001:00041C10       ??0dgGlassInstance@@QAE@XZ 00442C10
 0001:00041C30       ?InitStaticSystems@dgGlassInstance@@SAXXZ 00442C30
 0001:00041C90       ?Reset@dgGlassInstance@@UAEXXZ 00442C90
 0001:00041CD0       ?Impact@dgGlassInstance@@UAEXPAVlvlInstance@@PAVVector3@@@Z 00442CD0
 0001:00041E90       ?Draw@dgGlassInstance@@UAEXH@Z 00442E90
 0001:00041EF0       ?DrawGlow@dgGlassInstance@@UAEXXZ 00442EF0
 0001:00041F00       ?SizeOf@dgGlassInstance@@UAEIXZ 00442F00
 0001:00041F10       ?InstallTextureVariantHandler@@YAXXZ 00442F10
 0001:00041F50       ?gfxPrepareImage@@YAPAVgfxImage@@PBD_N@Z 00442F50
 0001:00042110       ??0dgStatePack@@QAE@XZ     00443110
 0001:00042180       ??1dgStatePack@@QAE@XZ     00443180
 0001:00042190       ?InitFromArgs@dgStatePack@@QAEXXZ 00443190
 0001:00042290       ??0cityTimeWeatherLighting@@QAE@XZ 00443290
 0001:00042300       ?ComputeAmbientLightLevels@cityTimeWeatherLighting@@QAEXXZ 00443300
 0001:00042440       ?FileIO@cityTimeWeatherLighting@@QAEXAAVdatParser@@@Z 00443440
 0001:00042530       ?LoadCityTimeWeatherLighting@@YAXXZ 00443530
 0001:00042610       ?IsInRoomCheckWarps@cityLevel@@IAE_NABVVector3@@H@Z 00443610
 0001:000426A0       ?SetupLighting@cityLevel@@SAXABVVector3@@@Z 004436A0
 0001:00042830       ?SetLightDirection@@YAXPBVVector3@@MM@Z 00443830
 0001:00042860       ??0cityLevel@@QAE@XZ       00443860
 0001:00042910       ??1cityLevel@@UAE@XZ       00443910
 0001:00042930       ?GetBound@cityLevel@@UAEPBVlvlLevelBound@@XZ 00443930
 0001:00042940       ?GetEnvMap@cityLevel@@UAEPAVgfxTexture@@HABVVector3@@AAM@Z 00443940
 0001:00042970       ??0dgRoadDecalInstance@@QAE@PBDABVdgPath@@@Z 00443970
 0001:00042B00       ??1dgRoadDecalInstance@@QAE@XZ 00443B00
 0001:00042B60       ?DrawShadow@dgRoadDecalInstance@@UAEXXZ 00443B60
 0001:00042E00       ?Draw@dgRoadDecalInstance@@UAEXH@Z 00443E00
 0001:00042E10       ?GetPosition@dgRoadDecalInstance@@UAEABVVector3@@XZ 00443E10
 0001:00042E20       ?SizeOf@dgRoadDecalInstance@@UAEIXZ 00443E20
 0001:00042E30       ?GetMatrix@dgRoadDecalInstance@@UAEABVMatrix34@@AAV2@@Z 00443E30
 0001:00042E40       ?SetMatrix@dgRoadDecalInstance@@UAEXABVMatrix34@@@Z 00443E40
 0001:00042E50       ?SetObjectDetail@cityLevel@@UAEXH@Z 00443E50
 0001:00042F30       ?Load@cityLevel@@UAEXPBD@Z 00443F30
 0001:000440E0       ?LoadProp@cityLevel@@SAXHPBDABVMatrix34@@@Z 004450E0
 0001:00044140       ?LoadPathSet@cityLevel@@CAXPBDPBD@Z 00445140
 0001:000441E0       ?LoadPath@cityLevel@@SAXPBDABVMatrix34@@_N@Z 004451E0
 0001:00044210       ?AddWarp@cityLevel@@CAXHH@Z 00445210
 0001:00044280       ?GetWaterLevel@cityLevel@@UBEMH@Z 00445280
 0001:00044290       ?GetLightingIntensity@cityLevel@@UBEMABVVector3@@@Z 00445290
 0001:000442A0       ?SetPtxHeight@cityLevel@@UAEXAAVasParticles@@@Z 004452A0
 0001:000442B0       ?Update@cityLevel@@UAEXXZ  004452B0
 0001:000442E0       ?PreDraw@cityLevel@@UAEXXZ 004452E0
 0001:00044300       ?PostDraw@cityLevel@@UAEXXZ 00445300
 0001:00044310       ?GetBoundSphere@cityLevel@@UAE_NAAVVector4@@H@Z 00445310
 0001:00044340       ?DecompressPvs@cityLevel@@IAEXH@Z 00445340
 0001:000443E0       j_nullsub_226              004453E0
 0001:000443F0       nullsub_226                004453F0
 0001:00044400       ?Draw@cityLevel@@UAEXABVgfxViewport@@I@Z 00445400
 0001:000447B0       ?SetupPerRoomLighting@cityLevel@@IAEXH@Z 004457B0
 0001:00044820       ?DrawRooms@cityLevel@@IAEXABVgfxViewport@@IPBUcityRoomRec@@H@Z 00445820
 0001:00044949       cityLevel_drawSDL          00445949
 0001:00044BD5       cityLevel_drawStatics      00445BD5
 0001:00044CD7       cityLevel_drawShadows      00445CD7
 0001:00044F55       cityLevel_drawObjects      00445F55
 0001:0004514B       cityLevel_drawLights       0044614B
 0001:00045370       ?InitFullProbe@cityLevel@@IAEXHH@Z 00446370
 0001:00045920       ?FullProbe@cityLevel@@IAEHABVVector3@@@Z 00446920
 0001:00045A60       ?FindRoomId@cityLevel@@UAEHABVVector3@@H@Z 00446A60
 0001:00045C20       ?GetNeighborCount@cityLevel@@UAEHH@Z 00446C20
 0001:00045C40       ?GetNeighbors@cityLevel@@UAEHPAHH@Z 00446C40
 0001:00045CD0       ?GetTouchedNeighbors@cityLevel@@UAEHPAHHHABVVector4@@@Z 00446CD0
 0001:00045D10       ?GetTouchedNeighborsR@cityLevel@@QAEHPAHHHABVVector4@@H@Z 00446D10
 0001:00045FA0       ?GetRoomPerimeter@cityLevel@@UAEHHQAVVector3@@H@Z 00446FA0
 0001:00046010       ?GetLastStartRoom@cityLevel@@QAEHXZ 00447010
 0001:00046020       ?Collide@cityLevel@@UAE_NHAAVlvlSegment@@PAVlvlIntersection@@@Z 00447020
 0001:00046030       ?GetVisitList@cityLevel@@UAEHPAHHABVVector3@@1HH@Z 00447030
 0001:00046290       ?EnableSky@cityLevel@@QAEX_N@Z 00447290
 0001:000462A0       ?EnablePVS@cityLevel@@QAEX_N@Z 004472A0
 0001:000462C0       ??_GcityLevel@@UAEPAXI@Z   004472C0
 0001:000462F0       ?ClampToWorld@lvlLevel@@UAE_NAAVVector3@@@Z 004472F0
 0001:00046300       ?InitNoArea@sdlPoly@@IAE_NHHHHH@Z 00447300
 0001:00046470       ?SetQuad@sdlPoly@@QAE_NHHMHMHMHM@Z 00447470
 0001:00046670       ?SetFlatQuad@sdlPoly@@QAE_NHHHHHM@Z 00447670
 0001:00046850       ?SetQuad@sdlPoly@@QAE_NHABVVector3@@000@Z 00447850
 0001:000469D0       ?SetTri@sdlPoly@@QAE_NHABVVector3@@00@Z 004479D0
 0001:00046AF0       ?SetFlatTri@sdlPoly@@QAE_NHHHHM@Z 00447AF0
 0001:00046C70       ?SetWall@sdlPoly@@QAE_NHHHMM@Z 00447C70
 0001:00046D50       ?SetWall@sdlPoly@@QAE_NHABVVector3@@0MM@Z 00447D50
 0001:00046ED0       ?InitFromPoly@sdlPolyCached@@QAEXPBVsdlPoly@@@Z 00447ED0
 0001:00047030       j_nullsub_227              00448030
 0001:00047040       nullsub_227                00448040
 0001:00047050       ??0sdlCommon@@QAE@XZ       00448050
 0001:00047090       ?UpdateLighting@sdlCommon@@SAXXZ 00448090
 0001:000472C0       ??1sdlCommon@@QAE@XZ       004482C0
 0001:000472E0       ?CollideEdgePoint@sdlCommon@@UBEHAAVlvlSegment@@PAVlvlIntersectionPoint@@H@Z 004482E0
 0001:000472F0       ?CollideProbePoint@sdlCommon@@UBE_NAAVlvlSegment@@PAVlvlIntersectionPoint@@M@Z 004482F0
 0001:00047300       ?CollideAIPoint@sdlCommon@@UBE_NAAVlvlSegment@@PAVlvlIntersectionPoint@@@Z 00448300
 0001:00047310       ?AllocateState@sdlCommon@@UBEPADXZ 00448310
 0001:00047330       ?Draw@sdlPage16@@QBEXHI@Z  00448330
 0001:000473BF       psdl_set_texture           004483BF
 0001:000473D9       psdl_draw_alleys           004483D9
 0001:000475DD       psdl_draw_intersection_sidewalks 004485DD
 0001:00048229       psdl_draw_road             00449229
 0001:000482C3       psdl_draw_road_verylow     004492C3
 0001:000484E2       psdl_draw_road_low         004494E2
 0001:000486CA       psdl_draw_sidewalk_L       004496CA
 0001:00048890       psdl_draw_sidewalk_L_shaded 00449890
 0001:00048A38       psdl_draw_sidewalk_R       00449A38
 0001:00048BFE       psdl_draw_sidewalk_R_shaded 00449BFE
 0001:00048DA4       psdl_draw_road_L           00449DA4
 0001:00048F8B       psdl_draw_road_R           00449F8B
 0001:00049156       psdl_draw_median_road      0044A156
 0001:0004B99C       psdl_draw_tunnel_junction  0044C99C
 0001:0004ED3A       psdl_draw_roofs            0044FD3A
 0001:0004EE58       psdl_draw_intersection_surfaces 0044FE58
 0001:0004EE92       psdl_draw_terrain_thing    0044FE92
 0001:0004EFC3       psdl_draw_intersection_crosswalks 0044FFC3
 0001:0004F16F       psdl_set_shade_color       0045016F
 0001:0004F17F       psdl_draw_buildings_thing  0045017F
 0001:0004F3A6       psdl_draw_slivers_thing    004503A6
 0001:0004F79E       psdl_invalid_cmd           0045079E
 0001:0004F880       ?GetShadedColor@sdlPage16@@DAIII@Z 00450880
 0001:0004F910       ?GetShadedColor@sdlPage16@@DAIIII@Z 00450910
 0001:0004F930       ?GetDrawnSDLPrims@sdlPage16@@QBEHHPAHH@Z 00450930
 0001:00054830       ?Collect@sdlPage16@@QBEHPBVVector4@@PAVsdlPoly@@HAAH@Z 00455830
 0001:000594E0       ??0sdlPage16@@QAE@HH@Z     0045A4E0
 0001:00059530       ??0lvlSDL@@QAE@XZ          0045A530
 0001:00059550       ??1lvlSDL@@QAE@XZ          0045A550
 0001:00059560       ?ArcMap@sdlPage16@@QBEXPAMPBGHHH@Z 0045A560
 0001:00059760       ?WallMap@sdlPage16@@QBEXPAMPBGMHH@Z 0045A760
 0001:00059900       ?PointInPerimeter@sdlPage16@@QBE_NMM@Z 0045A900
 0001:000599F0       ?GetCentroid@sdlPage16@@QBEXAAVVector3@@@Z 0045A9F0
 0001:00059B40       ?FindBoundingIsoParams@sdlPage16@@SAXPBVVector4@@PBVVector3@@PBGHHAAH3@Z 0045AB40
 0001:00059DF0       ?ComputeBoundSphere@sdlPage16@@QBEXAAVVector4@@@Z 0045ADF0
 0001:00059E90       ?CollideSegment@sdlPage16@@QBE_NPBVVector4@@AAVlvlSegment@@AAVlvlIntersection@@MM@Z 0045AE90
 0001:0005A060       ?CollidePolyToLevel@lvlSDL@@UBEHPBVphBoundPolygonal@@PAHHPAVphColliderBase@@PBVMatrix34@@3PAVlvlIntersection@@H1_N@Z 0045B060
 0001:0005AB90       nullsub_10                 0045BB90
 0001:0005ABA0       ?CollideEdge@lvlSDL@@UBEHAAVlvlSegment@@PAVlvlIntersection@@HPAHH@Z 0045BBA0
 0001:0005ABB0       ?CollideProbe@lvlSDL@@UBE_NAAVlvlSegment@@PAVlvlIntersection@@M@Z 0045BBB0
 0001:0005AE40       ?CollideAI@lvlSDL@@UBE_NAAVlvlSegment@@PAVlvlIntersection@@PAHH@Z 0045BE40
 0001:0005AE50       ?Enumerate@lvlSDL@@QBEXHP6AXABV1@HHHPBGPAX@Z2@Z 0045BE50
 0001:0005AF90       ?LoadBinary@sdlPage16@@SAPAV1@PAVStream@@@Z 0045BF90
 0001:0005B040       ?LoadBinary@lvlSDL@@QAE_NPBD@Z 0045C040
 0001:0005B540       ?IsoLerp@lvlSDL@@CA_NAAVVector3@@AAHPBV2@HPBGHM_N4@Z 0045C540
 0001:0005B660       ?Propulate@lvlSDL@@SAXABV1@HHHPBGPAX@Z 0045C660
 0001:0005BB90       ?GetVertex@lvlSDL@@UBEABVVector3@@H@Z 0045CB90
 0001:0005BBB0       _sqrtf                     0045CBB0
 0001:0005BBC0       ?BACKFACE@sdlCommon@@SA_NABVVector3@@0@Z 0045CBC0
 0001:0005BC10       ?Max@@YAMMM@Z              0045CC10
 0001:0005BC30       ?Lerp@@YAMMMM@Z            0045CC30
 0001:0005BC50       ??0Vector2@@QAE@XZ         0045CC50
 0001:0005BC60       ?Mag@Vector2@@QBEMXZ       0045CC60
 0001:0005BC80       ?Mag2@Vector2@@QBEMXZ      0045CC80
 0001:0005BCA0       ??0Vector3@@QAE@XZ         0045CCA0
 0001:0005BCB0       ?Set@Vector3@@QAEXMMM@Z    0045CCB0
 0001:0005BCD0       ??YVector3@@QAEXABV0@@Z    0045CCD0
 0001:0005BD00       ??ZVector3@@QAEXABV0@@Z    0045CD00
 0001:0005BD30       ?Subtract@Vector3@@QAEXABV1@@Z 0045CD30
 0001:0005BD60       ?Normalize@Vector3@@QAEXXZ 0045CD60
 0001:0005BDC0       ?InvMag@Vector3@@QBEMXZ    0045CDC0
 0001:0005BE00       ?Add@Vector3@@QAEXABV1@@Z  0045CE00
 0001:0005BE40       ?Scale@Vector3@@QAEXABV1@M@Z 0045CE40
 0001:0005BE80       ?Cross@Vector3@@QAEXABV1@@Z 0045CE80
 0001:0005BEC0       ?Dist@Vector3@@QBEMABV1@@Z 0045CEC0
 0001:0005BF00       ?FlatDist@Vector3@@QBEMABV1@@Z 0045CF00
 0001:0005BF30       ?GetNumMaterials@phBound@@UBEHXZ 0045CF30
 0001:0005BF40       ?SetFriction@phBound@@UAEXM@Z 0045CF40
 0001:0005BF50       ?SetElasticity@phBound@@UAEXM@Z 0045CF50
 0001:0005BF60       ?SetFriction@phBound@@UAEMXZ 0045CF60
 0001:0005BF70       ?SetElasticity@phBound@@UAEMXZ 0045CF70
 0001:0005BF80       ?ModifyInvMassMatrix@phBound@@UBEXPAVMatrix34@@HABVVector3@@@Z 0045CF80
 0001:0005BF90       ?ModifyInvMassMatrix@phBound@@UBEXPAVMatrix34@@HABVVector3@@1@Z 0045CF90
 0001:0005BFA0       ?EffectiveMass@phBound@@UBEMABVVector3@@0HM@Z 0045CFA0
 0001:0005BFB0       ?FindImpactsSphereOneRoom@lvlLevelBound@@EBEHHPBVphBoundSphere@@ABVVector3@@PAVphColliderBase@@2PAVphImpactBase@@H@Z 0045CFB0
 0001:0005BFC0       ?FindImpactsHotdogOneRoom@lvlLevelBound@@EBEHHQBVVector3@@PBVphBoundHotdog@@PBVMatrix34@@2PAVphColliderBase@@3PAVphImpactBase@@HABV2@@Z 0045CFC0
 0001:0005BFD0       ?vglTexCoord2f@@YAXMM@Z    0045CFD0
 0001:0005BFF0       ?vglVertex3f@@YAXMMM@Z     0045CFF0
 0001:0005C080       ?vglVertex3f@@YAXVVector3@@@Z 0045D080
 0001:0005C110       ?GetPerimeterCount@sdlPage16@@QBEHXZ 0045D110
 0001:0005C120       ?GetPerimeterVertexIndex@sdlPage16@@QBEHH@Z 0045D120
 0001:0005C140       ?GetCodedVertex@sdlPage16@@QBEABVVector3@@H@Z 0045D140
 0001:0005C160       ?GetFloat@sdlPage16@@QBEMH@Z 0045D160
 0001:0005C170       ?GetTexture@sdlPage16@@QBEPAVgfxTexture@@H@Z 0045D170
 0001:0005C180       ?GetColor@gfxTexture@@QBEIXZ 0045D180
 0001:0005C200       ??0cityPropulator@@QAE@ABVlvlSDL@@@Z 0045D200
 0001:0005C220       ?Load@cityPropulator@@QAE_NPBD00@Z 0045D220
 0001:0005C270       ??1cityPropulator@@QAE@XZ  0045D270
 0001:0005C290       ?LookupRule@cityPropulator@@QAEHPBD@Z 0045D290
 0001:0005C2C0       ?Propulate@cityPropulator@@QAEXHHHP6AXHPBDABVMatrix34@@@Z@Z 0045D2C0
 0001:0005C520       ?Init@lvlAiMap@@SAXH@Z     0045D520
 0001:0005C590       ?LoadCurrent@lvlAiMap@@SAXABVlvlSDL@@HHHPBGPAX@Z 0045D590
 0001:0005C700       ?SetRoad@lvlAiMap@@SAXABVlvlSDL@@H_N@Z 0045D700
 0001:0005C720       ?SetRoad@lvlAiMap@@SAXPBVlvlSDL@@H_N@Z 0045D720
 0001:0005C840       ?GetRoad@lvlAiMap@@SAPAVlvlAiRoad@@H@Z 0045D840
 0001:0005C860       ?GetNumRoads@lvlAiMap@@SAIXZ 0045D860
 0001:0005C870       ?LoadBinary@lvlAiRoad@@QAEXPAVStream@@@Z 0045D870
 0001:0005C910       ?LoadBinary@lvlAiMap@@SAXPAVStream@@@Z 0045D910
 0001:0005C9C0       ?Delete@lvlAiMap@@SAXXZ    0045D9C0
 0001:0005CA00       ?GetRoom@lvlAiMap@@SAHH@Z  0045DA00
 0001:0005CA20       ?GetRoomChop@lvlAiMap@@SA_NH@Z 0045DA20
 0001:0005CA50       ?GetNumRooms@lvlAiMap@@SAHXZ 0045DA50
 0001:0005CA60       ?GetNumVertexs@lvlAiMap@@SAHXZ 0045DA60
 0001:0005CA70       ?GetNumLanes@lvlAiMap@@SAHH@Z 0045DA70
 0001:0005CAA0       ?GetNumCablecarLanes@lvlAiMap@@SAHH@Z 0045DAA0
 0001:0005CAB0       ?GetNumSubwayLanes@lvlAiMap@@SAHH@Z 0045DAB0
 0001:0005CAE0       ?GetNumSidewalks@lvlAiMap@@SAHH@Z 0045DAE0
 0001:0005CAF0       ?GetNormal@lvlAiMap@@SA?AVVector3@@H@Z 0045DAF0
 0001:0005CC30       ?GetSidewalkVertex@lvlAiMap@@SA?AVVector3@@HHH@Z 0045DC30
 0001:0005CF60       ?GetSidewalkVertexMulti@lvlAiMap@@SA?AVVector3@@HHH@Z 0045DF60
 0001:0005D130       ?GetSidewalkVertexSingle@lvlAiMap@@SA?AVVector3@@HHH@Z 0045E130
 0001:0005D260       ?GetCablecarVertex@lvlAiMap@@SA?AVVector3@@HHH@Z 0045E260
 0001:0005D2A0       ?GetSubwayVertex@lvlAiMap@@SA?AVVector3@@HHH@Z 0045E2A0
 0001:0005D2E0       ?GetVertex@lvlAiMap@@SA?AVVector3@@HHH@Z 0045E2E0
 0001:0005D5F0       ?GetVertexMulti@lvlAiMap@@SA?AVVector3@@HHH@Z 0045E5F0
 0001:0005D710       ?GetVertexSingle@lvlAiMap@@SA?AVVector3@@HHH@Z 0045E710
 0001:0005D7F0       ?GetVertexSingleCenter@lvlAiMap@@SA?AVVector3@@HHH@Z 0045E7F0
 0001:0005D8C0       ?IsBlocked@lvlAiMap@@SAHH@Z 0045E8C0
 0001:0005D8D0       ?IsPedBlocked@lvlAiMap@@SAHH@Z 0045E8D0
 0001:0005D8E0       ?IsDivided@lvlAiMap@@SAHXZ 0045E8E0
 0001:0005D8F0       ?IsAlley@lvlAiMap@@SAHXZ   0045E8F0
 0001:0005D900       ?IsFreeway@lvlAiMap@@SAHXZ 0045E900
 0001:0005D910       ?GetRoadIntersection@lvlAiMap@@SAHH@Z 0045E910
 0001:0005D930       ?GetIntersectionType@lvlAiMap@@SAHH@Z 0045E930
 0001:0005D980       ?GetStopLightPos@lvlAiMap@@SAXHAAVVector3@@0_N@Z 0045E980
 0001:0005DC80       ?GetStopLightName@lvlAiMap@@SAPADH@Z 0045EC80
 0001:0005DCC0       ?GetStopLightType@lvlAiMap@@SAHH@Z 0045ECC0
 0001:0005DCE0       ??0asBirthRule@@QAE@XZ     0045ECE0
 0001:0005DDB0       ?GetDirName@asBirthRule@@UAEPBDXZ 0045EDB0
 0001:0005DDC0       ?InitSpark@asBirthRule@@QAEXPAUasSparkInfo@@AAVasParticles@@H@Z 0045EDC0
 0001:0005E0A0       ?Copy@asBirthRule@@QAEXPAV1@@Z 0045F0A0
 0001:0005E210       ?Indent@asBirthRule@@QAEXPAVdatBaseTokenizer@@H@Z 0045F210
 0001:0005E240       ?Save@asBirthRule@@QAEXPAVdatBaseTokenizer@@H@Z 0045F240
 0001:0005E720       ?Load@asBirthRule@@QAEXPAVdatBaseTokenizer@@@Z 0045F720
 0001:0005E900       ?FileIO@asBirthRule@@UAEXAAVdatParser@@@Z 0045F900
 0001:0005EBC0       ??_GasBirthRule@@UAEPAXI@Z 0045FBC0
 0001:0005EBF0       ??1asBirthRule@@UAE@XZ     0045FBF0
 0001:0005EC00       ?AddValue@datParser@@QAEXPBDPAHPAVdatCallback@@@Z 0045FC00
 0001:0005EC20       ?GetClassName@asBirthRule@@UAEPADXZ 0045FC20
 0001:0005EC30       ?draw_textured_tri@@YAXPAVgfxTexture@@ABVMatrix34@@MMM@Z 0045FC30
 0001:0005ECE0       ??0fxShard@@QAE@XZ         0045FCE0
 0001:0005ED20       ??1fxShard@@QAE@XZ         0045FD20
 0001:0005ED30       ?AddShard@fxShard@@QAEXVVector3@@00M@Z 0045FD30
 0001:0005EDA0       ?Update@fxShard@@QAEXXZ    0045FDA0
 0001:0005EE30       ?Draw@fxShard@@QAEXPAVmodShader@@@Z 0045FE30
 0001:0005EE70       ??0fxShardManager@@QAE@XZ  0045FE70
 0001:0005EEE0       ??1fxShardManager@@UAE@XZ  0045FEE0
 0001:0005EF60       ?GetInstance@fxShardManager@@SAPAV1@H@Z 0045FF60
 0001:0005EF80       ?Init@fxShardManager@@QAEXHPAVmodShader@@H@Z 0045FF80
 0001:0005F010       ?SetShader@fxShardManager@@QAEXPAVmodShader@@H@Z 00460010
 0001:0005F030       ?EmitShards@fxShardManager@@QAEXVVector3@@MMABVMatrix34@@@Z 00460030
 0001:0005F0B0       ?EmitAllShards@fxShardManager@@QAEXVVector3@@MABVMatrix34@@@Z 004600B0
 0001:0005F100       ?EmitShard@fxShardManager@@QAEXVVector3@@MABVMatrix34@@@Z 00460100
 0001:0005F2A0       ?Update@fxShardManager@@UAEXXZ 004602A0
 0001:0005F2D0       ?Draw@fxShardManager@@QAEXXZ 004602D0
 0001:0005F390       ??_GfxShardManager@@UAEPAXI@Z 00460390
 0001:0005F3C0       ??_EfxShard@@QAEPAXI@Z     004603C0
 0001:0005F470       ?Get@asSparkLut@@SAPAV1@PAD@Z 00460470
 0001:0005F4B0       ?Init@asSparkLut@@QAEXPAD@Z 004604B0
 0001:0005F690       ??0asLineSparks@@QAE@XZ    00460690
 0001:0005F6B0       ??1asLineSparks@@UAE@XZ    004606B0
 0001:0005F740       ?Init@asLineSparks@@QAEXHPAD@Z 00460740
 0001:0005F830       ?RadialBlast@asLineSparks@@QAEXHAAVVector3@@0@Z 00460830
 0001:0005FBE0       ?Update@asLineSparks@@QAEXXZ 00460BE0
 0001:0005FC20       ?Update@asLineSparks@@QAEXM@Z 00460C20
 0001:0005FDE0       ?Draw@asLineSparks@@QAEXXZ 00460DE0
 0001:0005FE70       ??_GasLineSparks@@UAEPAXI@Z 00460E70
 0001:0005FEA0       ??1asCullable@@UAE@XZ      00460EA0
 0001:0005FEB0       ??0asParticles@@QAE@XZ     00460EB0
 0001:0005FF20       ??1asParticles@@UAE@XZ     00460F20
 0001:0005FFB0       ?Init@asParticles@@QAEXHHHHPAUasMeshCardVertex@@@Z 00460FB0
 0001:00060040       ?Reset@asParticles@@QAEXXZ 00461040
 0001:00060050       ?SetTexture@asParticles@@QAEXPAVgfxTexture@@@Z 00461050
 0001:00060090       ?SetTexture@asParticles@@QAEXPBD@Z 00461090
 0001:000600F0       ?Update@asParticles@@QAEXXZ 004610F0
 0001:00060490       ?Blast@asParticles@@QAEXHPAVasBirthRule@@@Z 00461490
 0001:00060580       ?cmpPtx@@YAHPBX0@Z         00461580
 0001:000605A0       ?Cull@asParticles@@UAEXXZ  004615A0
 0001:00060600       ?Init@asMeshCardInfo@@QAEXHPAUasMeshCardVertex@@HHH@Z 00461600
 0001:00060770       ?Draw@asMeshCardInfo@@QAEXPBUasSparkPos@@H@Z 00461770
 0001:00060890       ?DrawShadows@asMeshCardInfo@@QAEXPBUasSparkPos@@H@Z 00461890
 0001:000609E0       ??_GasParticles@@UAEPAXI@Z 004619E0
 0001:00060A10       ?Init@ptxGlass@@QAEXHHPAVgfxTexture@@@Z 00461A10
 0001:00060AC0       ?AddShards@ptxGlass@@QAEXABVVector3@@00ABVVector2@@11000@Z 00461AC0
 0001:00060F80       ?CreateShards@ptxGlass@@QAEXMMQAVVector2@@AAVMatrix34@@ABVVector3@@2@Z 00461F80
 0001:00061760       ?Update@ptxGlass@@QAEXM@Z  00462760
 0001:00061AE0       ?DrawShards@ptxGlass@@QAEXH@Z 00462AE0
 0001:00061CF0       ?SetCentroidFromVerts@ptxShard@ptxGlass@@QAEXXZ 00462CF0
 0001:00061D90       ?FileIO@ptxGlassBirthRules@@UAEXAAVdatParser@@@Z 00462D90
 0001:00061E30       ?BeginTask@lvlProgress@@SAXPBD@Z 00462E30
 0001:00061E80       ?UpdateTask@lvlProgress@@SAXM_N@Z 00462E80
 0001:00061F00       ?PushSubTask@lvlProgress@@SAXMPAD@Z 00462F00
 0001:00061F40       ?PushSubTask@lvlProgress@@SAXMMPAD@Z 00462F40
 0001:00061FB0       ?PopSubTask@lvlProgress@@SAMXZ 00462FB0
 0001:00061FD0       ?GetPercent@lvlProgress@@SAMXZ 00462FD0
 0001:00062000       ?EndTask@lvlProgress@@SAXXZ 00463000
 0001:00062020       ?SetCallback@lvlProgress@@SAXP6AXPBDH@Z@Z 00463020
 0001:00062030       j_nullsub_228              00463030
 0001:00062040       nullsub_228                00463040
 0001:000620B0       ?GetLightInfo@lvlInstance@@UAEXHPAVcltLight@@@Z 004630B0
 0001:00062110       ??2lvlInstance@@SAPAXI@Z   00463110
 0001:00062170       ??3lvlInstance@@SAXPAX@Z   00463170
 0001:00062180       ?IsLandmark@lvlInstance@@UAE_NXZ 00463180
 0001:00062190       ?Init@@YAHPBDABVMatrix34@@@Z 00463190
 0001:000621A0       ?ResetInstanceHeap@lvlInstance@@SAXXZ 004631A0
 0001:000621E0       ?ResetAll@lvlInstance@@SAXXZ 004631E0
 0001:000621F0       ??0lvlInstance@@QAE@XZ     004631F0
 0001:00062220       ??1lvlInstance@@QAE@XZ     00463220
 0001:00062280       ?Reset@lvlInstance@@UAEXXZ 00463280
 0001:00062290       ?SetShadowBillboardMtx@lvlInstance@@SAXAAVMatrix44@@@Z 00463290
 0001:000622B0       ?GetNumLightSources@lvlInstance@@UAEHXZ 004632B0
 0001:000622C0       ?GetGeomSet@lvlInstance@@KAHPBD0H@Z 004632C0
 0001:00062940       ?LoadBoundOnLastEntry@lvlInstance@@QAE_NPBD@Z 00463940
 0001:00062A40       ?GetBoundSphere@lvlInstance@@QAEAAVVector4@@AAV2@@Z 00463A40
 0001:00062A80       ?BeginGeom@lvlInstance@@QAE_NPBD0H@Z 00463A80
 0001:00062BA0       ?AddGeom@lvlInstance@@QAEHPBD0H@Z 00463BA0
 0001:00062BC0       ?EndGeom@lvlInstance@@QAEXXZ 00463BC0
 0001:00062D50       ?AddSphere@lvlInstance@@SAHM@Z 00463D50
 0001:00062D90       ?Init@lvlInstance@@UAEHPBDABVMatrix34@@H@Z 00463D90
 0001:00062DA0       ?InitBoundTerrain@lvlInstance@@QAE_NPBD@Z 00463DA0
 0001:00062F50       ?InitBoundTerrainLocal@lvlInstance@@QAE_NPBD@Z 00463F50
 0001:000631A0       ?NeedGhostBound@lvlInstance@@QAE_NPBVVector3@@H@Z 004641A0
 0001:00063200       ?InitGhostBound@lvlInstance@@QAE_NPAVphBound@@PBVVector3@@H@Z 00464200
 0001:00063330       ?InitGhost@lvlInstance@@QAEHPBDABVMatrix34@@@Z 00464330
 0001:000633A0       ?GetVelocity@lvlInstance@@UAEABVVector3@@XZ 004643A0
 0001:000633B0       ?GetEntity@lvlInstance@@UAEPAVdgPhysEntity@@XZ 004643B0
 0001:000633C0       ?AttachEntity@lvlInstance@@UAEPAVdgPhysEntity@@XZ 004643C0
 0001:000633D0       ?SetVariant@lvlInstance@@UAEXH@Z 004643D0
 0001:000633E0       ?GetRadius@lvlInstance@@UAE?BMXZ 004643E0
 0001:000633F0       ?DrawShadow@lvlInstance@@UAEXXZ 004643F0
 0001:00063400       ?DrawShadowMap@lvlInstance@@UAEXXZ 00464400
 0001:00063410       ?DrawGlow@lvlInstance@@UAEXXZ 00464410
 0001:00063420       ?DrawReflected@lvlInstance@@UAEXM@Z 00464420
 0001:00063430       ?DrawPhysics@lvlInstance@@UAEXABVVector3@@@Z 00464430
 0001:00063670       ?SetupGfxLights@lvlInstance@@UAEHABVMatrix34@@@Z 00464670
 0001:00063680       ?CreateTempBounds@lvlInstance@@KAXXZ 00464680
 0001:000637E0       ?DeleteTempBounds@lvlInstance@@KAXXZ 004647E0
 0001:000638B0       ?DrawReflectedParts@lvlInstance@@UAEXH@Z 004648B0
 0001:000638C0       ?GetBound@lvlInstance@@UAEPBVphBound@@H@Z 004648C0
 0001:000639F0       ?IsVisible@lvlInstance@@UAEHABVgfxViewport@@@Z 004649F0
 0001:00063B00       ?PreLoadShader@lvlInstance@@QAEXH@Z 00464B00
 0001:00063B70       ?Optimize@lvlInstance@@QAEXH@Z 00464B70
 0001:00063C00       ??0lvlSky@@QAE@XZ          00464C00
 0001:00063C90       ?Reset@lvlSky@@UAEXXZ      00464C90
 0001:00063CA0       ??1lvlSky@@UAE@XZ          00464CA0
 0001:00063CB0       ?AutoInit@lvlSky@@QAEXPBD0H@Z 00464CB0
 0001:00063E90       ?Init@lvlSky@@QAEXPBDMMMH@Z 00464E90
 0001:00063F90       ?Update@lvlSky@@UAEXXZ     00464F90
 0001:00063FB0       ?Draw@lvlSky@@UAEXXZ       00464FB0
 0001:000640B0       ?DrawWithNoZState@lvlSky@@UAEXXZ 004650B0
 0001:00064140       ?DrawHat@lvlSky@@UAEXXZ    00465140
 0001:00064270       ?SetupFog@lvlSky@@QAEXM@Z  00465270
 0001:00064340       ??_GlvlSky@@UAEPAXI@Z      00465340
 0001:000643A0       ??0lvlLevel@@QAE@XZ        004653A0
 0001:00064400       ??1lvlLevel@@UAE@XZ        00465400
 0001:00064460       ?Update@lvlLevel@@UAEXXZ   00465460
 0001:00064470       ?SetObjectDetail@lvlLevel@@UAEXH@Z 00465470
 0001:00064480       ?MoveToRoom@lvlLevel@@QAEXPAVlvlInstance@@H@Z 00465480
 0001:000645B0       ?Collide@lvlLevel@@UAE_NHAAVlvlSegment@@PAVlvlIntersection@@@Z 004655B0
 0001:000645C0       ?GetBoundSphere@lvlLevel@@UAE_NAAVVector4@@H@Z 004655C0
 0001:000645D0       ?GetVisitList@lvlLevel@@UAEHPAHHABVVector3@@1HH@Z 004655D0
 0001:000645E0       ?RegisterDrawable@lvlLevel@@QAEXHVdatCallback@@@Z 004655E0
 0001:00064630       ?CallCallbacks@lvlLevel@@IAEXH@Z 00465630
 0001:00064680       ?ResetCallbacks@lvlLevel@@QAEXXZ 00465680
 0001:00064690       ?GetEnvMap@lvlLevel@@UAEPAVgfxTexture@@HABVVector3@@AAM@Z 00465690
 0001:000646A0       ??_GlvlLevel@@UAEPAXI@Z    004656A0
 0001:000646D0       ?CleanName@@YAPBDPBD@Z     004656D0
 0001:000646F0       ?LoadInstances@lvlLevel@@UAE_NPBD0@Z 004656F0
 0001:00064E50       ?ResetInstances@lvlLevel@@QAEXXZ 00465E50
 0001:00064EB0       ?IsCollidable@lvlLandmark@@UAE_NXZ 00465EB0
 0001:00064EC0       ??0lvlTrackManager@@QAE@XZ 00465EC0
 0001:00064ED0       ??1lvlTrackManager@@QAE@XZ 00465ED0
 0001:00064EE0       ?Init@lvlTrackManager@@QAEXABVMatrix34@@MH@Z 00465EE0
 0001:00064F50       ?Reset@lvlTrackManager@@QAEXXZ 00465F50
 0001:00064F60       ?Update@lvlTrackManager@@QAEXABVVector3@@0PAVgfxTexture@@@Z 00465F60
 0001:00065320       ?Draw@lvlTrackManager@@QAEXXZ 00466320
 0001:000653E0       ?AddVertex@lvlTrackManager@@AAEXPAVgfxTexture@@MABVVector3@@1@Z 004663E0
 0001:00065470       ?Dot@Vector3@@QBEMABV1@@Z  00466470
 0001:00065490       ?Mag@Vector3@@QBEMXZ       00466490
 0001:000654C0       ??0lvlMaterial@@QAE@XZ     004664C0
 0001:00065510       ?Load@lvlMaterial@@QAEXAAVdatAsciiTokenizer@@@Z 00466510
 0001:000656F0       ?Save@lvlMaterial@@UAEXAAVdatAsciiTokenizer@@@Z 004666F0
 0001:000658E0       ?Copy@lvlMaterial@@QAEXABV1@@Z 004668E0
 0001:00065930       ?CreateInstance@lvlMaterialMgr@@SAAAV1@XZ 00466930
 0001:00065990       ??0lvlMaterialMgr@@IAE@XZ  00466990
 0001:00065A00       ?DeleteInstance@lvlMaterialMgr@@SAXXZ 00466A00
 0001:00065A30       ?Find@lvlMaterialMgr@@QAEPAVlvlMaterial@@PBD@Z 00466A30
 0001:00065A40       ?Lookup@lvlMaterialMgr@@QAEPAVlvlMaterial@@H@Z 00466A40
 0001:00065A50       ?Load@lvlMaterialMgr@@UAEPAVphMaterial@@PAVdatAsciiTokenizer@@@Z 00466A50
 0001:00065B40       ??0dgPath@@QAE@PBD@Z       00466B40
 0001:00065B80       ?SetName@dgPath@@QAEXPBD@Z 00466B80
 0001:00065BC0       ??1dgPath@@QAE@XZ          00466BC0
 0001:00065BD0       ?Load@dgPath@@SAPAV1@PAVStream@@@Z 00466BD0
 0001:00065D40       ?Enumerate@dgPath@@QBEXP6AXPBDABVMatrix34@@_N@ZMM@Z 00466D40
 0001:00066150       ??0dgPathSet@@QAE@XZ       00467150
 0001:00066170       ??1dgPathSet@@UAE@XZ       00467170
 0001:000661C0       ?Kill@dgPathSet@@QAEXXZ    004671C0
 0001:00066210       ?Load@dgPathSet@@QAE_NPBD0@Z 00467210
 0001:000662D0       ??_GdgPathSet@@UAEPAXI@Z   004672D0
 0001:00066300       ??0lvlFixedAny@@QAE@XZ     00467300
 0001:00066320       ?DrawReflectedParts@lvlFixedAny@@UAEXH@Z 00467320
 0001:00066420       ?Draw@lvlFixedAny@@UAEXH@Z 00467420
 0001:00066540       ?SetVariant@lvlFixedAny@@UAEXH@Z 00467540
 0001:00066580       ?Init@lvlFixedAny@@UAEHPBDABVMatrix34@@H@Z 00467580
 0001:00066740       ?DrawShadowMap@lvlFixedAny@@UAEXXZ 00467740
 0001:000667E0       ?DrawShadow@lvlFixedAny@@UAEXXZ 004677E0
 0001:00066910       ??0lvlFixedRotY@@QAE@XZ    00467910
 0001:00066930       ?SizeOf@lvlFixedRotY@@UAEIXZ 00467930
 0001:00066940       ?GetPosition@lvlFixedRotY@@UAEABVVector3@@XZ 00467940
 0001:00066950       ?IsVisible@lvlFixedRotY@@UAEHABVgfxViewport@@@Z 00467950
 0001:000669A0       ?GetMatrix@lvlFixedRotY@@UAEABVMatrix34@@AAV2@@Z 004679A0
 0001:000669F0       ?SetMatrix@lvlFixedRotY@@UAEXABVMatrix34@@@Z 004679F0
 0001:00066A20       ??0lvlFixedMatrix@@QAE@XZ  00467A20
 0001:00066A40       ?SizeOf@lvlFixedMatrix@@UAEIXZ 00467A40
 0001:00066A50       ?GetPosition@lvlFixedMatrix@@UAEABVVector3@@XZ 00467A50
 0001:00066A60       ?IsVisible@lvlFixedMatrix@@UAEHABVgfxViewport@@@Z 00467A60
 0001:00066AB0       ?GetMatrix@lvlFixedMatrix@@UAEABVMatrix34@@AAV2@@Z 00467AB0
 0001:00066AC0       ?SetMatrix@lvlFixedMatrix@@UAEXABVMatrix34@@@Z 00467AC0
 0001:00066AE0       ?GetPosition@lvlMultiRoomInstance@@UAEABVVector3@@XZ 00467AE0
 0001:00066AF0       ?GetMatrix@lvlMultiRoomInstance@@UAEABVMatrix34@@AAV2@@Z 00467AF0
 0001:00066B10       ?SetMatrix@lvlMultiRoomInstance@@UAEXABVMatrix34@@@Z 00467B10
 0001:00066B30       ?GetEntity@lvlMultiRoomInstance@@UAEPAVdgPhysEntity@@XZ 00467B30
 0001:00066B40       ?AttachEntity@lvlMultiRoomInstance@@UAEPAVdgPhysEntity@@XZ 00467B40
 0001:00066B50       ?GetVelocity@lvlMultiRoomInstance@@UAEABVVector3@@XZ 00467B50
 0001:00066B60       ?IsLandmark@lvlMultiRoomInstance@@UAE_NXZ 00467B60
 0001:00066B70       ?IsCollidable@lvlMultiRoomInstance@@UAE_NXZ 00467B70
 0001:00066B80       ?IsTerrainCollidable@lvlMultiRoomInstance@@UAE_NXZ 00467B80
 0001:00066BA0       ?Draw@lvlMultiRoomInstance@@UAEXH@Z 00467BA0
 0001:00066C20       ?GetBound@lvlMultiRoomInstance@@UAEPBVphBound@@H@Z 00467C20
 0001:00066C30       ?SizeOf@lvlMultiRoomInstance@@UAEIXZ 00467C30
 0001:00066C40       ?Create@lvlMultiRoomInstance@@SAXPAVlvlInstance@@H@Z 00467C40
 0001:00066F70       ??0lvlMultiRoomInstance@@AAE@PAVlvlInstance@@PAUlvlMultiRoomState@@H@Z 00467F70
 0001:00066FF0       ?IsLandmark@lvlLandmark@@UAE_NXZ 00467FF0
 0001:00067000       ?SizeOf@lvlLandmark@@UAEIXZ 00468000
 0001:00067010       ?Init@lvlLandmark@@UAEHPBDABVMatrix34@@H@Z 00468010
 0001:00067030       ?IsVisible@lvlLandmark@@UAEHABVgfxViewport@@@Z 00468030
 0001:00067090       j_nullsub_229              00468090
 0001:000670A0       nullsub_229                004680A0
 0001:00067140       j_nullsub_230              00468140
 0001:00067150       nullsub_230                00468150
 0001:00067160       j_nullsub_231              00468160
 0001:00067170       nullsub_231                00468170
 0001:00067180       j_nullsub_232              00468180
 0001:00067190       nullsub_232                00468190
 0001:000671A0       ??0dgPhysManager@@QAE@XZ   004681A0
 0001:00067250       ??1dgPhysManager@@UAE@XZ   00468250
 0001:000672D0       ?Reset@dgPhysManager@@QAEXXZ 004682D0
 0001:00067370       ?DeclareMover@dgPhysManager@@QAEXPAVlvlInstance@@HH@Z 00468370
 0001:00067550       ?NewMover@dgPhysManager@@QAEXPAVlvlInstance@@0@Z 00468550
 0001:00067670       ?NewMover@dgPhysManager@@QAEXPAVlvlInstance@@@Z 00468670
 0001:00067720       ?NewMover@dgPhysManager@@QAEXPAVlvlInstance@@00@Z 00468720
 0001:00067860       ?IgnoreMover@dgPhysManager@@QAEXPAVlvlInstance@@@Z 00468860
 0001:000678B0       ?Update@dgPhysManager@@QAEXXZ 004688B0
 0001:00067E10       ?ResetTable@dgPhysManager@@QAEXXZ 00468E10
 0001:00067E40       ?Collide@dgPhysManager@@QAE_NAAVlvlSegment@@PAVlvlIntersection@@HPAVlvlInstance@@HH@Z 00468E40
 0001:00068110       ?CollideProbe@dgPhysManager@@QAE_NAAVlvlSegment@@PAVlvlIntersection@@PAVlvlInstance@@@Z 00469110
 0001:000682E0       ?TrivialCollideInstances@dgPhysManager@@QAE_NPAVlvlInstance@@0@Z 004692E0
 0001:000684E0       ?GatherCollidables@dgPhysManager@@QAEXPAUCollisionTableEntry@1@@Z 004694E0
 0001:00068620       ?CollideInstances@dgPhysManager@@QAE_NPAVlvlInstance@@0@Z 00469620
 0001:00068A60       ?CollideTerrain@dgPhysManager@@QAE_NPAUCollisionTableEntry@1@@Z 00469A60
 0001:00068EC0       ?Draw@dgPhysManager@@QAEXXZ 00469EC0
 0001:00068ED0       ??_GdgPhysManager@@UAEPAXI@Z 00469ED0
 0001:00068F00       ?TestProbe@dgPhysManager@@UBE_NABVphSegment@@PAVphIntersection@@IH@Z 00469F00
 0001:00068F10       ?TestSphere@dgPhysManager@@UBE_NABVVector3@@MPAVphImpact@@IH@Z 00469F10
 0001:00068F20       ?PromoteInstance@dgPhysManager@@UAEPAVphColliderBase@@PAVphInstance@@@Z 00469F20
 0001:00068F30       ?DemoteInstance@dgPhysManager@@UAEXPAVphInstance@@@Z 00469F30
 0001:00068F40       ?KillInstance@dgPhysManager@@UAEXPAVphInstance@@@Z 00469F40
 0001:00068F50       ?DisableInstance@dgPhysManager@@UAEXPAVphInstance@@@Z 00469F50
 0001:00068F60       ?EnableInstance@dgPhysManager@@UAEXPAVphInstance@@H@Z 00469F60
 0001:00068F70       ?GetCollider@dgPhysManager@@UBEPAVphColliderBase@@PBVphInstance@@@Z 00469F70
 0001:00068F80       ?CreateInstance@dgPhysManager@@UAEPAVphInstance@@XZ 00469F80
 0001:00068F90       ?Set@lvlSegment@@QAEXABVVector3@@0HPAVlvlSegmentInfo@@@Z 00469F90
 0001:00069060       ?CalculateInfo@lvlSegment@@QAEXXZ 0046A060
 0001:000690F0       ?AllocateState@lvlSegmentInfo@@QAEXXZ 0046A0F0
 0001:00069120       ?Update@dgPhysEntity@@UAEXXZ 0046A120
 0001:00069170       ??0dgBoundGeometry@@QAE@XZ 0046A170
 0001:000691F0       ??1dgBoundGeometry@@QAE@XZ 0046A1F0
 0001:00069250       ?SetFriction@dgBoundGeometry@@UAEXM@Z 0046A250
 0001:00069260       ?SetElasticity@dgBoundGeometry@@UAEXM@Z 0046A260
 0001:00069270       ??0dgBoundBox@@QAE@XZ      0046A270
 0001:000692E0       ??1dgBoundBox@@QAE@XZ      0046A2E0
 0001:00069340       ?SetFriction@dgBoundBox@@UAEXM@Z 0046A340
 0001:00069360       ?SetElasticity@dgBoundBox@@UAEXM@Z 0046A360
 0001:00069380       ??0dgBoundHotdog@@QAE@XZ   0046A380
 0001:000693F0       ??1dgBoundHotdog@@QAE@XZ   0046A3F0
 0001:00069450       ?SetFriction@dgBoundHotdog@@UAEXM@Z 0046A450
 0001:00069470       ?SetElasticity@dgBoundHotdog@@UAEXM@Z 0046A470
 0001:00069490       ??0dgBoundSphere@@QAE@XZ   0046A490
 0001:00069500       ??1dgBoundSphere@@QAE@XZ   0046A500
 0001:00069560       ?SetFriction@dgBoundSphere@@UAEXM@Z 0046A560
 0001:00069580       ?SetElasticity@dgBoundSphere@@UAEXM@Z 0046A580
 0001:000695A0       ?GetVertex@phBoundPolygonal@@UBEABVVector3@@H@Z 0046A5A0
 0001:000695C0       ?GetEdgeCosine@phBoundGeometry@@UBEMH@Z 0046A5C0
 0001:000695D0       ?GetEdgeNormal@phBoundGeometry@@UBEABVVector3@@HAAV2@@Z 0046A5D0
 0001:000695F0       ?GetMaterial@dgBoundGeometry@@UBEPBVphMaterial@@H@Z 0046A5F0
 0001:00069600       ?GetNumMaterials@dgBoundGeometry@@UBEHXZ 0046A600
 0001:00069610       ?GetEdgeCosine@phBoundBox@@UBEMH@Z 0046A610
 0001:00069620       ?GetMaterial@dgBoundBox@@UBEPBVphMaterial@@H@Z 0046A620
 0001:00069630       ?GetNumMaterials@dgBoundBox@@UBEHXZ 0046A630
 0001:00069640       ?GetMaterial@dgBoundHotdog@@UBEPBVphMaterial@@H@Z 0046A640
 0001:00069650       ?GetNumMaterials@dgBoundHotdog@@UBEHXZ 0046A650
 0001:00069660       ?GetMaterial@dgBoundSphere@@UBEPBVphMaterial@@H@Z 0046A660
 0001:00069670       ?GetNumMaterials@dgBoundSphere@@UBEHXZ 0046A670
 0001:00069680       ?AllocateState@lvlLevelBound@@UBEPADXZ 0046A680
 0001:00069690       ?TestEdge@lvlLevelBound@@UBEHAAVphSegment@@PAVphIntersection@@H@Z 0046A690
 0001:000696A0       ?TestProbe@lvlLevelBound@@UBE_NAAVphSegment@@PAVphIntersection@@M@Z 0046A6A0
 0001:000696B0       ?TestAI@lvlLevelBound@@UBE_NAAVphSegment@@PAVphIntersection@@@Z 0046A6B0
 0001:000696C0       ?TestEdgePoint@lvlLevelBound@@UBEHAAVphSegment@@PAVphIntersectionPoint@@H@Z 0046A6C0
 0001:000696D0       ?TestProbePoint@lvlLevelBound@@UBE_NAAVphSegment@@PAVphIntersectionPoint@@M@Z 0046A6D0
 0001:000696E0       ?TestAIPoint@lvlLevelBound@@UBE_NAAVphSegment@@PAVphIntersectionPoint@@@Z 0046A6E0
 0001:000696F0       ?TestSphere@lvlLevelBound@@UBE_NABVVector3@@MAAV2@1AAM@Z 0046A6F0
 0001:00069700       ?GetEdgeCosine@lvlLevelBound@@UBEMH@Z 0046A700
 0001:00069710       ?GetEdgeNormal@lvlLevelBound@@UBEABVVector3@@HAAV2@@Z 0046A710
 0001:00069720       ?GetMaterial@lvlLevelBound@@UBEPBVphMaterial@@H@Z 0046A720
 0001:00069750       ?CollidePolyToLevel@lvlLevelBound@@UBEHPBVphBoundPolygonal@@PAHHPAVphColliderBase@@PBVMatrix34@@3PAVlvlIntersection@@H1_N@Z 0046A750
 0001:0006A580       ?TrivialCollideBoxToLevel@lvlLevelBound@@UBE_NPBVphBoundBox@@HPAVphColliderBase@@PBVMatrix34@@2@Z 0046B580
 0001:0006A620       ?CalcImpact@dgImpact@@SAHPAV1@MM@Z 0046B620
 0001:0006A7D0       ?CalcCollision@dgImpact@@QAEHABVVector3@@MPAV2@111M@Z 0046B7D0
 0001:0006AE80       ?CalcCollision@dgImpact@@QAEHABVVector3@@MPAV2@11111_N2HHM@Z 0046BE80
 0001:0006B490       ??0phSleep@@QAE@XZ         0046C490
 0001:0006B4B0       ??0phSleep@@QAE@PAVphInertialCS@@PAVphColliderBase@@@Z 0046C4B0
 0001:0006B4E0       ??1phSleep@@QAE@XZ         0046C4E0
 0001:0006B4F0       ?Init@phSleep@@QAEXPAVphInertialCS@@PAVphColliderBase@@@Z 0046C4F0
 0001:0006B550       ?WakeUp@phSleep@@QAEXXZ    0046C550
 0001:0006B580       ?WakeUpNextTime@phSleep@@QAEXXZ 0046C580
 0001:0006B590       ?Reset@phSleep@@QAEXXZ     0046C590
 0001:0006B5A0       ?SendToSleep@phSleep@@QAEXXZ 0046C5A0
 0001:0006B5E0       ?Update@phSleep@@QAEXXZ    0046C5E0
 0001:0006B8D0       ?SetAsleepCB@phSleep@@QAEXPAVdatCallback@@@Z 0046C8D0
 0001:0006B8E0       ?SmoothAngInertia@phSleep@@SAXAAVphInertialCS@@M@Z 0046C8E0
 0001:0006B990       ?Mag2@Vector3@@QBEMXZ      0046C990
 0001:0006B9B0       ?EffectiveMass@phImpact@@QBEMXZ 0046C9B0
 0001:0006BB70       ?GetLocalVelocities@phImpact@@QBEXAAVVector3@@0@Z 0046CB70
 0001:0006BC30       ?GetRelDisplacement@phImpact@@QBEXPAVVector3@@@Z 0046CC30
 0001:0006BCF0       ?CalcCollision@phImpact@@QAEXABVVector3@@MPAV2@11@Z 0046CCF0
 0001:0006C1F0       ?Contact@phImpact@@QAEXABVVector3@@00ABVMatrix34@@@Z 0046D1F0
 0001:0006C250       ?Impact@phImpact@@QAEXABVVector3@@00@Z 0046D250
 0001:0006C2A0       ?CalcCollisionNoFriction@phImpact@@SAMABVphInertialCS@@ABVVector3@@M1@Z 0046D2A0
 0001:0006C340       ?FindFrictionAndElasticity@phImpact@@QAEXXZ 0046D340
 0001:0006C3A0       ?GetMaterial@phImpact@@QAEPBVphMaterial@@PAVphColliderBase@@H@Z 0046D3A0
 0001:0006C3E0       ??0phColliderJointed@@QAE@XZ 0046D3E0
 0001:0006C410       ?InitArray@phColliderJointed@@SAXQAV1@H@Z 0046D410
 0001:0006C4D0       ?Attach@phColliderJointed@@QAEXPBVphJoint@@@Z 0046D4D0
 0001:0006C4E0       ?Impact@phColliderJointed@@UAEXPBVphImpactBase@@ABVVector3@@1@Z 0046D4E0
 0001:0006C500       ?Impact@phColliderJointed@@UAEXPBVphImpactBase@@ABVVector3@@@Z 0046D500
 0001:0006C520       ?Contact@phColliderJointed@@UAEXPBVphImpactBase@@ABVVector3@@11ABVMatrix34@@@Z 0046D520
 0001:0006C540       ?Contact@phColliderJointed@@UAEXABVVector3@@PBVphContact@@ABVMatrix34@@@Z 0046D540
 0001:0006C560       ?Contact@phColliderJointed@@UAEXABVVector3@@PBVphContact@@@Z 0046D560
 0001:0006C580       ?GetInvMassMatrix@phColliderJointed@@UBEXABVVector3@@AAVMatrix34@@H@Z 0046D580
 0001:0006C5F0       ?GetInvMassMatrix@phColliderJointed@@UBEXABVVector3@@0AAVMatrix34@@H@Z 0046D5F0
 0001:0006C610       ?InitArray@phCollider@@SAXQAV1@H@Z 0046D610
 0001:0006C6E0       ?Init@phCollider@@QAEXPBVphBound@@PAVInstanceData@@PAVphInertialCS@@PAVphSleep@@@Z 0046D6E0
 0001:0006C740       ?Init@phCollider@@QAEXPBVphBound@@PAVphInertialCS@@PAVphSleep@@@Z 0046D740
 0001:0006C7A0       ?Init@phCollider@@QAEXPBVphBound@@PAVMatrix34@@PAVphInertialCS@@PAVphSleep@@@Z 0046D7A0
 0001:0006C800       ?Init@phCollider@@QAEXPBVphBound@@PAVMatrix34@@@Z 0046D800
 0001:0006C870       ?Init@phCollider@@QAEXPAVMatrix34@@PBVphBound@@@Z 0046D870
 0001:0006C8D0       ?Reset@phCollider@@QAEXXZ  0046D8D0
 0001:0006C980       ?SetColliderPenetration@phColliderBase@@SAXM@Z 0046D980
 0001:0006C9A0       ?Reset@phColliderBase@@QAEXXZ 0046D9A0
 0001:0006C9E0       ?UpdateMtx@phColliderBase@@QAEXXZ 0046D9E0
 0001:0006CA20       ?Update@phColliderBase@@QAEXXZ 0046DA20
 0001:0006CA70       ?CalcMaxMoved@phColliderBase@@QAEXXZ 0046DA70
 0001:0006CB70       ?ToWorldCoords@phColliderBase@@QBEXPAVphIntersection@@H@Z 0046DB70
 0001:0006CD10       ?ColliderIsActive@phColliderBase@@QBE_NXZ 0046DD10
 0001:0006CD20       ?GetDisp@phColliderBase@@QBEXABVVector3@@PAV2@@Z 0046DD20
 0001:0006CD60       ?GetDisp@phColliderBase@@QBEXABVVector3@@PAV2@J@Z 0046DD60
 0001:0006CDB0       ?GetDisp@phColliderBase@@QBEXABVVector3@@HHHPAV2@@Z 0046DDB0
 0001:0006D040       ?GetLocalVelocity@phColliderBase@@QBEXABVVector3@@HHHAAV2@@Z 0046E040
 0001:0006D070       ?Impact@phColliderBase@@UAEXPBVphImpactBase@@ABVVector3@@1@Z 0046E070
 0001:0006D1B0       ?Impact@phColliderBase@@UAEXPBVphImpactBase@@ABVVector3@@@Z 0046E1B0
 0001:0006D2B0       ?Contact@phColliderBase@@UAEXPBVphImpactBase@@ABVVector3@@11ABVMatrix34@@@Z 0046E2B0
 0001:0006D350       ?Contact@phColliderBase@@UAEXABVVector3@@PBVphContact@@ABVMatrix34@@@Z 0046E350
 0001:0006D3C0       ?Contact@phColliderBase@@UAEXABVVector3@@PBVphContact@@@Z 0046E3C0
 0001:0006D4B0       ?SetImpactCB@phColliderBase@@QAEXPAVdatCallback@@@Z 0046E4B0
 0001:0006D4C0       ?SetBoundCB@phColliderBase@@QAEXPAVdatCallback@@@Z 0046E4C0
 0001:0006D4D0       ?SetHitCB@phColliderBase@@QAEXPAVdatCallback@@@Z 0046E4D0
 0001:0006D4E0       ?CallBoundCallback@phColliderBase@@QAEXPBVphImpactBase@@PBVphContact@@ABVVector3@@2_NPBVMatrix34@@@Z 0046E4E0
 0001:0006D6F0       ?GetBoundCBImpactInfo@phColliderBase@@QBEXPBVphImpactBase@@PBVphContact@@PAUBoundCallbackData@2@PAVVector3@@@Z 0046E6F0
 0001:0006D7D0       ?TestSegment@phColliderBase@@QBEHABVphSegment@@PAVphIntersection@@H@Z 0046E7D0
 0001:0006D920       ?TestSegmentPoint@phColliderBase@@QBEHABVphSegment@@PAVphIntersectionPoint@@H@Z 0046E920
 0001:0006DA60       ?GetInvMassMatrix@phColliderBase@@UBEXABVVector3@@AAVMatrix34@@H@Z 0046EA60
 0001:0006DA90       ?GetInvMassMatrix@phColliderBase@@UBEXABVVector3@@0AAVMatrix34@@H@Z 0046EA90
 0001:0006DAC0       ?ApplyGravity@phColliderBase@@QAEXXZ 0046EAC0
 0001:0006DB00       ?ApplyAirResistance@phColliderBase@@QAEXMABVVector3@@PBVphBound@@@Z 0046EB00
 0001:0006DDA0       ?Transform@Matrix34@@QBEXABVVector3@@AAV2@@Z 0046EDA0
 0001:0006DEA0       ?DisableContacts@phContact@@SAXXZ 0046EEA0
 0001:0006DEB0       ?SetContactPenetrationScale@phContact@@SAXM@Z 0046EEB0
 0001:0006DED0       ?SetContactPenetration@phContact@@SAXXZ 0046EED0
 0001:0006DF10       ?Init@phContact@@QAEXABVphImpact@@@Z 0046EF10
 0001:0006E000       ?Set@phContact@@QAEXABV1@@Z 0046F000
 0001:0006E110       ?IsEqual@phContact@@QAE_NABVphImpact@@@Z 0046F110
 0001:0006E1D0       ?SetContactForceLimit@phContact@@QAEXABVphImpact@@ABVVector3@@@Z 0046F1D0
 0001:0006E3F0       j_nullsub_233              0046F3F0
 0001:0006E400       nullsub_233                0046F400
 0001:0006E410       ?CalcContactForce@phContact@@QAE_NPBVphImpact@@ABVVector3@@11PAV3@PAVMatrix34@@PAMMM@Z 0046F410
 0001:0006F0C0       ?SwapAB@phContact@@QAEXXZ  004700C0
 0001:0006F180       ??ZVector3@@QAEXAAV0@@Z    00470180
 0001:0006F1B0       ??0phContactMgr@@QAE@XZ    004701B0
 0001:0006F220       ??1phContactMgr@@QAE@XZ    00470220
 0001:0006F240       ?Reset@phContactMgr@@QAEXXZ 00470240
 0001:0006F270       ?ClearContactList@phContactMgr@@AAEXXZ 00470270
 0001:0006F2B0       ?Resize@phContactMgr@@QAEXXZ 004702B0
 0001:0006F460       ?AllocNewContact@phContactMgr@@QAEJJ@Z 00470460
 0001:0006F500       ?RemoveContact@phContactMgr@@QAEXJ@Z 00470500
 0001:0006F630       ?SeekContact@phContactMgr@@QAEJJABVphImpact@@@Z 00470630
 0001:0006F6A0       ?CalcHeldContacts@phContactMgr@@QAEXPAVphColliderBase@@0H@Z 004706A0
 0001:0006F860       ?CalcNextOverSamples@phContactMgr@@QAEXXZ 00470860
 0001:0006F9F0       ?Update@phContactMgr@@QAEXXZ 004709F0
 0001:0006FAE0       ?CalcContact@phContactMgr@@QAE_NAAVphImpact@@ABVVector3@@111PAV3@PAVMatrix34@@@Z 00470AE0
 0001:0006FD20       ?TestHeldContact@phContactMgr@@QAE_NPBVphColliderBase@@0PAH@Z 00470D20
 0001:0006FE50       ?EstMaxMoved@phContactMgr@@CAMABVMatrix34@@PBVphColliderBase@@1@Z 00470E50
 0001:0006FF20       ?SeekHeldContact@phContactMgr@@QAEHJJH@Z 00470F20
 0001:0006FF70       ?ClearHeldContactTable@phContactMgr@@AAEXXZ 00470F70
 0001:0006FFA0       ?RemoveHeldContact@phContactMgr@@AAEXH@Z 00470FA0
 0001:000700B0       ?AddHeldContact@phContactMgr@@AAEHPBVphColliderBase@@0@Z 004710B0
 0001:000701A0       ?AddHCEntry@phContactMgr@@AAE_NHJ@Z 004711A0
 0001:00070210       ?HCContactGone@phContactMgr@@AAE_NPAVphHeldContact@@@Z 00471210
 0001:00070240       ?CalcHeldContact@phContactMgr@@QAEXHAAJABVVector3@@11PAV2@PAVMatrix34@@@Z 00471240
 0001:000702D0       ?HeldContactResize@phContactMgr@@AAEXXZ 004712D0
 0001:000703D0       ?GetNextHeldContact@phContactMgr@@AAE_NHPAHPAJPA_N@Z 004713D0
 0001:00070420       ?SearchContact@phContactMgr@@QAE_NJPAJ@Z 00471420
 0001:00070470       ?FindNextContact@phContactMgr@@QAE_NJPAJ0@Z 00471470
 0001:000704E0       ?CalcImpact@phContactMgr@@QAEXPAVphImpact@@M@Z 004714E0
 0001:00070620       ?CullImpactList@phContactMgr@@QAEXPAHPAVphImpact@@@Z 00471620
 0001:00070AB0       ?Calc2Impacts@phContactMgr@@QAEXPAVphImpact@@@Z 00471AB0
 0001:00071790       ?Calc2ImpactsFixed@phContactMgr@@QAEXPAVphImpact@@_N@Z 00472790
 0001:00071E20       ?Calc3Impacts@phContactMgr@@QAEXHPAVphImpact@@@Z 00472E20
 0001:00072310       ?ResolveThreePlusImpacts@phContactMgr@@QAEXHPAVphImpact@@ABVVector3@@11_N@Z 00473310
 0001:000727B0       ?Calc3ImpactsFixed@phContactMgr@@QAEXHPAVphImpact@@_N@Z 004737B0
 0001:000728D0       ?ApplyImpact@phContactMgr@@QAEXPAVphImpact@@ABVVector3@@@Z 004738D0
 0001:00072EA0       ?GetCMSeconds@phContactMgr@@QBEMXZ 00473EA0
 0001:00072ED0       ?GetCMInvSeconds@phContactMgr@@QBEMXZ 00473ED0
 0001:00072F00       ?SetCMOversampleTime@phContactMgr@@QAEXM@Z 00473F00
 0001:00072F20       ?CalcContactHash@phContactMgr@@QAEJHHHJJ@Z 00473F20
 0001:00073000       ?SubtractScaled@Vector3@@QAEXABV1@M@Z 00474000
 0001:00073030       ?SphereApplyCenterForceToPoly@phCollision@@SA_NPBVphForceSphere@@AAVphColliderBase@@PBVphBoundPolygonal@@1@Z 00474030
 0001:000736F0       ?SphereApplyCenterForceToSphere@phCollision@@SAXPBVphForceSphere@@AAVphColliderBase@@PBVphBoundSphere@@1@Z 004746F0
 0001:00073860       ?SphereApplyCenterForceToHotdog@phCollision@@SAXPBVphForceSphere@@AAVphColliderBase@@PBVphBoundHotdog@@1@Z 00474860
 0001:00073A70       ?TestBoundGeneric@phCollision@@SAHPBVphBound@@AAVphColliderBase@@01PAVphIntersection@@2PAVphImpact@@HHABVVector3@@@Z 00474A70
 0001:00074380       ?TestBoundGeneric@phCollision@@SAHPBVphBound@@0PBVMatrix34@@111PAVphIntersection@@2PAVphImpact@@HHABVVector3@@_N@Z 00475380
 0001:00074B00       ?TestBoundForce@phCollision@@SAXPBVphBound@@AAVphColliderBase@@01PAVphImpact@@HABVVector3@@@Z 00475B00
 0001:00074B80       ?GetRelDisp@phCollision@@SAXPBVMatrix34@@00ABVVector3@@PAV3@@Z 00475B80
 0001:00074C50       ?CopyLastMatrix@phColliderBase@@QBEXPAVMatrix34@@J@Z 00475C50
 0001:00074CB0       ?InitArray@phInertialCS@@SAXQAV1@H@Z 00475CB0
 0001:00074D40       ??0phInertialCS@@QAE@XZ    00475D40
 0001:00074DE0       ?Zero@phInertialCS@@QAEXXZ 00475DE0
 0001:00074E10       ?Reset@phInertialCS@@QAEXXZ 00475E10
 0001:00074E20       ?Freeze@phInertialCS@@QAEXXZ 00475E20
 0001:00074E60       ?ZeroForces@phInertialCS@@QAEXXZ 00475E60
 0001:00074FC0       ?Init@phInertialCS@@QAEXMMMM@Z 00475FC0
 0001:00075080       ?InitFromValues@phInertialCS@@QAEXMMABVVector3@@0@Z 00476080
 0001:000750D0       ?InitBoxMass@phInertialCS@@QAEXMMMM@Z 004760D0
 0001:00075140       ?InitBoxDensity@phInertialCS@@QAEXMMMM@Z 00476140
 0001:00075170       ?InitSphereMass@phInertialCS@@QAEXMM@Z 00476170
 0001:000751A0       ?InitSphereDensity@phInertialCS@@QAEXMM@Z 004761A0
 0001:000751D0       ?InitCylinderMass@phInertialCS@@QAEXMMMD@Z 004761D0
 0001:00075260       ?InitCylinderDensity@phInertialCS@@QAEXMMMD@Z 00476260
 0001:00075290       ?InitHotdogMass@phInertialCS@@QAEXMMMD@Z 00476290
 0001:00075400       ?InitHotdogDensity@phInertialCS@@QAEXMMMD@Z 00476400
 0001:00075440       ?InitFromGeometry@phInertialCS@@QAEXMPBVVector3@@PBVphPolygon@@HPAVMatrix34@@@Z 00476440
 0001:00075780       ?TetrahedronAngInertia@phInertialCS@@QAEXPAVVector3@@PAM11111@Z 00476780
 0001:00075A00       ?Rotate@phInertialCS@@QAEXABVVector3@@@Z 00476A00
 0001:00075A80       ?GetForce@phInertialCS@@QAEXMPAVVector3@@@Z 00476A80
 0001:00075AD0       ?GetTorque@phInertialCS@@QAEXMPAVVector3@@@Z 00476AD0
 0001:00075B20       ?ClearInertialValues@phInertialCS@@QAEXXZ 00476B20
 0001:00075B40       ?AddInertia@phInertialCS@@QAE?AVMatrix34@@MABVVector3@@0@Z 00476B40
 0001:00075DD0       ?AddInertia@phInertialCS@@QAE?AVMatrix34@@MABVVector3@@ABV2@@Z 00476DD0
 0001:000760C0       ?SubtractInertia@phInertialCS@@QAE?AVMatrix34@@MABVVector3@@0@Z 004770C0
 0001:00076120       ?SubtractInertia@phInertialCS@@QAE?AVMatrix34@@MABVVector3@@ABV2@@Z 00477120
 0001:00076180       ?SubtractInertia@phInertialCS@@QAE?AVMatrix34@@MABVVector3@@0PAV1@@Z 00477180
 0001:000762B0       ?SubtractInertia@phInertialCS@@QAE?AVMatrix34@@MABVVector3@@ABV2@PAV1@@Z 004772B0
 0001:000763E0       ?FindPrincipalAxes@phInertialCS@@QAE?AVMatrix34@@MMM@Z 004773E0
 0001:00076D60       ?PrincipalAxis@phInertialCS@@QAE?AVVector3@@MMMM@Z 00477D60
 0001:00076DF0       ?Update@phInertialCS@@QAEXXZ 00477DF0
 0001:00076F40       ?UpdateOversample@phInertialCS@@QAEXM@Z 00477F40
 0001:00077040       ?UpdateOversampleDone@phInertialCS@@QAEXXZ 00478040
 0001:00077060       ?Update@phInertialCS@@AAEXM@Z 00478060
 0001:00077680       ?MoveICS@phInertialCS@@QAEXXZ 00478680
 0001:00077700       ?CalcNetPush@phInertialCS@@QAEXABVVector3@@@Z 00478700
 0001:00077820       ?CalcNetTurn@phInertialCS@@QAEXABVVector3@@@Z 00478820
 0001:00077940       ?ApplyContactForce@phInertialCS@@QAEXABVVector3@@0ABVMatrix34@@@Z 00478940
 0001:00077B30       ?GetInertiaMatrix@phInertialCS@@QBEXPAVMatrix34@@@Z 00478B30
 0001:00077BA0       ?GetInertiaMatrix@phInertialCS@@QBEXABVVector3@@PAVMatrix34@@@Z 00478BA0
 0001:00077C40       ?GetInverseInertiaMatrix@phInertialCS@@QBEXPAVMatrix34@@@Z 00478C40
 0001:00077CD0       ?GetInvMassMatrix@phInertialCS@@QBEXABVVector3@@AAVMatrix34@@@Z 00478CD0
 0001:00077DC0       ?GetInvMassMatrix@phInertialCS@@QBEXABVVector3@@0AAVMatrix34@@@Z 00478DC0
 0001:00077F40       ?GetLocalVelocity@phInertialCS@@QBEXABVVector3@@AAV2@@Z 00478F40
 0001:00077FD0       ?GetLocalFilteredVelocity@phInertialCS@@QBEXABVVector3@@AAV2@@Z 00478FD0
 0001:00078020       ?GetOffsetVelocity@phInertialCS@@QBEXABVVector3@@AAV2@@Z 00479020
 0001:000780F0       ?GetLocalFilteredVelocity2@phInertialCS@@QBEXABVVector3@@AAV2@@Z 004790F0
 0001:000781B0       ?GetLocalDisp@phInertialCS@@QBEXABVVector3@@AAV2@@Z 004791B0
 0001:000781E0       ?GetLocalFilteredDisp@phInertialCS@@QBEXABVVector3@@AAV2@@Z 004791E0
 0001:00078240       ?GetCMFilteredVelocity@phInertialCS@@QBEXAAVVector3@@@Z 00479240
 0001:000782A0       ?GetCMDisp@phInertialCS@@QBEXAAVVector3@@@Z 004792A0
 0001:000782F0       ?GetLocalAcceleration@phInertialCS@@QBEXABVVector3@@AAV2@@Z 004792F0
 0001:00078520       ??YVector3@@QAEXAAV0@@Z    00479520
 0001:00078550       ??0TerrainContact@phInertialCS@@QAE@XZ 00479550
 0001:00078560       ?Dot3x3@Vector3@@QAEXABVMatrix34@@@Z 00479560
 0001:000785C0       ?Dot3x3Transpose@Vector3@@QAEXABVMatrix34@@@Z 004795C0
 0001:00078ED0       ??0phBoundBox@@QAE@XZ      00479ED0
 0001:00079020       ??0phBoundBox@@QAE@ABVVector3@@@Z 0047A020
 0001:00079160       ??1phBoundBox@@QAE@XZ      0047A160
 0001:00079180       ?GetMaterial@phBoundBox@@UBEPBVphMaterial@@H@Z 0047A180
 0001:000791A0       ?SetSize@phBoundBox@@QAEXABVVector3@@@Z 0047A1A0
 0001:00079240       ?CreateOffset@phBoundBox@@QAEXABVVector3@@@Z 0047A240
 0001:00079270       ?ShiftCentroid@phBoundBox@@QAEXABVVector3@@@Z 0047A270
 0001:000792B0       ?ScaleSize@phBoundBox@@QAEXABVVector3@@@Z 0047A2B0
 0001:00079300       ?SetQuickTestInfo@phBoundBox@@QAEXXZ 0047A300
 0001:000793A0       ?Load@phBoundBox@@QAE_NPBD@Z 0047A3A0
 0001:000796B0       ?GetEdgeNormal@phBoundBox@@UBEABVVector3@@HAAV2@@Z 0047A6B0
 0001:000796D0       ?FindImpactSphereToBox@phBoundBox@@QBEHPBVphBoundSphere@@ABVMatrix34@@1PAVphColliderBase@@2PAVphImpactBase@@ABVVector3@@4@Z 0047A6D0
 0001:00079FE0       ?FindImpactsBoxToBox@phBoundBox@@QBEHPBV1@PBVMatrix34@@111PAVphColliderBase@@2PAVphImpactBase@@HABVVector3@@@Z 0047AFE0
 0001:0007AA90       ?FindImpactsBoxToBoxOffset@phBoundBox@@QBEHPBV1@PBVMatrix34@@111PAVphColliderBase@@2PAVphImpactBase@@HABVVector3@@@Z 0047BA90
 0001:0007B5B0       j_nullsub_234              0047C5B0
 0001:0007B5C0       nullsub_234                0047C5C0
 0001:0007B5D0       ?AddEdgeChecks@phBoundBox@@CAXHH_N@Z 0047C5D0
 0001:0007B690       ?AvoidEdgeChecks@phBoundBox@@CAXHH_N@Z 0047C690
 0001:0007B710       ?AvoidEdgeChecks@phBoundBox@@CAXHH@Z 0047C710
 0001:0007B790       ?MakeTransformedCorners@phBoundBox@@CAXABVVector3@@0_N@Z 0047C790
 0001:0007BAA0       ?FindFaceDots@phBoundBox@@CAXMPAH0@Z 0047CAA0
 0001:0007BB50       ?RemoveFaceDotZero@phBoundBox@@CAXXZ 0047CB50
 0001:0007BBD0       ?CheckFourFaceDotPattern@phBoundBox@@CA_NXZ 0047CBD0
 0001:0007BC30       ?VerifyFaceDotPattern@phBoundBox@@CA_NXZ 0047CC30
 0001:0007BC80       ?RemoveFifthFaceDotZero@phBoundBox@@CAXXZ 0047CC80
 0001:0007BD30       ?UseThisImpact@phBoundBox@@CA_NABVVector3@@0MPBVMatrix34@@111@Z 0047CD30
 0001:0007BE40       ?BoxToBoxFaceImpactsOffset@phBoundBox@@CAXABVVector3@@00PAVphImpactBase@@H_NPBVMatrix34@@333PAVphColliderBase@@4@Z 0047CE40
 0001:0007D4A0       ?BoxToBoxFaceImpacts@phBoundBox@@IBEXABVVector3@@PAVphImpactBase@@H_NPBVMatrix34@@333PAVphColliderBase@@4@Z 0047E4A0
 0001:0007E9B0       ?TestEdge@phBoundBox@@UBEHAAVphSegment@@PAVphIntersection@@H@Z 0047F9B0
 0001:0007F010       ?TestProbe@phBoundBox@@UBE_NAAVphSegment@@PAVphIntersection@@M@Z 00480010
 0001:0007F060       ?TestProbePoint@phBoundBox@@UBE_NAAVphSegment@@PAVphIntersectionPoint@@M@Z 00480060
 0001:0007F080       ?TestAIPoint@phBoundBox@@UBE_NAAVphSegment@@PAVphIntersectionPoint@@@Z 00480080
 0001:0007F0A0       ?TestProbeSlave@phBoundBox@@IBE_NAAVphSegment@@PAVphIntersectionPoint@@PAJM@Z 004800A0
 0001:0007F5B0       ?ProbeVsBox@phBoundBox@@SA_NABVVector3@@AAVphSegment@@PAVphIntersectionPoint@@PAJM@Z 004805B0
 0001:0007FAA0       ?Set@Vector3@@QAEXABV1@@Z  00480AA0
 0001:0007FAC0       ?Negate@Vector3@@QAEXABV1@@Z 00480AC0
 0001:0007FAE0       ??0phBoundHotdog@@QAE@XZ   00480AE0
 0001:0007FB20       ??0phBoundHotdog@@QAE@MM@Z 00480B20
 0001:0007FB60       ?SetSize@phBoundHotdog@@QAEXMM@Z 00480B60
 0001:0007FBD0       ??1phBoundHotdog@@QAE@XZ   00480BD0
 0001:0007FBE0       ?SetBoundingBox@phBoundHotdog@@QAEXMM@Z 00480BE0
 0001:0007FC20       ?ScaleBoundingBox@phBoundHotdog@@QAEXMM@Z 00480C20
 0001:0007FC60       ?CalculateBoundingBox@phBoundHotdog@@QAEXXZ 00480C60
 0001:0007FCE0       ?CreateOffset@phBoundHotdog@@QAEXABVVector3@@@Z 00480CE0
 0001:0007FD10       ?ShiftCentroid@phBoundHotdog@@QAEXABVVector3@@@Z 00480D10
 0001:0007FD50       ?TestProbePoint@phBoundHotdog@@UBE_NAAVphSegment@@PAVphIntersectionPoint@@M@Z 00480D50
 0001:0007FF10       ?TestAIPoint@phBoundHotdog@@UBE_NAAVphSegment@@PAVphIntersectionPoint@@@Z 00480F10
 0001:000800A0       ?TestEdge@phBoundHotdog@@UBEHAAVphSegment@@PAVphIntersection@@H@Z 004810A0
 0001:000803A0       ?TestProbe@phBoundHotdog@@UBE_NAAVphSegment@@PAVphIntersection@@M@Z 004813A0
 0001:00080570       ?TestSphere@phBoundHotdog@@UBE_NABVVector3@@MAAV2@1AAM@Z 00481570
 0001:00080810       ?IsInsideHotdog@phBoundHotdog@@QBE_NABVVector3@@@Z 00481810
 0001:00080900       ?SegmentToHotdogIntersections@phBoundHotdog@@QBEHABVVector3@@0PAM111PAH2@Z 00481900
 0001:00080E70       ?FindHotdogIsectNormal@phBoundHotdog@@QBE?AVVector3@@ABV2@H@Z 00481E70
 0001:00080F40       ?FindImpactSphereToHotdog@phBoundHotdog@@QBE_NPBVphBoundSphere@@PBVMatrix34@@1PAVphColliderBase@@2PAVphImpactBase@@ABVVector3@@@Z 00481F40
 0001:00081440       ?FindImpactsHotdogToPoly@phBoundHotdog@@QBEHPBVphBoundPolygonal@@PBVMatrix34@@1PAVphColliderBase@@2PAVphImpactBase@@HABVVector3@@4@Z 00482440
 0001:00082880       ?FindImpactsHotdogToHotdog@phBoundHotdog@@QBEHPBV1@PBVMatrix34@@1PAVphColliderBase@@2PAVphImpactBase@@H@Z 00483880
 0001:00083080       ?Load@phBoundHotdog@@QAE_NPBD@Z 00484080
 0001:00083420       ?AddScaled@Vector3@@QAEXABV1@0M@Z 00484420
 0001:00083450       ?GetMaterial@phBoundHotdog@@UBEPBVphMaterial@@H@Z 00484450
 0001:00083460       ??0phBoundSphere@@QAE@XZ   00484460
 0001:00083490       ??0phBoundSphere@@QAE@M@Z  00484490
 0001:00083500       ??1phBoundSphere@@QAE@XZ   00484500
 0001:00083510       ?SetRadius@phBoundSphere@@QAEXM@Z 00484510
 0001:00083550       ?ScaleRadius@phBoundSphere@@QAEXM@Z 00484550
 0001:00083590       ?CreateOffset@phBoundSphere@@QAEXABVVector3@@@Z 00484590
 0001:000835C0       ?ShiftCentroid@phBoundSphere@@QAEXABVVector3@@@Z 004845C0
 0001:00083660       ?Load@phBoundSphere@@QAE_NPBD@Z 00484660
 0001:000839E0       ?FindImpactSphereToSphere@phBoundSphere@@QBE_NPBV1@PBVMatrix34@@1PAVphColliderBase@@2PAVphImpactBase@@ABVVector3@@@Z 004849E0
 0001:00083BC0       ?TestProbePoint@phBoundSphere@@UBE_NAAVphSegment@@PAVphIntersectionPoint@@M@Z 00484BC0
 0001:00083D70       ?TestAIPoint@phBoundSphere@@UBE_NAAVphSegment@@PAVphIntersectionPoint@@@Z 00484D70
 0001:00083F10       ?TestEdge@phBoundSphere@@UBEHAAVphSegment@@PAVphIntersection@@H@Z 00484F10
 0001:00084210       ?TestProbe@phBoundSphere@@UBE_NAAVphSegment@@PAVphIntersection@@M@Z 00485210
 0001:000843E0       ?TestSphere@phBoundSphere@@UBE_NABVVector3@@MAAV2@1AAM@Z 004853E0
 0001:000844B0       ?TestSphere@phBoundSphere@@UBE_NABVVector3@@MAAVphImpactBase@@@Z 004854B0
 0001:000845D0       ?GetMaterial@phBoundSphere@@UBEPBVphMaterial@@H@Z 004855D0
 0001:000845E0       ??0phBoundGeometry@@QAE@XZ 004855E0
 0001:00084620       ??1phBoundGeometry@@QAE@XZ 00485620
 0001:00084670       ?Init@phBoundGeometry@@QAEXHHHH@Z 00485670
 0001:00084780       ?PostLoadCompute@phBoundGeometry@@UAEXXZ 00485780
 0001:000847AB       ?Load@phBoundGeometry@@QAE_NPBDPBVVector3@@@Z 004857AB
 0001:000850B9       ?LoadBinary@phBoundGeometry@@QAE_NPBD@Z 004860B9
 0001:000852C9       ?ScaleSize@phBoundGeometry@@QAEXMMM@Z 004862C9
 0001:000853A9       ?ShiftCentroid@phBoundGeometry@@QAEXABVVector3@@@Z 004863A9
 0001:000853F9       ?ComputeEdges@phBoundGeometry@@QAEXXZ 004863F9
 0001:00085609       ?EdgeInList@phBoundGeometry@@KAJHHJPAVphHotEdge@@@Z 00486609
 0001:00085659       ?ComputeEdgeNums@phBoundGeometry@@QAEXXZ 00486659
 0001:00085739       ?ComputeEdgeNormals@phBoundGeometry@@QAEXXZ 00486739
 0001:000857A9       ?ReComputeEdgeNormals@phBoundGeometry@@QAEXXZ 004867A9
 0001:00085B89       ?SetQuickTestInfo@phBoundGeometry@@QAEXXZ 00486B89
 0001:00085C39       ?CalculatePolyNormals@phBoundGeometry@@QAEXXZ 00486C39
 0001:00085C69       ?OverlapRegion@phBoundGeometry@@QAE_NPBVVector3@@HMM@Z 00486C69
 0001:00085D39       ?GhostSection@phBoundGeometry@@QAE_NPBV1@PBVVector3@@HMM@Z 00486D39
 0001:000861A0       ?GetMaterial@phBoundGeometry@@UBEPBVphMaterial@@H@Z 004871A0
 0001:000861B0       ??0phBound@@QAE@H@Z        004871B0
 0001:00086200       ?CalculateSphereFromBoundingBox@phBound@@QAEXXZ 00487200
 0001:000862A0       ?CenterBound@phBound@@UAEXXZ 004872A0
 0001:000862B0       ?IsOffset@phBound@@QBE?B_NXZ 004872B0
 0001:000862C0       ?SetOffset@phBound@@QAEXABVVector3@@@Z 004872C0
 0001:00086320       ?GetCenter@phBound@@QBEXPBVMatrix34@@PAVVector3@@@Z 00487320
 0001:000863A0       ?GetCenter@phBound@@QBE?AVVector3@@PBVMatrix34@@@Z 004873A0
 0001:00086450       ?SetPenetration@phBound@@QAEXXZ 00487450
 0001:000864D0       ?SetFlexibility@phBound@@QAEXM@Z 004874D0
 0001:00086500       ?GetFricElas@phBound@@SAXPBV1@PBVphIntersection@@01PAM2@Z 00487500
 0001:00086540       ?GetFricElas@phBound@@QBEXPBVphIntersection@@PAM1@Z 00487540
 0001:000865B0       ?TestSegment@phBound@@QBEHAAVphSegment@@PAVphIntersection@@H@Z 004875B0
 0001:00086630       ?TestSegmentPoint@phBound@@QBEHAAVphSegment@@PAVphIntersectionPoint@@H@Z 00487630
 0001:000866B0       ?TestSphere@phBound@@UBE_NABVVector3@@MAAV2@1AAM@Z 004876B0
 0001:000866C0       ?TestSphere@phBound@@UBE_NABVVector3@@MAAVphImpactBase@@@Z 004876C0
 0001:00086730       ?GetVertex@phBound@@UBEABVVector3@@H@Z 00487730
 0001:00086760       ?BackupDispByPenetration@phBoundPolygonal@@KAXAAVVector3@@ABV2@M@Z 00487760
 0001:00086840       ?MaxDot@phBoundPolygonal@@QBEMABVVector3@@ABVMatrix34@@AAV2@@Z 00487840
 0001:00086910       ?MinDot@phBoundPolygonal@@QBEMABVVector3@@ABVMatrix34@@AAV2@@Z 00487910
 0001:00086950       ?CenterBound@phBoundPolygonal@@UAEXXZ 00487950
 0001:000869A0       ?TestSphere@phBoundPolygonal@@UBE_NABVVector3@@MAAV2@1AAM@Z 004879A0
 0001:000869D0       ?FindImpactsSphereToPoly@phBoundPolygonal@@QBEHPBVphBoundSphere@@PBVMatrix34@@1PAVphColliderBase@@2PAVphImpactBase@@HABVVector3@@4@Z 004879D0
 0001:00086DF0       ?TestBoundPolyPoly@phBoundPolygonal@@UBEHPBV1@PBVMatrix34@@111PAVphColliderBase@@2PAVphIntersection@@3HPAH4ABVVector3@@_N@Z 00487DF0
 0001:00086F00       ?TestBoundPolyPolyUseDot@phBoundPolygonal@@UBEHPBV1@PAVphColliderBase@@PBVMatrix34@@222PAVphIntersection@@HPAHMPBVVector3@@_N@Z 00487F00
 0001:00087250       ?RewindSegments@phBoundPolygonal@@QBEX_NPBVMatrix34@@111PAV2@2AAH3@Z 00488250
 0001:000872C0       ?RewindSegments@phBoundPolygonal@@QBEX_NPBVMatrix34@@1PAV2@2AAH3@Z 004882C0
 0001:00087310       ?GetNextSegment@phBoundPolygonal@@QBEHAAVphSegment@@PAJPBVMatrix34@@2AAH3@Z 00488310
 0001:00087500       ?GetNextSegment@phBoundPolygonal@@QBEHAAVphSegment@@PAJPBVMatrix34@@2MPBVVector3@@PAEPAV4@AAH6@Z 00488500
 0001:00087770       ?BackupAbyPenetration@phBoundPolygonal@@SAXAAVphSegment@@@Z 00488770
 0001:00087850       ?MakeBsInside@phBoundPolygonal@@KAXPAVphIntersection@@H@Z 00488850
 0001:00087960       ?CheckSaveEdgeEdge@phBoundPolygonal@@KAXPAVphIntersection@@H_N1ABVVector3@@22MM1MM@Z 00488960
 0001:00087B00       ?GetCollideEdgePoly@phBoundPolygonal@@KA_NPBVphIntersection@@ABVVector3@@ABVMatrix34@@21PAV3@3PAMPAHPA_N@Z 00488B00
 0001:000881D0       ?AddInteriorEdges@phBoundPolygonal@@IBEHPAVphIntersection@@H0HH@Z 004891D0
 0001:00088460       ?GetNextEdgeIsect@phBoundPolygonal@@KAXAAHAAPAVphIntersection@@_N@Z 00489460
 0001:00088490       ?DoEndPtSearch@phBoundPolygonal@@KAXPBVphBound@@PBVMatrix34@@111PAVphColliderBase@@2HPAVphIntersection@@HPAPAVphImpactBase@@AAH_N@Z 00489490
 0001:00088C30       ?RetryVertPolyCollide@phBoundPolygonal@@KAXPBVphBound@@PAVphColliderBase@@1PAVphIntersection@@HPAPAVphImpactBase@@PAH_N@Z 00489C30
 0001:00088DD0       ?FindImpactsPolyToPoly@phBoundPolygonal@@QBEHPBV1@PBVMatrix34@@111PAVphColliderBase@@2PAVphIntersection@@3PAVphImpactBase@@HHPAH5@Z 00489DD0
 0001:000890C0       ?FindImpacts@phBoundPolygonal@@IBEHPBVphBound@@PBVMatrix34@@111PAVphColliderBase@@2PAVphIntersection@@3HHPAVphImpactBase@@H@Z 0048A0C0
 0001:0008A230       ?ResetVertNeedsH@phBoundPolygonal@@KAXPAVphIntersection@@0_N1@Z 0048B230
 0001:0008A270       ?ResetVertNeedsH@phBoundPolygonal@@KAXPAVphIntersection@@0_N1M@Z 0048B270
 0001:0008A300       ?TestProbePoint@phBoundPolygonal@@UBE_NAAVphSegment@@PAVphIntersectionPoint@@M@Z 0048B300
 0001:0008A370       ?TestAIPoint@phBoundPolygonal@@UBE_NAAVphSegment@@PAVphIntersectionPoint@@@Z 0048B370
 0001:0008A3E0       ?TestProbe@phBoundPolygonal@@UBE_NAAVphSegment@@PAVphIntersection@@M@Z 0048B3E0
 0001:0008A450       ?TestEdge@phBoundPolygonal@@UBEHAAVphSegment@@PAVphIntersection@@H@Z 0048B450
 0001:0008A590       ?GetAllSegments@phBoundPolygonal@@QBEXMPAUDispSegment@1@PAUSegment@1@ABVMatrix34@@2MABVVector3@@PAEPAVVector4@@AAH6@Z 0048B590
 0001:0008A7A0       ?TestBoundPolyPolyUseDotSmall@phBoundPolygonal@@UBEHPBV1@PAVphColliderBase@@PBVMatrix34@@222PAVphIntersection@@PAHMABVVector3@@_N@Z 0048B7A0
 0001:0008B150       ??0phBoundTerrain@@QAE@XZ  0048C150
 0001:0008B1D0       ??1phBoundTerrain@@QAE@XZ  0048C1D0
 0001:0008B270       ?SetHotEdges@phBoundTerrain@@QAEX_N@Z 0048C270
 0001:0008B2D0       ?PostLoadCompute@phBoundTerrain@@UAEXXZ 0048C2D0
 0001:0008B2E0       ?Load@phBoundTerrain@@QAE_NPBD@Z 0048C2E0
 0001:0008B690       ?Save@phBoundTerrain@@QAE_NPBD@Z 0048C690
 0001:0008B8A0       ?TestBoundTerrainPoly@phBoundTerrain@@QBEHPBVphBoundPolygonal@@PBVMatrix34@@1PAVphColliderBase@@2PAVphIntersection@@3HPAH4ABVVector3@@_N@Z 0048C8A0
 0001:0008B960       ?TestBoundTerrainEdgesVsPoly@phBoundTerrain@@QBEHPBVphBoundPolygonal@@PAVphColliderBase@@PBVMatrix34@@PAVphIntersection@@HPAH@Z 0048C960
 0001:0008BD00       ?TestBoundPolyTerrain@phBoundTerrain@@QBEHPBVphBoundPolygonal@@PAVphColliderBase@@PBVMatrix34@@2PAVphIntersection@@HPAHPBVVector3@@_N@Z 0048CD00
 0001:0008C790       ?TestSphere@phBoundTerrain@@UBE_NABVVector3@@MAAV2@1AAM@Z 0048D790
 0001:0008C9C0       ?InitPolyIterator@phBoundTerrain@@QBEXABVVector3@@M@Z 0048D9C0
 0001:0008CDC0       ?InitPolyIterator@phBoundTerrain@@QBEXABVphSegment@@@Z 0048DDC0
 0001:0008D0C0       ?ClearPolyTouched@phBoundTerrain@@QBEXXZ 0048E0C0
 0001:0008D100       ?TestAIPoint@phBoundTerrain@@UBE_NAAVphSegment@@PAVphIntersectionPoint@@@Z 0048E100
 0001:0008D200       ?TestProbePoint@phBoundTerrain@@UBE_NAAVphSegment@@PAVphIntersectionPoint@@M@Z 0048E200
 0001:0008D310       ?TestProbe@phBoundTerrain@@UBE_NAAVphSegment@@PAVphIntersection@@M@Z 0048E310
 0001:0008D480       ?TestEdge@phBoundTerrain@@UBEHAAVphSegment@@PAVphIntersection@@H@Z 0048E480
 0001:0008D680       ?CalculateBuckets@phBoundTerrain@@IBEXMMMM@Z 0048E680
 0001:0008DF50       ?FindImpactsSphereToTerrain@phBoundTerrain@@QBEHPBVphBoundSphere@@PBVMatrix34@@1PAVphColliderBase@@2PAVphImpactBase@@HABVVector3@@4@Z 0048EF50
 0001:0008E440       ?FindImpactsHotdogToTerrain@phBoundTerrain@@QBEHPBVphBoundHotdog@@PBVMatrix34@@1PAVphColliderBase@@2PAVphImpactBase@@HABVVector3@@4@Z 0048F440
 0001:0008F1F0       ?PackNormal@phBoundTerrain@@SAXAAIABVVector4@@@Z 004901F0
 0001:0008F280       ?UnpackNormal@phBoundTerrain@@SAXAAVVector4@@I@Z 00490280
 0001:0008F2F0       ??0phBoundTerrainLocal@@QAE@XZ 004902F0
 0001:0008F310       ?TestBoundTerrainPoly@phBoundTerrainLocal@@QBEHPBVphBoundPolygonal@@PBVMatrix34@@11PAVphColliderBase@@2PAVphIntersection@@3HPAH4ABVVector3@@_N@Z 00490310
 0001:0008F3D0       ?TestBoundTerrainEdgesVsPoly@phBoundTerrainLocal@@QBEHPBVphBoundPolygonal@@PAVphColliderBase@@PBVMatrix34@@2PAVphIntersection@@HPAH@Z 004903D0
 0001:0008F3F0       ?TestBoundPolyTerrain@phBoundTerrainLocal@@QBEHPBVphBoundPolygonal@@PAVphColliderBase@@PBVMatrix34@@22PAVphIntersection@@HPAHPBVVector3@@_N@Z 004903F0
 0001:0008F400       ?FindImpactsHotdogToTerrainLocal@phBoundTerrainLocal@@QBEHPBVphBoundHotdog@@PBVMatrix34@@1PAVphColliderBase@@2PAVphImpactBase@@HABVVector3@@4@Z 00490400
 0001:000902C0       ?SegSegDistNorm@phBoundCollision@@SAXABVVector3@@00000AAV2@11AAMAAH@Z 004912C0
 0001:00090700       ?GetDisp@phBoundCollision@@SAXPBVMatrix34@@0ABVVector3@@AAV3@@Z 00491700
 0001:000907D0       ?SetPenetration@phBoundCollision@@SAXM@Z 004917D0
 0001:000907F0       ?testNoOverlap@phBoundCollision@@CAHQBM0@Z 004917F0
 0001:00090860       ??GVector3@@QBE?AV0@ABV0@@Z 00491860
 0001:000908A0       ??KVector3@@QBE?AV0@M@Z    004918A0
 0001:000908E0       ??D@YA?AVVector3@@MABV0@@Z 004918E0
 0001:00090920       ?StartMakingNewImpact@phImpactBase@@QAEXMABVVector3@@0PAVphColliderBase@@1PBVMatrix34@@HHH@Z 00491920
 0001:00090A30       ?FinishMakingNewImpact@phImpactBase@@QAEXHHPAVphColliderBase@@0PBVphBound@@1H@Z 00491A30
 0001:00090AB0       ?MakeNewImpact@phImpactBase@@QAEXPAVphColliderBase@@0ABVVector3@@1MPBVphBound@@2HHH@Z 00491AB0
 0001:00090B80       ?AddImpactSpherePlaneTest@phImpactBase@@SA_NPAV1@PAHABVVector3@@M@Z 00491B80
 0001:00090E20       ?AddImpactShaftPlaneTest@phImpactBase@@SA_NPAV1@PAHABVVector3@@M2@Z 00491E20
 0001:00091270       ?SetColliders@phImpactBase@@QAEXPAVphColliderBase@@0@Z 00492270
 0001:00091290       ?SetColliders@phImpactBase@@QAEXPAVphColliderBase@@0HH@Z 00492290
 0001:000912B0       ?SetComponentA@phImpactBase@@QAEXH@Z 004922B0
 0001:000912C0       ?SetComponentB@phImpactBase@@QAEXH@Z 004922C0
 0001:000912D0       ?SetColliders@phImpactBase@@SAXPAVphColliderBase@@0PAV1@H@Z 004922D0
 0001:00091310       ?SwapColliders@phImpactBase@@QAEXXZ 00492310
 0001:00091360       ?CullImpactList@phImpactBase@@SAXPAV1@PAHABVVector3@@@Z 00492360
 0001:000914C0       ?ImpactIsInList@phImpactBase@@SA_NHHHPAV1@H@Z 004924C0
 0001:000915A0       ?Reset@phImpactBase@@QAEXXZ 004925A0
 0001:000915D0       ?SphereToPolygonal@phCollisionPrim@@SA_NABVVector3@@MPBVphBoundPolygonal@@AAV2@2AAM@Z 004925D0
 0001:00091770       ?SphereToPolygonal@phCollisionPrim@@SA_NABVVector3@@MPBVphBoundPolygonal@@ABVMatrix34@@AAV2@3AAM@Z 00492770
 0001:00091A00       ?SegmentToSphere@phCollisionPrim@@SA_NABVVector3@@MABVphSegment@@PAVphIntersectionPoint@@@Z 00492A00
 0001:00091C10       ?SegmentSphereTest@phCollisionPrim@@SA_NABVVector3@@M00@Z 00492C10
 0001:00091D00       ?SegmentSphereTest@phCollisionPrim@@SA_NABVVector3@@MABVphSegment@@@Z 00492D00
 0001:00091E00       ?SegmentSphereTest@phCollisionPrim@@SA_NMABVphSegment@@@Z 00492E00
 0001:00091F00       ?SegmentSphereTest@phCollisionPrim@@SA_NMABVVector3@@0@Z 00492F00
 0001:00091FF0       ??0phMaterial@@QAE@XZ      00492FF0
 0001:00092050       ?SetName@phMaterial@@QAEXPBD@Z 00493050
 0001:00092070       ?Load@phMaterial@@QAEXAAVdatAsciiTokenizer@@@Z 00493070
 0001:00092160       ?Save@phMaterial@@UAEXAAVdatAsciiTokenizer@@@Z 00493160
 0001:00092270       ?Copy@phMaterial@@UAEXABV1@@Z 00493270
 0001:000922A0       ?LoadBinary@phMaterial@@QAEXPAVStream@@@Z 004932A0
 0001:00092340       ?SaveBinary@phMaterial@@UAEXPAVStream@@@Z 00493340
 0001:00092420       ?CreateInstance@phMaterialMgr@@SAAAV1@H@Z 00493420
 0001:000924A0       ??0phMaterialMgr@@IAE@XZ   004934A0
 0001:000924E0       ??0phMaterialMgr@@IAE@PAVphMaterial@@H@Z 004934E0
 0001:000925C0       ??1phMaterialMgr@@QAE@XZ   004935C0
 0001:00092640       ?Find@phMaterialMgr@@QAEPAVphMaterial@@PBD@Z 00493640
 0001:00092660       ?AddToTable@phMaterialMgr@@QAEXPAVphMaterial@@@Z 00493660
 0001:00092680       ?LoadTable@phMaterialMgr@@QAE_NPBD@Z 00493680
 0001:00092700       ?Load@phMaterialMgr@@UAEPAVphMaterial@@PAVdatAsciiTokenizer@@@Z 00493700
 0001:00092780       ?Load@phMaterialMgr@@UAEPAVphMaterial@@PAVStream@@@Z 00493780
 0001:00092800       ?Save@phMaterialMgr@@QAEXPAVphMaterial@@PAVdatAsciiTokenizer@@@Z 00493800
 0001:00092840       ?FindNameOfIndex@phMaterialMgr@@QAEPBDH@Z 00493840
 0001:00092870       ?FindIndexOfName@phMaterialMgr@@QAEHPBD@Z 00493870
 0001:000928E0       ??0phPolygon@@QAE@XZ       004938E0
 0001:00092910       ?InitTriangle@phPolygon@@QAEXGGGPBVVector3@@@Z 00493910
 0001:00092940       ?InitQuad@phPolygon@@QAEXGGGGPBVVector3@@@Z 00493940
 0001:00092970       ?Rotate@phPolygon@@QAEXXZ  00493970
 0001:00092A40       ?CalculateNormal@phPolygon@@QAEXPBVVector3@@@Z 00493A40
 0001:00092C00       ?ComputeEdgeNormalCross@phPolygon@@IAEXPAVVector4@@PBVVector3@@@Z 00493C00
 0001:00092D40       ?TestSegmentDirected@phPolygon@@QBEHPBVVector3@@ABVphSegment@@PAVphIntersectionPoint@@M@Z 00493D40
 0001:000930D0       ?TestSegmentUndirected@phPolygon@@QBEHPBVVector3@@ABVphSegment@@PAVphIntersectionPoint@@MM@Z 004940D0
 0001:000934B0       ?DetectSegmentDirected@phPolygon@@QBEHPBVVector3@@ABV2@1@Z 004944B0
 0001:00093780       ?DetectSegmentUndirected@phPolygon@@QBEHPBVVector3@@ABVVector4@@1@Z 00494780
 0001:00093A70       ?SegEdgeCheckUndirected@phPolygon@@KA_NABVVector3@@00ABVVector4@@1@Z 00494A70
 0001:00093B30       ?SegEdgeCheckDirected@phPolygon@@KA_NABVVector3@@00ABVVector4@@1@Z 00494B30
 0001:00093C00       ?Lerp@Vector3@@QAEXMABV1@0@Z 00494C00
 0001:00093C40       ?Subtract@Vector4@@QAEXABVVector3@@0@Z 00494C40
 0001:00093C70       ?Dot3@Vector4@@QBEMABV1@@Z 00494C70
 0001:00093C90       ?Cross@Vector4@@QAEXABV1@0@Z 00494C90
 0001:00093CE0       ?Transform@phIntersectionPoint@@QAEXPBVMatrix34@@@Z 00494CE0
 0001:00093D90       ?Set@phIntersectionPoint@@QAEXABVVector3@@0MME@Z 00494D90
 0001:00093DE0       ?AngleToMatrix@@YAXABVVector3@@PAVMatrix34@@@Z 00494DE0
 0001:00093EE0       ?QuaternionToMatrix@@YAXABVQuaternion@@PAVMatrix34@@@Z 00494EE0
 0001:00093FB0       ?CreateRotatedMatrix@@YA?AVMatrix34@@ABVVector3@@0@Z 00494FB0
 0001:00094060       ?RotateMatrix@@YAXPAVMatrix34@@ABVVector3@@@Z 00495060
 0001:000940E0       ?ReOrderVerts@@YAXPAVVector3@@PAM@Z 004950E0
 0001:00094170       ?VertOrderIsOK@@YA_NPBVVector3@@@Z 00495170
 0001:00094220       ?CubeRoot@@YAMM@Z          00495220
 0001:00094270       ?ArcTangent@@YAMMM@Z       00495270
 0001:000942D0       ?RealQuadratic@@YAHMMPAM0M@Z 004952D0
 0001:00094350       ?RealCubic@@YAHMMMPAM00M@Z 00495350
 0001:00094520       ?RealQuartic@@YAHMMMMPAM000M@Z 00495520
 0001:00094A40       ?FindTValuesLineToCircle@@YAHABVVector3@@000MPAMPAV1@1121@Z 00495A40
 0001:00094D60       ?FindHomingAccel@@YAMMMMMM@Z 00495D60
 0001:00094DE0       ?FindHomingAccel3D@@YA?AVVector3@@MABV1@000@Z 00495DE0
 0001:00094E80       ?FindHomingAngAccel@@YA?AVVector3@@ABV1@0MM@Z 00495E80
 0001:00094FF0       ?FindHomingAngAccel3D@@YA?AVVector3@@MMABVMatrix34@@ABV1@01@Z 00495FF0
 0001:00095230       ?Set@Matrix33@@QAEXABV1@@Z 00496230
 0001:00095270       ?Add@Matrix33@@QAEXABV1@@Z 00496270
 0001:000952D0       ?Add@Matrix33@@QAEXABV1@0@Z 004962D0
 0001:00095330       ?Subtract@Matrix33@@QAEXABV1@@Z 00496330
 0001:00095390       ?Subtract@Matrix33@@QAEXABV1@0@Z 00496390
 0001:000953F0       ?IsZero@Matrix33@@QBE_NXZ  004963F0
 0001:00095490       ?Dot@Matrix33@@QAEXABV1@@Z 00496490
 0001:000955B0       ?Dot@Matrix33@@QAEXABV1@0@Z 004965B0
 0001:000956A0       ?DotCrossProdMtx@Matrix33@@QAEXABVVector3@@@Z 004966A0
 0001:00095750       ?CrossProduct@Matrix33@@QAEXABVVector3@@@Z 00496750
 0001:00095790       ?Diagonal@Matrix33@@QAEXM@Z 00496790
 0001:000957C0       ?Diagonal@Matrix33@@QAEXABVVector3@@@Z 004967C0
 0001:000957F0       ?Negate@Matrix33@@QAEXXZ   004967F0
 0001:00095840       ?Transpose@Matrix33@@QAEXXZ 00496840
 0001:00095870       ?Transpose@Matrix33@@QAEXABV1@@Z 00496870
 0001:000958B0       ?Inverse@Matrix33@@QAEXXZ  004968B0
 0001:000959D0       ?Inverse@Matrix33@@QAEXABV1@@Z 004969D0
 0001:00095A00       ?Set@Matrix66@@QAEXABV1@@Z 00496A00
 0001:00095A20       ?Set@Matrix66@@QAEXABVMatrix33@@000@Z 00496A20
 0001:00095A60       ?Add@Matrix66@@QAEXABV1@@Z 00496A60
 0001:00095AA0       ?Add@Matrix66@@QAEXABV1@0@Z 00496AA0
 0001:00095AF0       ?Subtract@Matrix66@@QAEXABV1@@Z 00496AF0
 0001:00095B30       ?Subtract@Matrix66@@QAEXABV1@0@Z 00496B30
 0001:00095B80       ?Dot@Matrix66@@QAEXABV1@@Z 00496B80
 0001:00095C70       ?Transpose@Matrix66@@QAEXXZ 00496C70
 0001:00095CC0       ?Transpose@Matrix66@@QAEXABV1@@Z 00496CC0
 0001:00095D00       ?Inverse@Matrix66@@QAEXXZ  00496D00
 0001:00095D30       ?Inverse@Matrix66@@QAEXABV1@@Z 00496D30
 0001:00095ED0       j_nullsub_235              00496ED0
 0001:00095EE0       nullsub_235                00496EE0
 0001:00095EF0       j_nullsub_236              00496EF0
 0001:00095F00       nullsub_236                00496F00
 0001:00095F10       ?ConvexPolyIntersect@phConvexPoly@@SAHHPBVVector2@@H0PAUData@1@@Z 00496F10
 0001:00096630       ?PrecomputeRays@phConvexPoly@@SAXHPBVVector2@@PAV2@PAM@Z 00497630
 0001:000966A0       ?AdvanceV@phConvexPoly@@SAXXZ 004976A0
 0001:00096730       ?GetvHeadOut@phConvexPoly@@SAXXZ 00497730
 0001:000967D0       ?GetuHeadOut@phConvexPoly@@SAXXZ 004977D0
 0001:00096870       ?GetuTailOut@phConvexPoly@@SAXXZ 00497870
 0001:000968F0       ?RecordEE@phConvexPoly@@SAXXZ 004978F0
 0001:000969D0       ?RecordUTail@phConvexPoly@@SAXXZ 004979D0
 0001:000969E0       ?RecordVTail@phConvexPoly@@SAXXZ 004979E0
 0001:00096A00       ?RecordTail@phConvexPoly@@SAX_N@Z 00497A00
 0001:00096AC0       ?RecordNoIsect@phConvexPoly@@SAXH@Z 00497AC0
 0001:00096AF0       ?RecordInteriorCollides@phConvexPoly@@SAX_N@Z 00497AF0
 0001:00096B70       ?InstallJPEGSupport@@YAXXZ 00497B70
 0001:00096B90       gfxLoadJPEGImageCB         00497B90
 0001:00096BC0       ?UnInstallJPEGSupport@@YAXXZ 00497BC0
 0001:00096BE0       ?gfxLoadJPEGImage@@YAPAVgfxImage@@PBD_N@Z 00497BE0
 0001:00096D10       ?jpeg_CreateDecompress@@YAXPAUjpeg_decompress_struct@@HI@Z 00497D10
 0001:00096DF0       ?jpeg_destroy_decompress@@YAXPAUjpeg_decompress_struct@@@Z 00497DF0
 0001:00096E10       ?jpeg_abort_decompress@@YAXPAUjpeg_decompress_struct@@@Z 00497E10
 0001:00096E30       ?jpeg_read_header@@YAHPAUjpeg_decompress_struct@@E@Z 00497E30
 0001:00096EB0       ?jpeg_consume_input@@YAHPAUjpeg_decompress_struct@@@Z 00497EB0
 0001:00096F80       ?default_decompress_parms@@YAXPAUjpeg_decompress_struct@@@Z 00497F80
 0001:00097130       ?jpeg_input_complete@@YAEPAUjpeg_decompress_struct@@@Z 00498130
 0001:00097180       ?jpeg_has_multiple_scans@@YAEPAUjpeg_decompress_struct@@@Z 00498180
 0001:000971D0       ?jpeg_finish_decompress@@YAEPAUjpeg_decompress_struct@@@Z 004981D0
 0001:00097290       ?jpeg_start_decompress@@YAEPAUjpeg_decompress_struct@@@Z 00498290
 0001:00097330       ?output_pass_setup@@YAEPAUjpeg_decompress_struct@@@Z 00498330
 0001:000973A0       ?jpeg_read_scanlines@@YAIPAUjpeg_decompress_struct@@PAPAEI@Z 004983A0
 0001:00097440       ?jpeg_read_raw_data@@YAIPAUjpeg_decompress_struct@@PAPAPAEI@Z 00498440
 0001:00097500       ?jpeg_stdio_src@@YAXPAUjpeg_decompress_struct@@PAVStream@@@Z 00498500
 0001:00097570       ?init_source@@YAXPAUjpeg_decompress_struct@@@Z 00498570
 0001:00097580       ?fill_input_buffer@@YAEPAUjpeg_decompress_struct@@@Z 00498580
 0001:000975F0       ?skip_input_data@@YAXPAUjpeg_decompress_struct@@J@Z 004985F0
 0001:00097630       ?term_source@@YAXPAUjpeg_decompress_struct@@@Z 00498630
 0001:00097640       ?jpeg_std_error@@YAPAUjpeg_error_mgr@@PAU1@@Z 00498640
 0001:00097690       ?error_exit@@YAXPAUjpeg_common_struct@@@Z 00498690
 0001:000976B0       ?output_message@@YAXPAUjpeg_common_struct@@@Z 004986B0
 0001:000976F0       ?emit_message@@YAXPAUjpeg_common_struct@@H@Z 004986F0
 0001:00097730       ?format_message@@YAXPAUjpeg_common_struct@@PAD@Z 00498730
 0001:000977E0       ?reset_error_mgr@@YAXPAUjpeg_common_struct@@@Z 004987E0
 0001:00097800       ?jinit_input_controller@@YAXPAUjpeg_decompress_struct@@@Z 00498800
 0001:00097890       ?per_scan_setup@@YAXPAUjpeg_decompress_struct@@@Z 00498890
 0001:00097A40       ?latch_quant_tables@@YAXPAUjpeg_decompress_struct@@@Z 00498A40
 0001:00097AF0       ?finish_input_pass@@YAXPAUjpeg_decompress_struct@@@Z 00498AF0
 0001:00097B10       ?consume_markers@@YAHPAUjpeg_decompress_struct@@@Z 00498B10
 0001:00097BE0       ?initial_setup@@YAXPAUjpeg_decompress_struct@@@Z 00498BE0
 0001:00097DD0       ?reset_input_controller@@YAXPAUjpeg_decompress_struct@@@Z 00498DD0
 0001:00097E10       ?jpeg_resync_to_restart@@YAEPAUjpeg_decompress_struct@@H@Z 00498E10
 0001:00097F10       ?next_marker@@YAEPAUjpeg_decompress_struct@@@Z 00498F10
 0001:00098030       ?jinit_marker_reader@@YAXPAUjpeg_decompress_struct@@@Z 00499030
 0001:000980B0       ?get_interesting_appn@@YAEPAUjpeg_decompress_struct@@@Z 004990B0
 0001:000981F0       ?examine_app0@@YAXPAUjpeg_decompress_struct@@PAEIJ@Z 004991F0
 0001:00098470       ?examine_app14@@YAXPAUjpeg_decompress_struct@@PAEIJ@Z 00499470
 0001:00098550       ?skip_variable@@YAEPAUjpeg_decompress_struct@@@Z 00499550
 0001:00098600       ?read_markers@@YAHPAUjpeg_decompress_struct@@@Z 00499600
 0001:00098950       ?get_soi@@YAEPAUjpeg_decompress_struct@@@Z 00499950
 0001:00098A10       ?get_sof@@YAEPAUjpeg_decompress_struct@@EE@Z 00499A10
 0001:00098D50       ?get_sos@@YAEPAUjpeg_decompress_struct@@@Z 00499D50
 0001:00099080       ?get_dht@@YAEPAUjpeg_decompress_struct@@@Z 0049A080
 0001:000993E0       ?get_dqt@@YAEPAUjpeg_decompress_struct@@@Z 0049A3E0
 0001:00099690       ?get_dri@@YAEPAUjpeg_decompress_struct@@@Z 0049A690
 0001:00099790       ?first_marker@@YAEPAUjpeg_decompress_struct@@@Z 0049A790
 0001:00099840       ?read_restart_marker@@YAEPAUjpeg_decompress_struct@@@Z 0049A840
 0001:000998D0       ?reset_marker_reader@@YAXPAUjpeg_decompress_struct@@@Z 0049A8D0
 0001:00099900       ?jpeg_set_marker_processor@@YAXPAUjpeg_decompress_struct@@HP6AE0@Z@Z 0049A900
 0001:00099960       ?jinit_memory_mgr@@YAXPAUjpeg_common_struct@@@Z 0049A960
 0001:00099A90       ?alloc_small@@YAPAXPAUjpeg_common_struct@@HI@Z 0049AA90
 0001:00099BD0       ?out_of_memory@@YAXPAUjpeg_common_struct@@H@Z 0049ABD0
 0001:00099C00       ?alloc_large@@YAPAXPAUjpeg_common_struct@@HI@Z 0049AC00
 0001:00099CA0       ?alloc_sarray@@YAPAPAEPAUjpeg_common_struct@@HII@Z 0049ACA0
 0001:00099D40       ?alloc_barray@@YAPAPAY0EA@FPAUjpeg_common_struct@@HII@Z 0049AD40
 0001:00099E00       ?request_virt_sarray@@YAPAUjvirt_sarray_control@@PAUjpeg_common_struct@@HEIII@Z 0049AE00
 0001:00099E70       ?request_virt_barray@@YAPAUjvirt_barray_control@@PAUjpeg_common_struct@@HEIII@Z 0049AE70
 0001:00099EE0       ?realize_virt_arrays@@YAXPAUjpeg_common_struct@@@Z 0049AEE0
 0001:0009A080       ?access_virt_sarray@@YAPAPAEPAUjpeg_common_struct@@PAUjvirt_sarray_control@@IIE@Z 0049B080
 0001:0009A1D0       ?do_sarray_io@@YAXPAUjpeg_common_struct@@PAUjvirt_sarray_control@@E@Z 0049B1D0
 0001:0009A280       ?access_virt_barray@@YAPAPAY0EA@FPAUjpeg_common_struct@@PAUjvirt_barray_control@@IIE@Z 0049B280
 0001:0009A3D0       ?do_barray_io@@YAXPAUjpeg_common_struct@@PAUjvirt_barray_control@@E@Z 0049B3D0
 0001:0009A480       ?free_pool@@YAXPAUjpeg_common_struct@@H@Z 0049B480
 0001:0009A590       ?self_destruct@@YAXPAUjpeg_common_struct@@@Z 0049B590
 0001:0009A5D0       ?jpeg_abort@@YAXPAUjpeg_common_struct@@@Z 0049B5D0
 0001:0009A610       ?jpeg_destroy@@YAXPAUjpeg_common_struct@@@Z 0049B610
 0001:0009A640       ?jpeg_alloc_quant_table@@YAPAUJQUANT_TBL@@PAUjpeg_common_struct@@@Z 0049B640
 0001:0009A660       ?jpeg_alloc_huff_table@@YAPAUJHUFF_TBL@@PAUjpeg_common_struct@@@Z 0049B660
 0001:0009A680       ?jpeg_calc_output_dimensions@@YAXPAUjpeg_decompress_struct@@@Z 0049B680
 0001:0009A730       ?use_merged_upsample@@YAEPAUjpeg_decompress_struct@@@Z 0049B730
 0001:0009A740       ?jinit_master_decompress@@YAXPAUjpeg_decompress_struct@@@Z 0049B740
 0001:0009A780       ?master_selection@@YAXPAUjpeg_decompress_struct@@@Z 0049B780
 0001:0009A910       ?prepare_range_limit_table@@YAXPAUjpeg_decompress_struct@@@Z 0049B910
 0001:0009A990       ?prepare_for_output_pass@@YAXPAUjpeg_decompress_struct@@@Z 0049B990
 0001:0009AAD0       ?finish_output_pass@@YAXPAUjpeg_decompress_struct@@@Z 0049BAD0
 0001:0009AB00       ?jdiv_round_up@@YAJJJ@Z    0049BB00
 0001:0009AB20       ?jround_up@@YAJJJ@Z        0049BB20
 0001:0009AB40       ?jcopy_sample_rows@@YAXPAPAEH0HHI@Z 0049BB40
 0001:0009AB90       ?jcopy_block_row@@YAXPAY0EA@F0I@Z 0049BB90
 0001:0009ABC0       ?jzero_far@@YAXPAXI@Z      0049BBC0
 0001:0009ABE0       ?jpeg_get_small@@YAPAXPAUjpeg_common_struct@@I@Z 0049BBE0
 0001:0009AC00       ?jpeg_free_small@@YAXPAUjpeg_common_struct@@PAXI@Z 0049BC00
 0001:0009AC20       ?jpeg_get_large@@YAPAXPAUjpeg_common_struct@@I@Z 0049BC20
 0001:0009AC40       ?jpeg_free_large@@YAXPAUjpeg_common_struct@@PAXI@Z 0049BC40
 0001:0009AC60       ?jpeg_mem_available@@YAJPAUjpeg_common_struct@@JJJ@Z 0049BC60
 0001:0009AC70       ?jpeg_open_backing_store@@YAXPAUjpeg_common_struct@@PAUbacking_store_struct@@J@Z 0049BC70
 0001:0009AC90       ?jpeg_mem_init@@YAJPAUjpeg_common_struct@@@Z 0049BC90
 0001:0009ACA0       ?jpeg_mem_term@@YAXPAUjpeg_common_struct@@@Z 0049BCA0
 0001:0009ACB0       ?jinit_d_main_controller@@YAXPAUjpeg_decompress_struct@@E@Z 0049BCB0
 0001:0009AD90       ?alloc_funny_pointers@@YAXPAUjpeg_decompress_struct@@@Z 0049BD90
 0001:0009AE50       ?start_pass_main@@YAXPAUjpeg_decompress_struct@@W4J_BUF_MODE@@@Z 0049BE50
 0001:0009AEC0       ?make_funny_pointers@@YAXPAUjpeg_decompress_struct@@@Z 0049BEC0
 0001:0009B000       ?process_data_simple_main@@YAXPAUjpeg_decompress_struct@@PAPAEPAII@Z 0049C000
 0001:0009B080       ?process_data_context_main@@YAXPAUjpeg_decompress_struct@@PAPAEPAII@Z 0049C080
 0001:0009B1C0       ?set_wraparound_pointers@@YAXPAUjpeg_decompress_struct@@@Z 0049C1C0
 0001:0009B2C0       ?set_bottom_pointers@@YAXPAUjpeg_decompress_struct@@@Z 0049C2C0
 0001:0009B370       ?jinit_d_coef_controller@@YAXPAUjpeg_decompress_struct@@E@Z 0049C370
 0001:0009B400       ?start_input_pass@@YAXPAUjpeg_decompress_struct@@@Z 0049C400
 0001:0009B420       ?start_iMCU_row@@YAXPAUjpeg_decompress_struct@@@Z 0049C420
 0001:0009B480       ?start_output_pass@@YAXPAUjpeg_decompress_struct@@@Z 0049C480
 0001:0009B4A0       ?decompress_onepass@@YAHPAUjpeg_decompress_struct@@PAPAPAE@Z 0049C4A0
 0001:0009B6D0       ?dummy_consume_data@@YAHPAUjpeg_decompress_struct@@@Z 0049C6D0
 0001:0009B6E0       ?jpeg_make_d_derived_tbl@@YAXPAUjpeg_decompress_struct@@EHPAPAUd_derived_tbl@@@Z 0049C6E0
 0001:0009B9A0       ?jpeg_fill_bit_buffer@@YAEPAUbitread_working_state@@JHH@Z 0049C9A0
 0001:0009BAC0       ?jpeg_huff_decode@@YAHPAUbitread_working_state@@JHPAUd_derived_tbl@@H@Z 0049CAC0
 0001:0009BBB0       ?jinit_huff_decoder@@YAXPAUjpeg_decompress_struct@@@Z 0049CBB0
 0001:0009BC00       ?start_pass_huff_decoder@@YAXPAUjpeg_decompress_struct@@@Z 0049CC00
 0001:0009BD60       ?decode_mcu@@YAEPAUjpeg_decompress_struct@@PAPAY0EA@F@Z 0049CD60
 0001:0009C160       ?process_restart@@YAEPAUjpeg_decompress_struct@@@Z 0049D160
 0001:0009C1F0       ?jinit_inverse_dct@@YAXPAUjpeg_decompress_struct@@@Z 0049D1F0
 0001:0009C280       ?start_pass@@YAXPAUjpeg_decompress_struct@@@Z 0049D280
 0001:0009C450       ?jinit_d_post_controller@@YAXPAUjpeg_decompress_struct@@E@Z 0049D450
 0001:0009C4D0       ?start_pass_dpost@@YAXPAUjpeg_decompress_struct@@W4J_BUF_MODE@@@Z 0049D4D0
 0001:0009C550       ?post_process_1pass@@YAXPAUjpeg_decompress_struct@@PAPAPAEPAIIPAPAE2I@Z 0049D550
 0001:0009C5D0       ?jinit_upsampler@@YAXPAUjpeg_decompress_struct@@@Z 0049D5D0
 0001:0009C7D0       ?start_pass_upsample@@YAXPAUjpeg_decompress_struct@@@Z 0049D7D0
 0001:0009C7F0       ?sep_upsample@@YAXPAUjpeg_decompress_struct@@PAPAPAEPAIIPAPAE2I@Z 0049D7F0
 0001:0009C8F0       ?fullsize_upsample@@YAXPAUjpeg_decompress_struct@@PAUjpeg_component_info@@PAPAEPAPAPAE@Z 0049D8F0
 0001:0009C900       ?noop_upsample@@YAXPAUjpeg_decompress_struct@@PAUjpeg_component_info@@PAPAEPAPAPAE@Z 0049D900
 0001:0009C910       ?int_upsample@@YAXPAUjpeg_decompress_struct@@PAUjpeg_component_info@@PAPAEPAPAPAE@Z 0049D910
 0001:0009CA10       ?h2v1_upsample@@YAXPAUjpeg_decompress_struct@@PAUjpeg_component_info@@PAPAEPAPAPAE@Z 0049DA10
 0001:0009CA70       ?h2v2_upsample@@YAXPAUjpeg_decompress_struct@@PAUjpeg_component_info@@PAPAEPAPAPAE@Z 0049DA70
 0001:0009CB00       ?h2v1_fancy_upsample@@YAXPAUjpeg_decompress_struct@@PAUjpeg_component_info@@PAPAEPAPAPAE@Z 0049DB00
 0001:0009CBC0       ?h2v2_fancy_upsample@@YAXPAUjpeg_decompress_struct@@PAUjpeg_component_info@@PAPAEPAPAPAE@Z 0049DBC0
 0001:0009CD10       ?jinit_color_deconverter@@YAXPAUjpeg_decompress_struct@@@Z 0049DD10
 0001:0009CEE0       ?build_ycc_rgb_table@@YAXPAUjpeg_decompress_struct@@@Z 0049DEE0
 0001:0009CFB0       ?ycc_rgb_convert@@YAXPAUjpeg_decompress_struct@@PAPAPAEIPAPAEH@Z 0049DFB0
 0001:0009D0D0       ?null_convert@@YAXPAUjpeg_decompress_struct@@PAPAPAEIPAPAEH@Z 0049E0D0
 0001:0009D160       ?grayscale_convert@@YAXPAUjpeg_decompress_struct@@PAPAPAEIPAPAEH@Z 0049E160
 0001:0009D190       ?gray_rgb_convert@@YAXPAUjpeg_decompress_struct@@PAPAPAEIPAPAEH@Z 0049E190
 0001:0009D1F0       ?ycck_cmyk_convert@@YAXPAUjpeg_decompress_struct@@PAPAPAEIPAPAEH@Z 0049E1F0
 0001:0009D340       ?start_pass_dcolor@@YAXPAUjpeg_decompress_struct@@@Z 0049E340
 0001:0009D350       ?jpeg_idct_islow@@YAXPAUjpeg_decompress_struct@@PAUjpeg_component_info@@PAFPAPAEI@Z 0049E350
 0001:0009D900       ?jpeg_idct_ifast@@YAXPAUjpeg_decompress_struct@@PAUjpeg_component_info@@PAFPAPAEI@Z 0049E900
 0001:0009DD70       ?jpeg_idct_float@@YAXPAUjpeg_decompress_struct@@PAUjpeg_component_info@@PAFPAPAEI@Z 0049ED70
 0001:0009E150       ??0string@@QAE@XZ          0049F150
 0001:0009E180       ??Hstring@@QBE?AV0@PBD@Z   0049F180
 0001:0009E2B0       ??H@YA?AVstring@@PBDABV0@@Z 0049F2B0
 0001:0009E3E0       ??Ystring@@QAEXPBD@Z       0049F3E0
 0001:0009E4C0       ??Ystring@@QAEXD@Z         0049F4C0
 0001:0009E560       ??Gstring@@QBE?AV0@PBD@Z   0049F560
 0001:0009E6D0       ??Zstring@@QAEXPBD@Z       0049F6D0
 0001:0009E790       ?MinusEqual@string@@QAEXD@Z 0049F790
 0001:0009E8E0       ?Contains@string@@QBEHAAV1@@Z 0049F8E0
 0001:0009E970       ?SaveName@string@@QAEXABV1@H00@Z 0049F970
 0001:0009EB30       ?FindFile@string@@QAEHABV1@H00@Z 0049FB30
 0001:0009EEB0       ?FileExists@string@@QBEHXZ 0049FEB0
 0001:0009EEE0       ?DirFileExt@string@@QBEXAAV1@00@Z 0049FEE0
 0001:0009F100       ?CommaFile@string@@QBEHXZ  004A0100
 0001:0009F2E0       ?FileName@string@@QBE?AV1@XZ 004A02E0
 0001:0009F460       ?Extension@string@@QBE?AV1@XZ 004A0460
 0001:0009F580       ?ChangeExtension@string@@QAEXABV1@@Z 004A0580
 0001:0009F730       ?RemoveExtension@string@@QAEXXZ 004A0730
 0001:0009F760       ?ExpandEnvs@string@@QAEXXZ 004A0760
 0001:0009F910       ?SubString@string@@QBE?AV1@H@Z 004A0910
 0001:0009FA20       ?NumSubStrings@string@@QBEHXZ 004A0A20
 0001:0009FA60       ?IsNumeric@string@@QBEHXZ  004A0A60
 0001:0009FA90       ??4string@@QAEXPBD@Z       004A0A90
 0001:0009FB00       ??Hstring@@QBE?AV0@ABV0@@Z 004A0B00
 0001:0009FB70       ??0asRoot@@QAE@XZ          004A0B70
 0001:0009FBE0       ?Init@asRoot@@QAEX_N@Z     004A0BE0
 0001:0009FC00       ?Update@asRoot@@UAEXXZ     004A0C00
 0001:0009FC40       ?Reset@asRoot@@UAEXXZ      004A0C40
 0001:0009FC50       ?Quit@asRoot@@QAEXXZ       004A0C50
 0001:0009FC60       ?IsPaused@asRoot@@QAE_NXZ  004A0C60
 0001:0009FC70       ?TogglePause@asRoot@@QAEXXZ 004A0C70
 0001:0009FC80       ?SetPause@asRoot@@QAEX_N@Z 004A0C80
 0001:0009FC90       ??1asRoot@@UAE@XZ          004A0C90
 0001:0009FCA0       ??_GasRoot@@UAEPAXI@Z      004A0CA0
 0001:0009FCD0       ?GetClassName@asRoot@@UAEPADXZ 004A0CD0
 0001:0009FCE0       ??0asNode@@QAE@XZ          004A0CE0
 0001:0009FD00       ??1asNode@@UAE@XZ          004A0D00
 0001:0009FD70       ?SetName@asNode@@QAEXPBD@Z 004A0D70
 0001:0009FDA0       ?GetDirName@asNode@@UAEPBDXZ 004A0DA0
 0001:0009FDB0       ?Update@asNode@@UAEXXZ     004A0DB0
 0001:0009FDD0       ?UpdatePaused@asNode@@UAEXXZ 004A0DD0
 0001:0009FE10       ?Reset@asNode@@UAEXXZ      004A0E10
 0001:0009FE30       ?ResChange@asNode@@UAEXHH@Z 004A0E30
 0001:0009FE60       ?AddChild@asNode@@QAEHPAV1@@Z 004A0E60
 0001:0009FEE0       ?InsertChild@asNode@@QAEHHPAV1@@Z 004A0EE0
 0001:0009FF50       ?RemoveChild@asNode@@QAEHH@Z 004A0F50
 0001:0009FFD0       ?RemoveChild@asNode@@QAEHPAV1@@Z 004A0FD0
 0001:000A0010       ?RemoveAllChildren@asNode@@QAEXXZ 004A1010
 0001:000A0030       ?GetChild@asNode@@QAEPAV1@H@Z 004A1030
 0001:000A0060       ?GetNext@asNode@@QAEPAV1@XZ 004A1060
 0001:000A0070       ?GetLastChild@asNode@@QAEPAV1@XZ 004A1070
 0001:000A00A0       ?NumChildren@asNode@@QAEHXZ 004A10A0
 0001:000A00C0       ?SwitchTo@asNode@@QAEXH@Z  004A10C0
 0001:000A0120       ?Load@asNode@@UAE_NXZ      004A1120
 0001:000A01D0       ?Save@asNode@@UAE_NXZ      004A11D0
 0001:000A0260       ??_EasNode@@UAEPAXI@Z      004A1260
 0001:000A0290       ??0asCullManager@@QAE@HH@Z 004A1290
 0001:000A0370       ??1asCullManager@@UAE@XZ   004A1370
 0001:000A03F0       ?Reset@asCullManager@@UAEXXZ 004A13F0
 0001:000A0440       ?DisplayVersionString@asCullManager@@IAEXXZ 004A1440
 0001:000A0450       ?Update@asCullManager@@UAEXXZ 004A1450
 0001:000A0580       ?DeclareCamera@asCullManager@@UAEXPAVasCamera@@@Z 004A1580
 0001:000A05B0       ?DeclareCullable@asCullManager@@UAEXPAVasCullable@@@Z 004A15B0
 0001:000A0600       ?DeclareCullable2D@asCullManager@@UAEXPAVasCullable@@@Z 004A1600
 0001:000A0640       ?DeclareCullable2DFG@asCullManager@@UAEXPAVasCullable@@@Z 004A1640
 0001:000A0680       ?DeclareBitmap@asCullManager@@QAEXPAVasCullable@@PAVgfxBitmap@@@Z 004A1680
 0001:000A0690       ??_EasCullManager@@UAEPAXI@Z 004A1690
 0001:000A06C0       ??0eqEventHandler@@QAE@XZ  004A16C0
 0001:000A0700       ??1eqEventHandler@@UAE@XZ  004A1700
 0001:000A0730       ?BeginGfx@eqEventHandler@@QAEHHHH@Z 004A1730
 0001:000A0740       ?EndGfx@eqEventHandler@@QAEXXZ 004A1740
 0001:000A0750       ?RestoreApp@eqEventHandler@@QAEXXZ 004A1750
 0001:000A0760       ?MinimizeApp@eqEventHandler@@QAEXH@Z 004A1760
 0001:000A0770       ?SetActive@eqEventHandler@@QAEXH@Z 004A1770
 0001:000A0780       ?ClearActive@eqEventHandler@@QAEXH@Z 004A1780
 0001:000A0790       ?Update@eqEventHandler@@QAEXXZ 004A1790
 0001:000A07C2       IO_EVENT_DESTROY           004A17C2
 0001:000A082A       IO_EVENT_CREATE            004A182A
 0001:000A0888       IO_EVENT_LBUTTONUP         004A1888
 0001:000A08E6       IO_EVENT_RBUTTONDOWN       004A18E6
 0001:000A0944       IO_EVENT_RBUTTONUP         004A1944
 0001:000A09A2       IO_EVENT_MBUTTONDOWN       004A19A2
 0001:000A0A00       IO_EVENT_MBUTTONUP         004A1A00
 0001:000A0A5E       IO_EVENT_KEYDOWN           004A1A5E
 0001:000A0AFD       IO_EVENT_CHAR              004A1AFD
 0001:000A0B41       IO_EVENT_INPUT             004A1B41
 0001:000A0D60       ?EKeyName@eqEventHandler@@SAPADH@Z 004A1D60
 0001:000A1030       ?AddClient@eqEventHandler@@QAEXPAVeqEventMonitor@@@Z 004A2030
 0001:000A1090       ?RemoveClient@eqEventHandler@@QAEXPAVeqEventMonitor@@@Z 004A2090
 0001:000A10D0       ??0eqEventMonitor@@QAE@XZ  004A20D0
 0001:000A10F0       ??1eqEventMonitor@@UAE@XZ  004A20F0
 0001:000A1110       ?Mouse@eqEventMonitor@@UAEXPAXHHHHHHH@Z 004A2110
 0001:000A1190       ?Keyboard@eqEventMonitor@@UAEXPAXHHHH@Z 004A2190
 0001:000A1210       ??_EeqEventHandler@@UAEPAXI@Z 004A2210
 0001:000A1240       ??_GeqEventMonitor@@UAEPAXI@Z 004A2240
 0001:000A1270       ??0asUnderlay@@QAE@XZ      004A2270
 0001:000A1280       ??1asUnderlay@@UAE@XZ      004A2280
 0001:000A1290       ?SetBitmap@asUnderlay@@QAEXPAVgfxBitmap@@@Z 004A2290
 0001:000A12A0       ?AddRef@asUnderlay@@QAEXXZ 004A22A0
 0001:000A12B0       ?Cull@asUnderlay@@UAEXXZ   004A22B0
 0001:000A12E0       ??1asCamera@@UAE@XZ        004A22E0
 0001:000A1340       ??0asCamera@@QAE@XZ        004A2340
 0001:000A14A0       ?Update@asCamera@@UAEXXZ   004A24A0
 0001:000A1650       ?SetClipArea@asCamera@@QAEXMMMM@Z 004A2650
 0001:000A1790       ?SetLighting@asCamera@@QAEXH@Z 004A2790
 0001:000A17E0       ?SetWorld@asCamera@@QAEXAAVMatrix34@@@Z 004A27E0
 0001:000A17F0       ?GetNearClip@asCamera@@QAEXPAVVector3@@AAVMatrix34@@W4kNearClip@1@@Z 004A27F0
 0001:000A1D60       ?DrawBegin@asCamera@@QAEXXZ 004A2D60
 0001:000A1D70       ?DrawEnd@asCamera@@QAEXXZ  004A2D70
 0001:000A1DD0       ?SetViewport@asCamera@@QAEXMMMMH@Z 004A2DD0
 0001:000A1E50       ?SetView@asCamera@@QAEXMMMM@Z 004A2E50
 0001:000A1EC0       ?SetFog@asCamera@@QAEXMMMM@Z 004A2EC0
 0001:000A1EF0       ?SetUnderlay@asCamera@@QAEXPAD@Z 004A2EF0
 0001:000A1F30       ?SetUnderlayCB@asCamera@@QAEXPAVgfxBitmap@@PAVdatCallback@@@Z 004A2F30
 0001:000A1F60       ?GetViewportWidth@asCamera@@QAEHXZ 004A2F60
 0001:000A1F70       ?GetViewportHeight@asCamera@@QAEHXZ 004A2F70
 0001:000A1F80       ?FadeOut@asCamera@@QAEXMH@Z 004A2F80
 0001:000A1FE0       ?FadeIn@asCamera@@QAEXMH@Z 004A2FE0
 0001:000A2040       ?SphereVisible@asCamera@@QAEMABVVector3@@MPAM@Z 004A3040
 0001:000A2210       ?SetAmbient@asCamera@@QAEXABVVector3@@@Z 004A3210
 0001:000A2220       ?SetMonochrome@asCamera@@QAEXH@Z 004A3220
 0001:000A2230       ?Regen@asCamera@@AAEXXZ    004A3230
 0001:000A2240       ??_GasUnderlay@@UAEPAXI@Z  004A3240
 0001:000A2270       ??_EasCamera@@UAEPAXI@Z    004A3270
 0001:000A22F0       ??0asLinearCS@@QAE@XZ      004A32F0
 0001:000A2370       ?Update@asLinearCS@@UAEXXZ 004A3370
 0001:000A2400       ?Cull@asLinearCS@@UAEXXZ   004A3400
 0001:000A2410       ??_EasLinearCS@@UAEPAXI@Z  004A3410
 0001:000A2440       ?Cull@asCullable@@UAEXXZ   004A3440
 0001:000A2450       ??0eqEventQ@@QAE@H@Z       004A3450
 0001:000A24D0       ??1eqEventQ@@UAE@XZ        004A34D0
 0001:000A2540       ?Mouse@eqEventQ@@UAEXPAXHHHHHHH@Z 004A3540
 0001:000A25D0       ?Keyboard@eqEventQ@@UAEXPAXHHHH@Z 004A35D0
 0001:000A2630       ?Queue@eqEventQ@@AAEXAATeqEvent@@@Z 004A3630
 0001:000A2670       ?Pop@eqEventQ@@QAEHPATeqEvent@@@Z 004A3670
 0001:000A26E0       ??_EeqEventQ@@UAEPAXI@Z    004A36E0
 0001:000A2710       ?nodeGetBitmap@@YAPAVgfxBitmap@@PBD_N1@Z 004A3710
 0001:000A2750       ?logf_fast@@YAMM@Z         004A3750
 0001:000A27D0       ?Seed@Random@@QAEXH@Z      004A37D0
 0001:000A2880       ?Number@Random@@QAEMXZ     004A3880
 0001:000A28E0       ?Normal@Random@@QAEMMM@Z   004A38E0
 0001:000A2930       ?AddStaticMaterial@modShader@@SAPAUgfxMaterial@@ABU2@@Z 004A3930
 0001:000A2B20       ?KillAll@modShader@@SAXXZ  004A3B20
 0001:000A2B30       ?Load@modShader@@QAEXPAVStream@@_N@Z 004A3B30
 0001:000A2F60       ?LoadShaderSet@modShader@@SAPAPAV1@PAVStream@@PAH1_N@Z 004A3F60
 0001:000A30C0       ?PreLoad@modShader@@QAEXXZ 004A40C0
 0001:000A31B0       ?BeginEnvMap@modShader@@SAXPAVgfxTexture@@ABVMatrix34@@@Z 004A41B0
 0001:000A3420       ?EndEnvMap@modShader@@SAXXZ 004A4420
 0001:000A3550       ?Draw@modStatic@@QBEXPAVmodShader@@@Z 004A4550
 0001:000A36D0       ??0modPackage@@QAE@XZ      004A46D0
 0001:000A36F0       ??1modPackage@@QAE@XZ      004A46F0
 0001:000A3700       ?Open@modPackage@@QAE_NPBD0@Z 004A4700
 0001:000A3790       ?Close@modPackage@@QAEXXZ  004A4790
 0001:000A37B0       ?OpenFile@modPackage@@QAEPAVStream@@PBD@Z 004A47B0
 0001:000A3800       ?CloseFile@modPackage@@QAEXXZ 004A4800
 0001:000A3820       ?NextItem@modPackage@@AAEXXZ 004A4820
 0001:000A38D0       ?SkipTo@modPackage@@QAEXPBD@Z 004A48D0
 0001:000A3970       ?Skip@modPackage@@QAEXXZ   004A4970
 0001:000A39A0       ?Optimize@modStatic@@QAEXPAVmodShader@@@Z 004A49A0
 0001:000A3A20       ?DrawNoAlpha@modStatic@@QBEXPAVmodShader@@@Z 004A4A20
 0001:000A3A50       ?DrawEnvMapped@modStatic@@QBEXPAVmodShader@@PAVgfxTexture@@M@Z 004A4A50
 0001:000A3B30       ?DrawOrthoMapped@modStatic@@QBEXPAVmodShader@@PAVgfxTexture@@MI@Z 004A4B30
 0001:000A3C50       ?DrawWithTexGenAndTexMatrix@modStatic@@QBEXXZ 004A4C50
 0001:000A3CA0       ?Clone@modStatic@@QBEPAV1@XZ 004A4CA0
 0001:000A3D60       ?CopyFrom@modStatic@@QAEXPBV1@@Z 004A4D60
 0001:000A3DB0       ?GetAdjunctCount@modStatic@@QBEHXZ 004A4DB0
 0001:000A3DE0       ?GetTriCount@modStatic@@QBEHXZ 004A4DE0
 0001:000A3E30       ?modGetStatic@@YAPAVmodStatic@@PBDP6AXAAVVector3@@PAX@Z2_N@Z 004A4E30
 0001:000A4280       ?GetPivot@@YA_NAAVMatrix34@@PBD1@Z 004A5280
 0001:000A42E0       ?modGetStatic@@YAPAVmodStatic@@PBDAAM_N@Z 004A52E0
 0001:000A4350       j_nullsub_237              004A5350
 0001:000A4360       nullsub_237                004A5360
 0001:000A4370       ?vgl_VERTEX_VCT1@@YAXMMM@Z 004A5370
 0001:000A4400       ?vgl_VERTEX_VNT1@@YAXMMM@Z 004A5400
 0001:000A4490       ?vglSetFormat@@YAXIIII@Z   004A5490
 0001:000A44E0       j_nullsub_238              004A54E0
 0001:000A44F0       nullsub_238                004A54F0
 0001:000A4500       ?vglBegin@@YAXW4gfxDrawMode@@H@Z 004A5500
 0001:000A4A90       ?vglEnd@@YAXXZ             004A5A90
 0001:000A4B10       ?vglBeginBatch@@YAXXZ      004A5B10
 0001:000A4B80       ?vglEndBatch@@YAXXZ        004A5B80
 0001:000A4BA0       ?vglBindTexture@@YAXPAVgfxTexture@@@Z 004A5BA0
 0001:000A4C50       ?vglDrawLabel@@YAXABVVector3@@PBD@Z 004A5C50
 0001:000A4D00       ?vglDrawLabelf@@YAXABVVector3@@PBDZZ 004A5D00
 0001:000A4D30       ?vglSetCloudMap@@YAXPBD@Z  004A5D30
 0001:000A4DE0       ?vglSetOffset@@YAXMMM@Z    004A5DE0
 0001:000A4F00       ?rglEnableDisable@@YA_NW4rglToken@@_N@Z 004A5F00
 0001:000A5000       ?rglIsEnabled@@YA_NW4rglToken@@@Z 004A6000
 0001:000A5060       ?rglWorldMatrix@@YAXABVMatrix34@@@Z 004A6060
 0001:000A5110       ?rglWorldIdentity@@YAXXZ   004A6110
 0001:000A5140       ?rglCard@@YAXABVVector3@@@Z 004A6140
 0001:000A5160       ?rglBindTexture2@@YAXPBVgfxTexture@@@Z 004A6160
 0001:000A5190       ?tglDrawParticle@@YAXABVVector3@@MABVVector4@@@Z 004A6190
 0001:000A5550       ?tglDrawRotatedParticle@@YAXABVVector3@@MMABVVector4@@@Z 004A6550
 0001:000A5970       ?rglOpenPipe@@YAXHH_N@Z    004A6970
 0001:000A5A00       ?rglClosePipe@@YAXXZ       004A6A00
 0001:000A5A10       ?rglBeginFrame@@YAXI@Z     004A6A10
 0001:000A5A40       ?rglEndFrame@@YAXXZ        004A6A40
 0001:000A5A50       ?rglCameraMatrix@@YAXABVMatrix34@@@Z 004A6A50
 0001:000A5A70       ?rglAlive@@YAHXZ           004A6A70
 0001:000A5AB0       ?rglDrawBox@@YAXABVVector3@@ABVMatrix34@@@Z 004A6AB0
 0001:000A5D30       ?rglDrawSolidBox@@YAXABVVector3@@ABVMatrix34@@0@Z 004A6D30
 0001:000A6050       ?rglDrawAxis@@YAXMABVMatrix34@@@Z 004A7050
 0001:000A60F0       ?rglDrawSphere@@YAXMH@Z    004A70F0
 0001:000A6200       ?rglDrawSphere@@YAXMABVMatrix34@@H@Z 004A7200
 0001:000A6230       ?rglDrawEllipsoid@@YAXABVVector3@@ABVMatrix34@@H@Z 004A7230
 0001:000A6310       ?rglDrawParticle@@YAXABVVector3@@MABVVector4@@@Z 004A7310
 0001:000A6540       ?rglResetDrawTexture@@YAXXZ 004A7540
 0001:000A6560       ?rglDrawTexture@@YAXPAVgfxTexture@@@Z 004A7560
 0001:000A6730       j_nullsub_330              004A7730
 0001:000A6740       nullsub_330                004A7740
 0001:000A6750       ?rglPushMatrix@@YAXXZ      004A7750
 0001:000A6790       ?rglPopMatrix@@YAXXZ       004A7790
 0001:000A67D0       ?rglMultMatrix@@YAXAAVMatrix34@@@Z 004A77D0
 0001:000A6880       ?mkfrgba@@YAIMMMM@Z        004A7880
 0001:000A68E0       ??0datParser@@QAE@PBD@Z    004A78E0
 0001:000A6920       ??1datParser@@QAE@XZ       004A7920
 0001:000A6940       ??1datParserRecord@@QAE@XZ 004A7940
 0001:000A6980       ?AddParser@datParser@@QAEPAV1@PBDPAVdatCallback@@@Z 004A7980
 0001:000A69D0       ?AddRecord@datParser@@AAEAAVdatParserRecord@@HPBDPAXGPAVdatCallback@@@Z 004A79D0
 0001:000A6A90       ?Load@datParser@@QAE_NPAVStream@@PBD@Z 004A7A90
 0001:000A6AF0       ?Load@datParser@@QAE_NPBD0@Z 004A7AF0
 0001:000A6B40       ?Load@datParser@@QAE_NPBD00@Z 004A7B40
 0001:000A6B90       ?Save@datParser@@QAE_NPAVStream@@PBD_N@Z 004A7B90
 0001:000A6C00       ?Save@datParser@@QAE_NPBD0_N@Z 004A7C00
 0001:000A6C50       ?Save@datParser@@QAE_NPBD00_N@Z 004A7C50
 0001:000A6CA0       ?Read@datParser@@AAEXAAVdatBaseTokenizer@@@Z 004A7CA0
 0001:000A6F70       ?Write@datParser@@AAEXAAVdatBaseTokenizer@@@Z 004A7F70
 0001:000A71D0       ?Indent@datParser@@AAEXAAVdatBaseTokenizer@@@Z 004A81D0
 0001:000A7200       ?ParseCSVLine@@YAHPBDHHZZ  004A8200
 0001:000A7270       ?Kill@parCsvFile@@QAEXXZ   004A8270
 0001:000A72F0       ?Load@parCsvFile@@QAE_NPBD0_NH@Z 004A82F0
 0001:000A7600       ?Print@parCsvFile@@QBEXXZ  004A8600
 0001:000A76A0       ?GetInt@parCsvFile@@QBEHHH@Z 004A86A0
 0001:000A76D0       ?GetFloat@parCsvFile@@QBEMHH@Z 004A86D0
 0001:000A7700       ?GetColumn@parCsvFile@@QBEHPBD@Z 004A8700
 0001:000A7760       ?GetRow@parCsvFile@@QBEHHPBD@Z 004A8760
 0001:000A77D0       ?GetRowSafe@parCsvFile@@QBEHHPBD@Z 004A87D0
 0001:000A7830       ?SetString@parCsvFile@@QAEXHHPBD@Z 004A8830
 0001:000A7870       ?SetInt@parCsvFile@@QAEXHHH@Z 004A8870
 0001:000A78B0       ?SetFloat@parCsvFile@@QAEXHHM@Z 004A88B0
 0001:000A78F0       ?gfxWindowProc@gfxPipeline@@CGJPAUHWND__@@IIJ@Z 004A88F0
 0001:000A7A80       gfxPipeline_SetLostCallback 004A8A80
 0001:000A7A90       ?gfxWindowCreate@gfxPipeline@@CAXPBD@Z 004A8A90
 0001:000A7CA0       ?SetWindow@gfxPipeline@@SAX_NHH@Z 004A8CA0
 0001:000A7CE0       ?SetRes@gfxPipeline@@SAXHHHH_N@Z 004A8CE0
 0001:000A80B0       ?CreateViewport@gfxPipeline@@SAPAVgfxViewport@@XZ 004A90B0
 0001:000A8110       ?Manage@gfxPipeline@@SAXXZ 004A9110
 0001:000A8180       ?SetTitle@gfxPipeline@@SAXPBD@Z 004A9180
 0001:000A81A0       ?gfxEnumZ@gfxPipeline@@CGJPAU_DDPIXELFORMAT@@PAX@Z 004A91A0
 0001:000A81F0       ?gfxEnumTexs@gfxPipeline@@CGJPAU_DDPIXELFORMAT@@PAX@Z 004A91F0
 0001:000A8270       ?MultiMonCallback@@YGHPAU_GUID@@PAD1PAXPAUHMONITOR__@@@Z 004A9270
 0001:000A82B0       ?SafeBeginGfx@gfxPipeline@@SAXXZ 004A92B0
 0001:000A8350       ?BeginGfx@gfxPipeline@@SA_NXZ 004A9350
 0001:000A8370       ?BeginGfx2D@gfxPipeline@@SA_NXZ 004A9370
 0001:000A85A0       ?DDEnumProc@@YGHPAU_GUID@@PADPADPAX@Z 004A95A0
 0001:000A8640       ?EnumDDAdapters@gfxPipeline@@SAXHP6GHPAU_GUID@@PADPADPAX@Z3@Z 004A9640
 0001:000A86C0       ?BeginGfx3D@gfxPipeline@@SA_NXZ 004A96C0
 0001:000A9130       ?BeginFrame@gfxPipeline@@SAXXZ 004AA130
 0001:000A9270       ?BeginScene@gfxPipeline@@SAXXZ 004AA270
 0001:000A92B0       ?EndScene@gfxPipeline@@SAXXZ 004AA2B0
 0001:000A9330       ?EndFrame@gfxPipeline@@SAXXZ 004AA330
 0001:000A9590       ?BeginOffscreen@gfxPipeline@@SAXXZ 004AA590
 0001:000A95A0       ?EndOffscreen@gfxPipeline@@SAXXZ 004AA5A0
 0001:000A95B0       ?FlushFrame@gfxPipeline@@SAXXZ 004AA5B0
 0001:000A95C0       ?RefreshFrame@gfxPipeline@@SAXXZ 004AA5C0
 0001:000A9750       ?EndGfx@gfxPipeline@@SAXXZ 004AA750
 0001:000A9760       ?EndGfx3D@gfxPipeline@@SAXXZ 004AA760
 0001:000A99E0       ?EnumAllSurfCallback@@YGJPAUIDirectDrawSurface7@@PAUDDSURFACEDESC2@@PAX@Z 004AA9E0
 0001:000A9A10       ?EndGfx2D@gfxPipeline@@SAXXZ 004AAA10
 0001:000A9AF0       ?Draw@gfxPipeline@@SAXW4gfxDrawMode@@IHABUgfxStridedData@@@Z 004AAAF0
 0001:000A9B50       ?Draw@gfxPipeline@@SAXW4gfxDrawMode@@IHPAX@Z 004AAB50
 0001:000A9BB0       ?DrawIdx@gfxPipeline@@SAXW4gfxDrawMode@@IHABUgfxStridedData@@IPAG@Z 004AABB0
 0001:000A9C20       ?DrawIdx@gfxPipeline@@SAXW4gfxDrawMode@@IHPAXIPAG@Z 004AAC20
 0001:000A9C90       ?CreateReadbackImage@gfxPipeline@@SAPAVgfxImage@@XZ 004AAC90
 0001:000A9CC0       ?Readback@gfxPipeline@@SAXPAVgfxImage@@HHHH@Z 004AACC0
 0001:000A9DC0       ?Clear@gfxPipeline@@SAXHIMI@Z 004AADC0
 0001:000A9EC0       ?Blit2D@gfxPipeline@@SAXABVVector4@@PAGPAEHI@Z 004AAEC0
 0001:000AA1C0       ?BlitText@gfxPipeline@@SAXABVVector4@@PAGPAEHI@Z 004AB1C0
 0001:000AA4C0       ?CopyBitmap@gfxPipeline@@SAXHHPAVgfxBitmap@@HHHH_N@Z 004AB4C0
 0001:000AA520       ?ClearRect@gfxPipeline@@SAXHHHHI@Z 004AB520
 0001:000AA570       ?SetRenderTarget@gfxPipeline@@SA_NPBVgfxTexture@@@Z 004AB570
 0001:000AA660       ??0gfxVertexBuffer@@QAE@PAUIDirect3DVertexBuffer7@@@Z 004AB660
 0001:000AA690       ??0gfxVertexBuffer@@QAE@II@Z 004AB690
 0001:000AA6E0       ??1gfxVertexBuffer@@QAE@XZ 004AB6E0
 0001:000AA730       ?RestoreAll@gfxVertexBuffer@@SAXXZ 004AB730
 0001:000AA800       ?KillAll@gfxVertexBuffer@@SAXXZ 004AB800
 0001:000AA830       ?CreateVertexBuffer@gfxPipeline@@SAPAUgfxVertexBuffer@@II_N@Z 004AB830
 0001:000AA950       ?DestroyVertexBuffer@gfxPipeline@@SAXPAUgfxVertexBuffer@@@Z 004AB950
 0001:000AA970       ?DoLockVertexBuffer@gfxPipeline@@SAPAXPAUgfxVertexBuffer@@I@Z 004AB970
 0001:000AA9C0       ?DoUnlockVertexBuffer@gfxPipeline@@CAXPAUgfxVertexBuffer@@@Z 004AB9C0
 0001:000AAA00       ?OptimizeVertexBuffer@gfxPipeline@@CAXPAUgfxVertexBuffer@@@Z 004ABA00
 0001:000AAA50       ?DrawVB@gfxPipeline@@SAXW4gfxDrawMode@@IIPAUgfxVertexBuffer@@@Z 004ABA50
 0001:000AAB40       ?DrawIdxVB@gfxPipeline@@SAXW4gfxDrawMode@@IIPAUgfxVertexBuffer@@IPAG@Z 004ABB40
 0001:000AAC50       ?PersistVertexBuffer@gfxPipeline@@SAXPAUgfxVertexBuffer@@@Z 004ABC50
 0001:000AAD00       ?gfxSaveSettings@@YA_NXZ   004ABD00
 0001:000AAD70       ?gfxLoadSettings@@YA_NXZ   004ABD70
 0001:000AAE00       ?gfxAutoDetect@@YA_NPA_N@Z 004ABE00
 0001:000AB030       AutoDetectCallback         004AC030
 0001:000AB3D0       DeviceCallback             004AC3D0
 0001:000AB540       gfxLoadVideoDatabse        004AC540
 0001:000AB6F0       ResCallback                004AC6F0
 0001:000AB820       ?gfxSafeMode@@YAXXZ        004AC820
 0001:000AB870       ?gfxApplySettings@@YAXXZ   004AC870
 0001:000AB8B0       ?gfxDebugf@@YAXHPBDZZ      004AC8B0
 0001:000AB8C0       ?ilog2@@YAHH@Z             004AC8C0
 0001:000AB8E0       ??0gfxTexture@@AAE@XZ      004AC8E0
 0001:000AB910       ??1gfxTexture@@AAE@XZ      004AC910
 0001:000AB9B0       ?KillAll@gfxTexture@@SAXXZ 004AC9B0
 0001:000AB9F0       ?SetLODs@gfxTexture@@SAXXZ 004AC9F0
 0001:000ABA10       ?MarkFirstUse@gfxTexture@@AAEXXZ 004ACA10
 0001:000ABA30       ?MarkHigherUse@gfxTexture@@AAEXXZ 004ACA30
 0001:000ABA90       ?Create@gfxTexture@@SAPAV1@HHW4gfxImageFormat@gfxImage@@0H@Z 004ACA90
 0001:000AC090       ?Create@gfxTexture@@SAPAV1@PAVgfxImage@@_N@Z 004AD090
 0001:000AC100       ?Load@gfxTexture@@QAEXPAVgfxImage@@@Z 004AD100
 0001:000AC720       ?CreateFromTexture@gfxTexture@@QAEPAV1@PBDHHHH@Z 004AD720
 0001:000AC730       ?SetDefaultMIPMapEnv@gfxTexture@@SAXIM@Z 004AD730
 0001:000AC740       ?GetDefaultMIPMapEnv@gfxTexture@@SAXAAIAAM@Z 004AD740
 0001:000AC750       ?SetMIPMapEnv@gfxTexture@@QAEXIM@Z 004AD750
 0001:000AC760       ?GetMIPMapEnv@gfxTexture@@QAEXAAIAAM@Z 004AD760
 0001:000AC770       ?CalcMIPMapEnv@gfxTexture@@SAXHHAAG0@Z 004AD770
 0001:000AC780       ?EnableTrilinearMipMaping@gfxTexture@@SAX_N@Z 004AD780
 0001:000AC790       ?PreLoad@gfxTexture@@QAEXXZ 004AD790
 0001:000AC7E0       ?MakeResident@gfxTexture@@QAEXXZ 004AD7E0
 0001:000AC820       ?MakeUnresident@gfxTexture@@QAEXXZ 004AD820
 0001:000AC830       ?MakeAllUnresident@gfxTexture@@SAXXZ 004AD830
 0001:000AC850       ?EnableCache@gfxTexture@@SAX_N@Z 004AD850
 0001:000AC880       ?InitCache@gfxTexture@@SAXXZ 004AD880
 0001:000ACAD0       ??0gfxTextureCacheEntry@@AAE@PAUIDirectDrawSurface7@@PAV0@@Z 004ADAD0
 0001:000ACB00       ?Evict@gfxTextureCacheEntry@@QAEXXZ 004ADB00
 0001:000ACB30       ?Lease@gfxTextureCacheEntry@@QAEXPAVgfxTexture@@@Z 004ADB30
 0001:000ACB70       ??1gfxTextureCacheEntry@@QAE@XZ 004ADB70
 0001:000ACB90       ??0gfxTextureCachePool@@QAE@PAV0@@Z 004ADB90
 0001:000ACBB0       ??1gfxTextureCachePool@@QAE@XZ 004ADBB0
 0001:000ACBE0       ?IsCompatibleWith@gfxTextureCachePool@@QAE_NPAVgfxTexture@@@Z 004ADBE0
 0001:000ACC90       ?Init@gfxTextureCachePool@@QAEXPAVgfxTexture@@@Z 004ADC90
 0001:000ACCF0       ?FindEntry@gfxTextureCachePool@@QAEXPAVgfxTexture@@@Z 004ADCF0
 0001:000ACD30       ?AddSlot@gfxTextureCachePool@@QAE_NXZ 004ADD30
 0001:000ACE30       ?ShutdownCache@gfxTexture@@SAXXZ 004ADE30
 0001:000ACED0       ?FindEntry@gfxTexture@@QAEPAUIDirectDrawSurface7@@XZ 004ADED0
 0001:000ACF00       ?CreateRenderTarget@gfxTexture@@SAPAV1@HHII@Z 004ADF00
 0001:000ACFD0       ?CreateCubeMap@gfxTexture@@SAPAV1@HHQAPAV1@@Z 004ADFD0
 0001:000AD1A0       ?SetTexEnv@gfxTexture@@QAEXI@Z 004AE1A0
 0001:000AD1B0       ?SetName@gfxTexture@@QAEXPBD@Z 004AE1B0
 0001:000AD1E0       ?Blit@gfxTexture@@QAEXHHPAV1@HHHH@Z 004AE1E0
 0001:000AD250       ?Clone@gfxTexture@@QAEPAV1@XZ 004AE250
 0001:000AD370       ??0gfxBitmap@@AAE@HH@Z     004AE370
 0001:000AD3B0       ?SetName@gfxBitmap@@QAEXPBD@Z 004AE3B0
 0001:000AD3E0       ??1gfxBitmap@@AAE@XZ       004AE3E0
 0001:000AD440       ?KillAll@gfxBitmap@@SAXXZ  004AE440
 0001:000AD480       ?Create@gfxBitmap@@SAPAV1@PAVgfxImage@@_N@Z 004AE480
 0001:000AD4D0       ?Create@gfxBitmap@@SAPAV1@HH_N@Z 004AE4D0
 0001:000AD580       ?Clear@gfxBitmap@@QAEXI@Z  004AE580
 0001:000AD5C0       ?Load@gfxBitmap@@QAE_NPAVgfxImage@@@Z 004AE5C0
 0001:000AD8C0       ??1gfxImage@@AAE@XZ        004AE8C0
 0001:000AD920       ?Create@gfxImage@@SAPAV1@HHW4gfxImageFormat@1@0H@Z 004AE920
 0001:000ADA30       ?GetFont@gfxImage@@SAPAV1@AAH0@Z 004AEA30
 0001:000ADBA0       ?Halve@gfxImage@@QAEXXZ    004AEBA0
 0001:000ADC90       ?GenerateMipmaps@gfxImage@@QAEXXZ 004AEC90
 0001:000ADDC0       ?Scale@gfxImage@@QAEXHH@Z  004AEDC0
 0001:000AE1A0       ?Reformat@gfxImage@@QAEXW4gfxImageFormat@1@0@Z 004AF1A0
 0001:000AE2D0       ?GetDominantColor@gfxImage@@QBEIXZ 004AF2D0
 0001:000AE470       ?Flip@gfxImage@@QAEXXZ     004AF470
 0001:000AE4E0       ?gfxSaveTargaImage@@YA_NPBDPAVgfxImage@@@Z 004AF4E0
 0001:000AE8F0       ?gfxOpenRawBmpStream@@YAPAVStream@@PBDHH@Z 004AF8F0
 0001:000AEA60       ?gfxWriteRawBmpStream@@YAXPAVStream@@PAXH@Z 004AFA60
 0001:000AEA90       ?gfxCloseRawBmpStream@@YAXPAVStream@@@Z 004AFA90
 0001:000AEAB0       ?gfxSaveBmpImage@@YA_NPBDPAVgfxImage@@@Z 004AFAB0
 0001:000AEDE0       ?gfxLoadTargaImage@@YAPAVgfxImage@@PBD_N@Z 004AFDE0
 0001:000AEFC0       ?gfxLoadTexImage@@YAPAVgfxImage@@PBD_N@Z 004AFFC0
 0001:000AF075       LoadTEX_P8                 004B0075
 0001:000AF259       LoadTEX_PA8                004B0259
 0001:000AF43F       LoadTEX_P8A8               004B043F
 0001:000AF52D       LoadTEX_P4                 004B052D
 0001:000AF770       LoadTEX_PA4                004B0770
 0001:000AF9C6       LoadTEX_RGB888             004B09C6
 0001:000AFA2E       LoadTEX_RGBA8888           004B0A2E
 0001:000AFA8F       LoadTEX_ARGB1555           004B0A8F
 0001:000AFAF0       LoadTEX_Invalid            004B0AF0
 0001:000AFBB0       texImage_CheckRes          004B0BB0
 0001:000AFBD0       ?gfxLoadRawImage@@YAPAVgfxImage@@PBD_N@Z 004B0BD0
 0001:000AFD50       ?gfxLoadBmpImage@@YAPAVgfxImage@@PBD_N@Z 004B0D50
 0001:000B0040       ?gfxLoadImageAll@@YAPAVgfxImage@@PBD_N@Z 004B1040
 0001:000B0090       ?gfxDrawFont@@YAXABVVector4@@PBDABUgfxFontInfo@@@Z 004B1090
 0001:000B01C0       ?gfxDrawFont@@YAXHHPBDABUgfxFontInfo@@@Z 004B11C0
 0001:000B0200       ?gfxCreateFont@@YAXXZ      004B1200
 0001:000B0260       ?gfxFontGetWidth@@YAHXZ    004B1260
 0001:000B0270       ?gfxFontGetHeight@@YAHXZ   004B1270
 0001:000B0280       ?gfxDrawFont@@YAXHHPBD@Z   004B1280
 0001:000B02D0       ?gfxReleaseFont@@YAXXZ     004B12D0
 0001:000B0330       ?gfxComputeFontExtents@@YAXAAH0PBDABUgfxFontInfo@@@Z 004B1330
 0001:000B03A0       ??0gfxViewport@@AAE@XZ     004B13A0
 0001:000B04A0       ?ResetWindow@gfxViewport@@QAEXXZ 004B14A0
 0001:000B04C0       ?SetWindow@gfxViewport@@QAEXHHHHMM@Z 004B14C0
 0001:000B0640       ?Perspective@gfxViewport@@QAEXMMMM@Z 004B1640
 0001:000B0800       ?Ortho@gfxViewport@@QAEXMMMMMM@Z 004B1800
 0001:000B08D0       ?DoFlush@gfxViewport@@AAEXXZ 004B18D0
 0001:000B0960       ?Project@gfxViewport@@QAEXAAVVector4@@0@Z 004B1960
 0001:000B09B0       ?ComputeVFOV@gfxViewport@@QBEMM@Z 004B19B0
 0001:000B09D0       ?IsSphereVisible@gfxViewport@@QBE?AW4gfxCullStatus@@MMMMPAM@Z 004B19D0
 0001:000B0BB0       ?Reset@gfxMaterial@@QAEXXZ 004B1BB0
 0001:000B0C00       ?Reset@gfxLight@@QAEXXZ    004B1C00
 0001:000B0C70       ?Init@gfxRenderState@@AAEXXZ 004B1C70
 0001:000B0DA0       ?Default@gfxRenderState@@QAEXXZ 004B1DA0
 0001:000B1150       ?LerpRGBA@gfxRenderState@@QAEIIIM@Z 004B2150
 0001:000B1220       ?LightEnable@gfxRenderState@@QAEXH_N@Z 004B2220
 0001:000B1270       ?SetLight@gfxRenderState@@QAEXHPBUgfxLight@@@Z 004B2270
 0001:000B12D0       ?DisableAllLights@gfxRenderState@@QAEXXZ 004B22D0
 0001:000B1300       ?GetLight@gfxRenderState@@QAEXHPAUgfxLight@@@Z 004B2300
 0001:000B1330       ?SetTexSource@gfxRenderState@@QAEXHH@Z 004B2330
 0001:000B1350       ?SetBlendSet@gfxRenderState@@QAEXW4gfxBlendSet@@E@Z 004B2350
 0001:000B15F0       ?SetTexTransform@gfxRenderState@@QAEXHH_N@Z 004B25F0
 0001:000B1620       ?SetTexMipmapBias@gfxRenderState@@QAEXHM@Z 004B2620
 0001:000B1640       ?SetTexMatrix@gfxRenderState@@QAEXHABVMatrix44@@@Z 004B2640
 0001:000B1660       ?SetBlendMatrix@gfxRenderState@@QAEXHABVMatrix44@@@Z 004B2660
 0001:000B1680       ?SetCard@gfxRenderState@@SAXABVVector3@@@Z 004B2680
 0001:000B1750       ?SetCard@gfxRenderState@@SAXABVVector4@@@Z 004B2750
 0001:000B1820       ?Regenerate@gfxRenderState@@CAXXZ 004B2820
 0001:000B1930       j_nullsub_240              004B2930
 0001:000B1940       nullsub_240                004B2940
 0001:000B1950       j_nullsub_241              004B2950
 0001:000B1960       nullsub_241                004B2960
 0001:000B1970       ?SetCamera@gfxRenderState@@SAXABVMatrix34@@@Z 004B2970
 0001:000B1A20       ?SetCamera@gfxRenderState@@SAXABVMatrix44@@@Z 004B2A20
 0001:000B1A80       ?SetCameraFull@gfxRenderState@@SAXABVMatrix34@@@Z 004B2A80
 0001:000B1B50       ?DoPerspective@gfxViewport@@SAXPAV1@@Z 004B2B50
 0001:000B1CE0       ?StartFade@gfxPipeline@@SAXIM@Z 004B2CE0
 0001:000B1D20       ?SetFade@gfxPipeline@@SAXI@Z 004B2D20
 0001:000B1D40       ?CopyClippedBitmap@gfxPipeline@@SA_NHHPAVgfxBitmap@@HHHH_N@Z 004B2D40
 0001:000B1D80       ?CopyClippedBitmap@gfxPipeline@@SA_NHHPAVgfxBitmap@@HHHHHHHH_N@Z 004B2D80
 0001:000B1E30       ?gfxFVFSize@@YAII@Z        004B2E30
 0001:000B1E80       ?gfxFVFOffset@@YAIII@Z     004B2E80
 0001:000B1EE0       ?ForceSetViewport@gfxPipeline@@CAXPAVgfxViewport@@@Z 004B2EE0
 0001:000B2020       ?gfxSetTexReduceSize@@YAHH@Z 004B3020
 0001:000B2040       ?gfxDefaultPrepareImage@@YAPAVgfxImage@@PAV1@PBD_N@Z 004B3040
 0001:000B20A0       ?gfxAnnotateImage@@YAXPAVgfxImage@@PBD@Z 004B30A0
 0001:000B20F0       ?gfxGetTexture@@YAPAVgfxTexture@@PBD_N@Z 004B30F0
 0001:000B21D0       ?gfxFreeTexture@@YAXPAVgfxTexture@@@Z 004B31D0
 0001:000B2210       ?gfxGetBitmap@@YAPAVgfxBitmap@@PBD_N1@Z 004B3210
 0001:000B22D0       ?gfxFreeBitmap@@YAXPAVgfxBitmap@@@Z 004B32D0
 0001:000B2310       ?ForceCPV@gfxPacket@@SAXI@Z 004B3310
 0001:000B2320       ?BeginRef@gfxPacket@@SAXXZ 004B3320
 0001:000B2330       ?BeginProp@gfxPacket@@SAXXZ 004B3330
 0001:000B2340       ?Draw@gfxPacket@@QBEXI@Z   004B3340
 0001:000B24A0       j_nullsub_242              004B34A0
 0001:000B24B0       nullsub_242                004B34B0
 0001:000B24C0       j_nullsub_243              004B34C0
 0001:000B24D0       nullsub_243                004B34D0
 0001:000B24E0       ?Draw@gfxPacket@@QBEXPBVMatrix44@@I@Z 004B34E0
 0001:000B28A0       ??0gfxPacket@@QAE@IIIPBEIPBGIPAVgfxReskin@@IE00_N@Z 004B38A0
 0001:000B2BE0       ?GetSkinnedVert@gfxPacket@@QBEXPBVMatrix34@@AAVVector3@@H@Z 004B3BE0
 0001:000B2C10       ?GetPosition@gfxPacket@@QBEXAAVVector3@@H@Z 004B3C10
 0001:000B2C70       ?SetPosition@gfxPacket@@QBEXABVVector3@@H@Z 004B3C70
 0001:000B2CF0       ?GetNormal@gfxPacket@@QBEXAAVVector3@@H@Z 004B3CF0
 0001:000B2D90       ?SetNormal@gfxPacket@@QBEXABVVector3@@H@Z 004B3D90
 0001:000B2E20       ?GetTexCoord@gfxPacket@@QBEXAAVVector2@@H@Z 004B3E20
 0001:000B2EC0       ?GetTri@gfxPacket@@QBEXQAHH@Z 004B3EC0
 0001:000B2F00       ?SetPacking@gfxPacket@@SAXMEEEME@Z 004B3F00
 0001:000B2F40       ?SetDefaultPacking@gfxPacket@@SAXXZ 004B3F40
 0001:000B2F60       ?AutoSetPacking@gfxPacket@@SAXIIPBE@Z 004B3F60
 0001:000B30F0       ?Clone@gfxPacket@@QBEPAV1@XZ 004B40F0
 0001:000B3170       ??0gfxPacket@@QAE@PBV0@@Z  004B4170
 0001:000B3260       ?CopyFrom@gfxPacket@@QAEXPBV1@@Z 004B4260
 0001:000B33E0       ?AllocateVertexBuffer@gfxPacket@@IAEXXZ 004B43E0
 0001:000B3570       ?ReserveVertexBuffer@gfxPacket@@SAXII@Z 004B4570
 0001:000B35D0       ?Persist@gfxPacket@@KAPAEPAUIDirect3DVertexBuffer7@@IPAXI@Z 004B45D0
 0001:000B3640       ?FreeAllVertexBuffers@gfxPacket@@SAXXZ 004B4640
 0001:000B3690       ?RestoreAllVertexBuffers@gfxPacket@@SAXXZ 004B4690
 0001:000B3720       ?DoLock@gfxPacket@@IAEXXZ  004B4720
 0001:000B3740       ?DoUnlock@gfxPacket@@IAEXXZ 004B4740
 0001:000B3760       ?OrthoMap@gfxPacket@@QAEXM@Z 004B4760
 0001:000B3860       ?MakeList@gfxPacket@@SAPAVgfxPacketList@@PAV1@@Z 004B4860
 0001:000B3870       ?DrawList@gfxPacket@@SAXPBVgfxPacketList@@@Z 004B4870
 0001:000B38E0       ?gfxGetTextureMovie@@YAPAVgfxTextureMovie@@AAPAVgfxTexture@@PBD_N@Z 004B48E0
 0001:000B3AF0       ?UpdateAll@gfxTextureMovie@@SAXM@Z 004B4AF0
 0001:000B3B20       ?KillAll@gfxTextureMovie@@SAXXZ 004B4B20
 0001:000B3B30       ?Update@gfxTextureMovie@@QAEXM@Z 004B4B30
 0001:000B3BA0       ??0gfxTextureMovie@@AAE@PBDH@Z 004B4BA0
 0001:000B3C00       ?AddClient@gfxTextureMovie@@QAEXPAPAVgfxTexture@@@Z 004B4C00
 0001:000B3C40       ?DoFlush@gfxRenderState@@QAEXPAVgfxRenderStateData@@@Z 004B4C40
 0001:000B43A0       ?BeginInternal@gfxPipeline@@SAXXZ 004B53A0
 0001:000B43C0       ?EndInternal@gfxPipeline@@SAXXZ 004B53C0
 0001:000B4420       j_nullsub_244              004B5420
 0001:000B4430       nullsub_244                004B5430
 0001:000B4440       ?Render@gfxPipeline@@SAXW4gfxDrawMode@@IIPAX@Z 004B5440
 0001:000B44B0       ?RenderIdx@gfxPipeline@@SAXW4gfxDrawMode@@IIPAXIPAG@Z 004B54B0
 0001:000B6430       nullsub_281                004B7430
 0001:000B6490       nullsub_21                 004B7490
 0001:000B88B0       ?GetInfo@AgeDevice@@UAGJKPAXK@Z 004B98B0
 0001:000B88D0       ?GetClipPlane@AgeDevice@@UAGJKPAM@Z 004B98D0
 0001:000B88F0       ?SetClipPlane@AgeDevice@@UAGJKPAM@Z 004B98F0
 0001:000B8910       ?GetLightEnable@AgeDevice@@UAGJKPAH@Z 004B9910
 0001:000B8930       ?LightEnable@AgeDevice@@UAGJKH@Z 004B9930
 0001:000B8950       ?Load@AgeDevice@@UAGJPAUIDirectDrawSurface7@@PAUtagPOINT@@0PAUtagRECT@@K@Z 004B9950
 0001:000B89B0       ?CreateStateBlock@AgeDevice@@UAGJW4_D3DSTATEBLOCKTYPE@@PAK@Z 004B99B0
 0001:000B89D0       ?DeleteStateBlock@AgeDevice@@UAGJK@Z 004B99D0
 0001:000B89F0       ?CaptureStateBlock@AgeDevice@@UAGJK@Z 004B99F0
 0001:000B8A10       ?ApplyStateBlock@AgeDevice@@UAGJK@Z 004B9A10
 0001:000B8A30       ?ValidateDevice@AgeDevice@@UAGJPAK@Z 004B9A30
 0001:000B8A50       ?SetTextureStageState@AgeDevice@@UAGJKW4_D3DTEXTURESTAGESTATETYPE@@K@Z 004B9A50
 0001:000B8C10       nullsub_22                 004B9C10
 0001:000B8C90       ?GetTextureStageState@AgeDevice@@UAGJKW4_D3DTEXTURESTAGESTATETYPE@@PAK@Z 004B9C90
 0001:000B8CB0       ?SetTexture@AgeDevice@@UAGJKPAUIDirectDrawSurface7@@@Z 004B9CB0
 0001:000B8D50       ?GetTexture@AgeDevice@@UAGJKPAPAUIDirectDrawSurface7@@@Z 004B9D50
 0001:000B8D70       ?ComputeSphereVisibility@AgeDevice@@UAGJPAU_D3DVECTOR@@PAMKKPAK@Z 004B9D70
 0001:000B8D90       ?DrawIndexedPrimitiveVB@AgeDevice@@UAGJW4_D3DPRIMITIVETYPE@@PAUIDirect3DVertexBuffer7@@KKPAGKK@Z 004B9D90
 0001:000B8DB0       ?DrawPrimitiveVB@AgeDevice@@UAGJW4_D3DPRIMITIVETYPE@@PAUIDirect3DVertexBuffer7@@KKK@Z 004B9DB0
 0001:000B8DD0       ?DrawIndexedPrimitiveStrided@AgeDevice@@UAGJW4_D3DPRIMITIVETYPE@@KPAU_D3DDRAWPRIMITIVESTRIDEDDATA@@KPAGKK@Z 004B9DD0
 0001:000B8DF0       ?DrawPrimitiveStrided@AgeDevice@@UAGJW4_D3DPRIMITIVETYPE@@KPAU_D3DDRAWPRIMITIVESTRIDEDDATA@@KK@Z 004B9DF0
 0001:000B8E10       ?GetClipStatus@AgeDevice@@UAGJPAU_D3DCLIPSTATUS@@@Z 004B9E10
 0001:000B8E30       ?SetClipStatus@AgeDevice@@UAGJPAU_D3DCLIPSTATUS@@@Z 004B9E30
 0001:000B8E50       ?DrawIndexedPrimitive@AgeDevice@@UAGJW4_D3DPRIMITIVETYPE@@KPAXKPAGKK@Z 004B9E50
 0001:000B8FF0       ?DrawPrimitive@AgeDevice@@UAGJW4_D3DPRIMITIVETYPE@@KPAXKK@Z 004B9FF0
 0001:000B90F0       ?PreLoad@AgeDevice@@UAGJPAUIDirectDrawSurface7@@@Z 004BA0F0
 0001:000B9110       ?EndStateBlock@AgeDevice@@UAGJPAK@Z 004BA110
 0001:000B9130       ?BeginStateBlock@AgeDevice@@UAGJXZ 004BA130
 0001:000B9150       ?GetRenderState@AgeDevice@@UAGJW4_D3DRENDERSTATETYPE@@PAK@Z 004BA150
 0001:000B9170       ?SetRenderState@AgeDevice@@UAGJW4_D3DRENDERSTATETYPE@@K@Z 004BA170
 0001:000B9190       ?GetLight@AgeDevice@@UAGJKPAU_D3DLIGHT7@@@Z 004BA190
 0001:000B91C0       ?SetLight@AgeDevice@@UAGJKPAU_D3DLIGHT7@@@Z 004BA1C0
 0001:000B91F0       ?GetMaterial@AgeDevice@@UAGJPAU_D3DMATERIAL7@@@Z 004BA1F0
 0001:000B9210       ?SetMaterial@AgeDevice@@UAGJPAU_D3DMATERIAL7@@@Z 004BA210
 0001:000B9230       ?GetViewport@AgeDevice@@UAGJPAU_D3DVIEWPORT7@@@Z 004BA230
 0001:000B9250       ?MultiplyTransform@AgeDevice@@UAGJW4_D3DTRANSFORMSTATETYPE@@PAU_D3DMATRIX@@@Z 004BA250
 0001:000B9270       ?SetViewport@AgeDevice@@UAGJPAU_D3DVIEWPORT7@@@Z 004BA270
 0001:000B9280       ?GetTransform@AgeDevice@@UAGJW4_D3DTRANSFORMSTATETYPE@@PAU_D3DMATRIX@@@Z 004BA280
 0001:000B92A0       ?SetTransform@AgeDevice@@UAGJW4_D3DTRANSFORMSTATETYPE@@PAU_D3DMATRIX@@@Z 004BA2A0
 0001:000B92B0       ?Clear@AgeDevice@@UAGJKPAU_D3DRECT@@KKMK@Z 004BA2B0
 0001:000B9370       ?GetRenderTarget@AgeDevice@@UAGJPAPAUIDirectDrawSurface7@@@Z 004BA370
 0001:000B9390       ?SetRenderTarget@AgeDevice@@UAGJPAUIDirectDrawSurface7@@K@Z 004BA390
 0001:000B9550       ?GetDirect3D@AgeDevice@@UAGJPAPAUIDirect3D7@@@Z 004BA550
 0001:000B9570       ?EndScene@AgeDevice@@UAGJXZ 004BA570
 0001:000B9590       ?BeginScene@AgeDevice@@UAGJXZ 004BA590
 0001:000B9600       ?EnumTextureFormats@AgeDevice@@UAGJP6GJPAU_DDPIXELFORMAT@@PAX@Z1@Z 004BA600
 0001:000B9630       ?GetCaps@AgeDevice@@UAGJPAU_D3DDeviceDesc7@@@Z 004BA630
 0001:000B9690       ?Release@AgeDevice@@UAGKXZ 004BA690
 0001:000B96C0       ?AddRef@AgeDevice@@UAGKXZ  004BA6C0
 0001:000B96D0       ?QueryInterface@AgeDevice@@UAGJABU_GUID@@PAPAX@Z 004BA6D0
 0001:000B96F0       ?Initialize@AgeDevice@@UAGJPAUIDirectDrawSurface7@@@Z 004BA6F0
 0001:000B9890       _CreateAgeDevice           004BA890
 0001:000B98B0       ?Begin@ioInput@@SAX_N@Z    004BA8B0
 0001:000B98E0       ?End@ioInput@@SAXXZ        004BA8E0
 0001:000B9900       ?Poll@ioInput@@SAXXZ       004BA900
 0001:000B9910       ?Update@ioInput@@SAXXZ     004BA910
 0001:000B9930       ?Pop@ioEventQueue@@SA_NAAUioEvent@@@Z 004BA930
 0001:000B9980       ?Peek@ioEventQueue@@SA_NAAUioEvent@@AAH@Z 004BA980
 0001:000B99D0       ?Queue@ioEventQueue@@SAXW4ioEventType@ioEvent@@HHH@Z 004BA9D0
 0001:000B9A50       ?Command@ioEventQueue@@SAXPAX@Z 004BAA50
 0001:000B9A70       ?Begin@ioKeyboard@@SAX_N@Z 004BAA70
 0001:000B9B60       ?End@ioKeyboard@@SAXXZ     004BAB60
 0001:000B9BA0       ?Update@ioKeyboard@@SAXXZ  004BABA0
 0001:000B9C20       ?GetBufferedInput@ioKeyboard@@SAHPADH@Z 004BAC20
 0001:000B9CD0       ??0winDispatchable@@QAE@I@Z 004BACD0
 0001:000B9D00       ??1winDispatchable@@UAE@XZ 004BAD00
 0001:000B9D20       ?InputWindowProc@@YGJPAUHWND__@@IIJ@Z 004BAD20
 0001:000B9F0F       glb_4BAF0F                 004BAF0F
 0001:000B9F68       glb_4BAF68                 004BAF68
 0001:000B9FBD       glb_4BAFBD                 004BAFBD
 0001:000BA003       glb_4BB003                 004BB003
 0001:000BA05A       glb_4BB05A                 004BB05A
 0001:000BA130       KeyCodeToEventCode         004BB130
 0001:000BA160       SetWindowFocus             004BB160
 0001:000BA180       ReleaseWindowFocus         004BB180
 0001:000BA1A0       ?diInit@@YAXXZ             004BB1A0
 0001:000BA1F0       ??_GwinDispatchable@@UAEPAXI@Z 004BB1F0
 0001:000BA220       ?Begin@ioMouse@@SAX_N@Z    004BB220
 0001:000BA360       ?End@ioMouse@@SAXXZ        004BB360
 0001:000BA3A0       ?Update@ioMouse@@SAXXZ     004BB3A0
 0001:000BA4E0       ?Begin@ioPad@@AAEXH@Z      004BB4E0
 0001:000BA520       ?End@ioPad@@AAEXXZ         004BB520
 0001:000BA530       ?Update@ioPad@@AAEXXZ      004BB530
 0001:000BA710       ?AddDeadZone@@YAMMM@Z      004BB710
 0001:000BA760       ?BeginAll@ioPad@@SAXXZ     004BB760
 0001:000BA780       ?EndAll@ioPad@@SAXXZ       004BB780
 0001:000BA7A0       ?UpdateAll@ioPad@@SAXXZ    004BB7A0
 0001:000BA7C0       ??0ioPad@@QAE@XZ           004BB7C0
 0001:000BA7E0       ??1ioPad@@QAE@XZ           004BB7E0
 0001:000BA7F0       ?EnumDeviceProc@ioJoystick@@CGHPBUDIDEVICEINSTANCEA@@PAX@Z 004BB7F0
 0001:000BAA00       ?BeginAll@ioJoystick@@SAXXZ 004BBA00
 0001:000BAA50       ?PollAll@ioJoystick@@SAXXZ 004BBA50
 0001:000BAA80       ?UpdateAll@ioJoystick@@SAXXZ 004BBA80
 0001:000BAAB0       ?EndAll@ioJoystick@@SAXXZ  004BBAB0
 0001:000BAAE0       ?EnumObjectProc@ioJoystick@@CGHPBUDIDEVICEOBJECTINSTANCEA@@PAX@Z 004BBAE0
 0001:000BAAF0       ?Begin@ioJoystick@@AAEXXZ  004BBAF0
 0001:000BAC50       ?Poll@ioJoystick@@AAEXXZ   004BBC50
 0001:000BAC60       ?Update@ioJoystick@@AAEXXZ 004BBC60
 0001:000BAD20       ?End@ioJoystick@@AAEXXZ    004BBD20
 0001:000BAD50       ?DisableGlobalSeed@@YAXXZ  004BBD50
 0001:000BAD80       ?EnableGlobalSeed@@YAXXZ   004BBD80
 0001:000BADB0       ?ResetRandomSeed@@YAXXZ    004BBDB0
 0001:000BADC0       ?irand@@YAHH@Z             004BBDC0
 0001:000BADF0       ?irand@@YAHXZ              004BBDF0
 0001:000BAE30       ?frand@@YAMXZ              004BBE30
 0001:000BAE50       ?frand@@YAMH@Z             004BBE50
 0001:000BAE70       _rand                      004BBE70
 0001:000BAF20       ?Identity@Matrix34@@QAEXXZ 004BBF20
 0001:000BAF50       ?Identity3x3@Matrix34@@QAEXXZ 004BBF50
 0001:000BAF80       ?Zero@Matrix34@@QAEXXZ     004BBF80
 0001:000BAFB0       ?Set@Matrix34@@QAEXABV1@@Z 004BBFB0
 0001:000BB000       ?Add@Matrix34@@QAEXABV1@@Z 004BC000
 0001:000BB080       ?Add@Matrix34@@QAEXABV1@0@Z 004BC080
 0001:000BB100       ?Add3x3@Matrix34@@QAEXABV1@@Z 004BC100
 0001:000BB160       ?Add3x3@Matrix34@@QAEXABV1@0@Z 004BC160
 0001:000BB1C0       ?Subtract@Matrix34@@QAEXABV1@@Z 004BC1C0
 0001:000BB240       ?Subtract@Matrix34@@QAEXABV1@0@Z 004BC240
 0001:000BB2C0       ?Subtract3x3@Matrix34@@QAEXABV1@@Z 004BC2C0
 0001:000BB320       ?Subtract3x3@Matrix34@@QAEXABV1@0@Z 004BC320
 0001:000BB380       ?AddScaled@Matrix34@@QAEXABV1@M@Z 004BC380
 0001:000BB400       ?Dot@Matrix34@@QAEXABV1@@Z 004BC400
 0001:000BB580       ?Dot@Matrix34@@QAEXABV1@0@Z 004BC580
 0001:000BB6C0       ?DotTranspose@Matrix34@@QAEXABV1@@Z 004BC6C0
 0001:000BB830       ?DotTranspose@Matrix34@@QAEXABV1@0@Z 004BC830
 0001:000BB970       ?Dot3x3@Matrix34@@QAEXABV1@@Z 004BC970
 0001:000BBA90       ?Dot3x3@Matrix34@@QAEXABV1@0@Z 004BCA90
 0001:000BBB80       ?Dot3x3Transpose@Matrix34@@QAEXABV1@@Z 004BCB80
 0001:000BBC80       ?Dot3x3Transpose@Matrix34@@QAEXABV1@0@Z 004BCC80
 0001:000BBD70       ?Rotate@Matrix34@@QAEXABVVector3@@M@Z 004BCD70
 0001:000BBDA0       ?RotateX@Matrix34@@QAEXM@Z 004BCDA0
 0001:000BBDD0       ?RotateY@Matrix34@@QAEXM@Z 004BCDD0
 0001:000BBE00       ?RotateZ@Matrix34@@QAEXM@Z 004BCE00
 0001:000BBE30       ?RotateUnitAxis@Matrix34@@QAEXABVVector3@@M@Z 004BCE30
 0001:000BBE60       ?RotateFull@Matrix34@@QAEXABVVector3@@M@Z 004BCE60
 0001:000BBEA0       ?RotateFullX@Matrix34@@QAEXM@Z 004BCEA0
 0001:000BBEE0       ?RotateFullY@Matrix34@@QAEXM@Z 004BCEE0
 0001:000BBF20       ?RotateFullZ@Matrix34@@QAEXM@Z 004BCF20
 0001:000BBF60       ?RotateFullUnitAxis@Matrix34@@QAEXABVVector3@@M@Z 004BCF60
 0001:000BBFA0       ?MakeRotate@Matrix34@@QAEXABVVector3@@M@Z 004BCFA0
 0001:000BC100       ?MakeRotateX@Matrix34@@QAEXM@Z 004BD100
 0001:000BC140       ?MakeRotateY@Matrix34@@QAEXM@Z 004BD140
 0001:000BC180       ?MakeRotateZ@Matrix34@@QAEXM@Z 004BD180
 0001:000BC1C0       ?MakeRotateUnitAxis@Matrix34@@QAEXABVVector3@@M@Z 004BD1C0
 0001:000BC290       ?RotateTo@Matrix34@@QAEXABVVector3@@0@Z 004BD290
 0001:000BC380       ?RotateTo@Matrix34@@QAEXABVVector3@@0M@Z 004BD380
 0001:000BC480       ?GetEulers@Matrix34@@QBE?AVVector3@@PBD@Z 004BD480
 0001:000BC6C0       ?GetEulers@Matrix34@@QBE?AVVector3@@XZ 004BD6C0
 0001:000BC710       ?FromEulers@Matrix34@@QAEXABVVector3@@PAD@Z 004BD710
 0001:000BC810       ?FromEulersXYZ@Matrix34@@QAEXABVVector3@@@Z 004BD810
 0001:000BC920       ?FromEulersXZY@Matrix34@@QAEXABVVector3@@@Z 004BD920
 0001:000BCA30       ?FromEulersYXZ@Matrix34@@QAEXABVVector3@@@Z 004BDA30
 0001:000BCB50       ?FromEulersYZX@Matrix34@@QAEXABVVector3@@@Z 004BDB50
 0001:000BCC60       ?FromEulersZXY@Matrix34@@QAEXABVVector3@@@Z 004BDC60
 0001:000BCD70       ?FromEulersZYX@Matrix34@@QAEXABVVector3@@@Z 004BDD70
 0001:000BCE80       ?FromQuaternion@Matrix34@@QAEXABVQuaternion@@@Z 004BDE80
 0001:000BCF40       ?ToEulers@Matrix34@@QBEXAAVVector3@@PAD@Z 004BDF40
 0001:000BD040       ?ToEulersXYZ@Matrix34@@QBEXAAVVector3@@@Z 004BE040
 0001:000BD110       ?ToEulersXZY@Matrix34@@QBEXAAVVector3@@@Z 004BE110
 0001:000BD1D0       ?ToEulersYXZ@Matrix34@@QBEXAAVVector3@@@Z 004BE1D0
 0001:000BD2A0       ?ToEulersYZX@Matrix34@@QBEXAAVVector3@@@Z 004BE2A0
 0001:000BD360       ?ToEulersZXY@Matrix34@@QBEXAAVVector3@@@Z 004BE360
 0001:000BD430       ?ToEulersZYX@Matrix34@@QBEXAAVVector3@@@Z 004BE430
 0001:000BD500       ?Scale@Matrix34@@QAEXM@Z   004BE500
 0001:000BD560       ?Scale@Matrix34@@QAEXMMM@Z 004BE560
 0001:000BD5C0       ?ScaleFull@Matrix34@@QAEXM@Z 004BE5C0
 0001:000BD640       ?ScaleFull@Matrix34@@QAEXMMM@Z 004BE640
 0001:000BD6C0       ?MakeScale@Matrix34@@QAEXM@Z 004BE6C0
 0001:000BD6F0       ?MakeScale@Matrix34@@QAEXMMM@Z 004BE6F0
 0001:000BD720       ?Inverse@Matrix34@@QAEXXZ  004BE720
 0001:000BD890       ?Inverse@Matrix34@@QAEXABV1@@Z 004BE890
 0001:000BD8B0       ?FastInverse@Matrix34@@QAEXXZ 004BE8B0
 0001:000BD8E0       ?FastInverse@Matrix34@@QAEXABV1@@Z 004BE8E0
 0001:000BD990       ?Transpose@Matrix34@@QAEXXZ 004BE990
 0001:000BD9C0       ?Transpose@Matrix34@@QAEXABV1@@Z 004BE9C0
 0001:000BDA00       ?Transpose3x4@Matrix34@@QAEXXZ 004BEA00
 0001:000BDA80       ?Transpose3x4@Matrix34@@QAEXABV1@@Z 004BEA80
 0001:000BDB20       ?LookAt@Matrix34@@QAEXABVVector3@@0@Z 004BEB20
 0001:000BDC50       ?PolarView@Matrix34@@QAEXMMMM@Z 004BEC50
 0001:000BDCA0       ?GetPolar@Matrix34@@QBEXPAVVector4@@PAVVector3@@M@Z 004BECA0
 0001:000BDCE0       ?GetLookAt@Matrix34@@QBEXPAVVector3@@0M@Z 004BECE0
 0001:000BDD30       ?Dot3x3CrossProdMtx@Matrix34@@QAEXABVVector3@@@Z 004BED30
 0001:000BDDE0       ?Dot3x3CrossProdTranspose@Matrix34@@QAEXABVVector3@@@Z 004BEDE0
 0001:000BDE90       ?Normalize@Matrix34@@QAEXXZ 004BEE90
 0001:000BE010       ?Determinant3x3@Matrix34@@QBEMXZ 004BF010
 0001:000BE080       ?Interpolate@Matrix34@@QAEXABV1@0M@Z 004BF080
 0001:000BE150       ?Print@Matrix34@@QBEXPBD@Z 004BF150
 0001:000BE1F0       ?SolveSVD@Matrix34@@QBE?AVVector3@@ABV2@@Z 004BF1F0
 0001:000BED60       ?Transform4@Matrix34@@QBEXPBVVector3@@PAVVector4@@H@Z 004BFD60
 0001:000BEEB0       ?Print@Vector3@@QBEXXZ     004BFEB0
 0001:000BEEE0       ?Print@Vector3@@QBEXPBD@Z  004BFEE0
 0001:000BEF20       ?Approach@Vector3@@QAE_NABV1@MM@Z 004BFF20
 0001:000BF020       ?RotateAboutAxis@Vector3@@QAEXMH@Z 004C0020
 0001:000BF0C0       ?GetVector2@Vector3@@QBEXHAAVVector2@@@Z 004C00C0
 0001:000BF160       ?RGBtoHSV@Vector3@@QAEXXZ  004C0160
 0001:000BF270       ?HSVtoRGB@Vector3@@QAEXXZ  004C0270
 0001:000BF390       ?RotateX@Vector3@@QAEXM@Z  004C0390
 0001:000BF3D0       ?RotateY@Vector3@@QAEXM@Z  004C03D0
 0001:000BF400       ?RotateZ@Vector3@@QAEXM@Z  004C0400
 0001:000BF430       ?Angle@Vector3@@QBEMABV1@@Z 004C0430
 0001:000BF500       ?FastAngle@Vector3@@QBEMABV1@@Z 004C0500
 0001:000BF530       ?GetPolar@Vector3@@QBEXABV1@PAVVector4@@PAV1@@Z 004C0530
 0001:000BF5D0       ?Extend@Vector3@@QAEXM@Z   004C05D0
 0001:000BF620       ?Extend@Vector3@@QAEXABV1@M@Z 004C0620
 0001:000BF730       ?Identity@Matrix44@@QAEXXZ 004C0730
 0001:000BF770       ?Zero@Matrix44@@QAEXXZ     004C0770
 0001:000BF7B0       ?Set@Matrix44@@QAEXABV1@@Z 004C07B0
 0001:000BF820       ?Bezier@Matrix44@@QAEXXZ   004C0820
 0001:000BF870       ?Hermite@Matrix44@@QAEXXZ  004C0870
 0001:000BF8C0       ?CatmullRom@Matrix44@@QAEXXZ 004C08C0
 0001:000BF920       ?Transpose@Matrix44@@QAEXXZ 004C0920
 0001:000BF970       ?FromMatrix34@Matrix44@@QAEXABVMatrix34@@@Z 004C0970
 0001:000BF9E0       ?ToMatrix34@Matrix44@@QBEXAAVMatrix34@@@Z 004C09E0
 0001:000BFA30       ?Add@Matrix44@@QAEXABV1@@Z 004C0A30
 0001:000BFAD0       ?Add@Matrix44@@QAEXABV1@0@Z 004C0AD0
 0001:000BFB70       ?Subtract@Matrix44@@QAEXABV1@@Z 004C0B70
 0001:000BFC10       ?Subtract@Matrix44@@QAEXABV1@0@Z 004C0C10
 0001:000BFCB0       ?AddScaled@Matrix44@@QAEXABV1@M@Z 004C0CB0
 0001:000BFD50       ?Dot@Matrix44@@QAEAAV1@ABV1@@Z 004C0D50
 0001:000BFFC0       ?Dot@Matrix44@@QAEAAV1@ABV1@0@Z 004C0FC0
 0001:000C0170       ?Dot@Vector4@@QAEAAV1@ABV1@ABVMatrix44@@@Z 004C1170
 0001:000C0200       ?Dot3x3@Vector4@@QAEAAV1@ABV1@ABVMatrix44@@@Z 004C1200
 0001:000C0260       ?FastInverse@Matrix44@@QAEXABV1@@Z 004C1260
 0001:000C0320       ?Determinant@Matrix44@@QBEMXZ 004C1320
 0001:000C0510       ?InvertTo@Matrix44@@QBEXAAV1@@Z 004C1510
 0001:000C0C00       ?MakeRotX@Matrix44@@QAEAAV1@M@Z 004C1C00
 0001:000C0C50       ?MakeRotY@Matrix44@@QAEAAV1@M@Z 004C1C50
 0001:000C0CA0       ?MakeRotZ@Matrix44@@QAEAAV1@M@Z 004C1CA0
 0001:000C0CF0       ?Print@Matrix44@@QBEXPBD@Z 004C1CF0
 0001:000C0D60       ?Transform4@Matrix44@@QBEXPBVVector3@@PAVVector4@@H@Z 004C1D60
 0001:000C0DF0       ?__vectorDotMatrix@@YAXAAVVector4@@ABV1@ABVMatrix44@@@Z 004C1DF0
 0001:000C0E80       ?ComputeBoundSphere@@YAXHQBMIAAVVector4@@@Z 004C1E80
 0001:000C0ED0       ?ComputeBoundInfo@@YAXHQBMIPAVVector3@@11PAM@Z 004C1ED0
 0001:000C13F0       ?FindImpactPolygonToSphere@@YAHABVVector3@@MPBV1@H0PAV1@PAH2PAM@Z 004C23F0
 0001:000C18C0       ?FindImpactEdgeToShaft@@YAHABVVector3@@000MPAHPAV1@PAM2@Z 004C28C0
 0001:000C1B30       ?IsPointBehindPlane@@YA_NABVVector3@@00M@Z 004C2B30
 0001:000C1B70       ?IsPointNearPlane@@YA_NABVVector3@@00M@Z 004C2B70
 0001:000C1BC0       ?IsPointInBox@@YA_NABVVector3@@MMM@Z 004C2BC0
 0001:000C1C20       ?IsNearZero@@YAHMM@Z       004C2C20
 0001:000C1C50       ?FindClosestPointSegToPoint@@YAHABVVector3@@00PAV1@PAM@Z 004C2C50
 0001:000C1CD0       ?FindClosestPointSegToOrigin@@YAHABVVector3@@0PAV1@PAM@Z 004C2CD0
 0001:000C1DB0       ?DistanceLineToLine@@YAMABVVector3@@000PAV1@M@Z 004C2DB0
 0001:000C1F00       ?DistanceParallelLineToLine@@YAMABVVector3@@000PAV1@@Z 004C2F00
 0001:000C1FF0       ?DistanceLineToYAxis@@YAMABVVector3@@0PAV1@@Z 004C2FF0
 0001:000C20A0       ?DistanceLineToPoint@@YAMABVVector3@@00@Z 004C30A0
 0001:000C2170       ?FindTValueSegToPoint@@YAMABVVector3@@00@Z 004C3170
 0001:000C21B0       ?FindTValueSegToOrigin@@YAMABVVector3@@0@Z 004C31B0
 0001:000C2230       ?FindTValuesSegToSeg@@YA_NABVVector3@@000PAM1@Z 004C3230
 0001:000C2530       ?FindTValuesLineToLine@@YA_NABVVector3@@000PAM1@Z 004C3530
 0001:000C2740       ?FindTValuesLineToYAxis@@YA_NABVVector3@@0MMPAM1@Z 004C3740
 0001:000C2910       ?FindTValuesLineToBoxFace@@YA_NABVVector3@@000PAM1PAH2@Z 004C3910
 0001:000C2C20       ?SegmentToSphereIntersections@@YAHABVVector3@@0MPAM1@Z 004C3C20
 0001:000C2D80       ?SegmentToHemisphereIntersections@@YAHABVVector3@@0MPAM1_N@Z 004C3D80
 0001:000C2FA0       ?SegmentToDiskIntersection@@YA_NABVVector3@@0MPAM@Z 004C3FA0
 0001:000C3020       ?SegmentToUprightCylIsects@@YAHABVVector3@@0MMPAM111@Z 004C4020
 0001:000C3190       ?SegmentToInfCylIsects@@YAHABVVector3@@000MPAM1@Z 004C4190
 0001:000C3380       ?SegmentToBoxIntersections@@YAHABVVector3@@0MMMPAM1PAV1@2PAH3@Z 004C4380
 0001:000C3740       ?AddIntersection@@YAHMPAM0ABVVector3@@PAV1@2HHPAH3@Z 004C4740
 0001:000C3810       ?AddIntersection@@YAHMPAM0HPAH1H@Z 004C4810
 0001:000C3890       ?OrderIntersections@@YAXPAM000PAH1@Z 004C4890
 0001:000C38D0       ?IsPointInRegion@@YA_NMMPBVVector3@@H@Z 004C48D0
 0001:000C39B0       ?CollidePlane@@YA_NABVVector3@@0ABVVector4@@PAM@Z 004C49B0
 0001:000C3A10       ?CollideRayTriangle@@YA_NABVVector3@@0000PAM@Z 004C4A10
 0001:000C3BE0       ?Print@Quaternion@@QBEXXZ  004C4BE0
 0001:000C3C20       ?Print@Quaternion@@QBEXPBD@Z 004C4C20
 0001:000C3C60       ?Slerp@Quaternion@@QAEXMABV1@0@Z 004C4C60
 0001:000C3E60       ?FromMatrix@Quaternion@@QAEXABVMatrix34@@@Z 004C4E60
 0001:000C4020       ?Multiply@Quaternion@@QAEXABV1@0@Z 004C5020
 0001:000C40B0       ?Multiply@Quaternion@@QAEXABV1@@Z 004C50B0
 0001:000C4150       ?MultiplyInverse@Quaternion@@QAEXABV1@@Z 004C5150
 0001:000C41F0       ?EnableNanSignal@@YAX_N@Z  004C51F0
 0001:000C4250       ?Print@Vector4@@QBEXXZ     004C5250
 0001:000C4290       ?Print@Vector4@@QBEXPBD@Z  004C5290
 0001:000C42D0       ?ComputePlane@Vector4@@QAEXABVVector3@@00@Z 004C52D0
 0001:000C43B0       ?ComputePlane@Vector4@@QAEXABVVector3@@0@Z 004C53B0
 0001:000C43F0       ?Min@Vector4@@QAEXABV1@0@Z 004C53F0
 0001:000C4460       ?Max@Vector4@@QAEXABV1@0@Z 004C5460
 0001:000C44D0       ?Outcode@Vector4@@QBEHXZ   004C54D0
 0001:000C4540       ?SetPath@datAssetManager@@SAXPBD@Z 004C5540
 0001:000C45E0       ?FullPath@datAssetManager@@SAXPADHPBD1@Z 004C55E0
 0001:000C46F0       ?FullPath@datAssetManager@@SAXPADHPBD11@Z 004C56F0
 0001:000C4870       ?Open@datAssetManager@@SAPAVStream@@PBD0_N1@Z 004C5870
 0001:000C48C0       ?Open@datAssetManager@@SAPAVStream@@PBD00_N1@Z 004C58C0
 0001:000C4910       ?Create@datAssetManager@@SAPAVStream@@PBD0_N@Z 004C5910
 0001:000C4960       ?Create@datAssetManager@@SAPAVStream@@PBD00_N@Z 004C5960
 0001:000C49B0       ?Exists@datAssetManager@@SA_NPBD0@Z 004C59B0
 0001:000C49E0       ?Exists@datAssetManager@@SA_NPBD00@Z 004C59E0
 0001:000C4A10       ?FileName@datAssetManager@@SAPBDPBD@Z 004C5A10
 0001:000C4A40       ?BaseName@datAssetManager@@SAXPBDPADH@Z 004C5A40
 0001:000C4A80       ?EnumFiles@datAssetManager@@SAHPBDP6AX0_NPAX@Z21@Z 004C5A80
 0001:000C4BB0       ?Init@datArgParser@@SAXXZ  004C5BB0
 0001:000C4BC0       ?Init@datArgParser@@SAXHPAPAD@Z 004C5BC0
 0001:000C4D10       ?RestoreFromArchive@datArgParser@@SAXPAD@Z 004C5D10
 0001:000C4EC0       ?SaveToArchive@datArgParser@@SAHPAD@Z 004C5EC0
 0001:000C5110       ?Kill@datArgParser@@SAXXZ  004C6110
 0001:000C5120       ?AddReplace@datArgParser@@SAXPBDPAD@Z 004C6120
 0001:000C5190       ?Get@datArgParser@@SA_NPBD@Z 004C6190
 0001:000C51C0       ?Get@datArgParser@@SA_NPBDIAAH@Z 004C61C0
 0001:000C5210       ?Get@datArgParser@@SA_NPBDIAAM@Z 004C6210
 0001:000C5260       ?Get@datArgParser@@SA_NPBDIPAPBD@Z 004C6260
 0001:000C52A0       ?GetNum@datArgParser@@SAHPBD@Z 004C62A0
 0001:000C52D0       log_alloc                  004C62D0
 0001:000C5300       ?Reset@datTimeManager@@SAXXZ 004C6300
 0001:000C5340       ?Update@datTimeManager@@SAXXZ 004C6340
 0001:000C54F0       ?SetTempOverSampling@datTimeManager@@SAX_NH@Z 004C64F0
 0001:000C5580       ?RealTime@datTimeManager@@SAXM@Z 004C6580
 0001:000C55D0       ?FixedFrame@datTimeManager@@SAXMI@Z 004C65D0
 0001:000C5630       ??0HashTable@@QAE@H_NH@Z   004C6630
 0001:000C5680       ??1HashTable@@QAE@XZ       004C6680
 0001:000C56B0       ?InitFixed@HashTable@@AAEXHH@Z 004C66B0
 0001:000C5770       ?InitCommon@HashTable@@AAEXH@Z 004C6770
 0001:000C57B0       ?Kill@HashTable@@QAEXXZ    004C67B0
 0001:000C5850       ?KillAll@HashTable@@SAXXZ  004C6850
 0001:000C5870       ?MakePermanent@HashTable@@QAEXXZ 004C6870
 0001:000C58A0       ??4HashTable@@QAEXABV0@@Z  004C68A0
 0001:000C5900       ?GetEmptySlot@HashTable@@QAEAAVHashEntry@@PBDPAXPAV2@@Z 004C6900
 0001:000C59A0       ?MakeEmpty@HashTable@@QAEXXZ 004C69A0
 0001:000C59F0       ?Insert@HashTable@@QAE_NPBDPAX@Z 004C69F0
 0001:000C5B20       ?Delete@HashTable@@QAE_NPBD@Z 004C6B20
 0001:000C5C60       ?Change@HashTable@@QAE_NPBD0@Z 004C6C60
 0001:000C5CA0       ?Access@HashTable@@QAEPAXPBD@Z 004C6CA0
 0001:000C5D10       ?Access@HashTable@@QAE_NPBDPAPBX@Z 004C6D10
 0001:000C5D80       ?AccessName@HashTable@@QAEPBDH@Z 004C6D80
 0001:000C5DA0       ?AccessData@HashTable@@QAEPAXH@Z 004C6DA0
 0001:000C5DC0       ?Hash@HashTable@@AAEHPBD@Z 004C6DC0
 0001:000C5E40       ?ComputePrime@HashTable@@AAEHH@Z 004C6E40
 0001:000C5E90       ?Recompute@HashTable@@AAEXH@Z 004C6E90
 0001:000C5F80       ?GetEntry@HashTable@@AAEPAVHashEntry@@H@Z 004C6F80
 0001:000C6000       ?GetFirstEntry@HashTable@@QAE_NAAVHashPosition@@@Z 004C7000
 0001:000C6050       ?GetNextEntry@HashTable@@QAE_NAAVHashPosition@@@Z 004C7050
 0001:000C60A0       ??0FixedHashEntry@@AAE@XZ  004C70A0
 0001:000C60B0       ??_EFixedHashEntry@@QAEPAXI@Z 004C70B0
 0001:000C6110       ??1FixedHashEntry@@QAE@XZ  004C7110
 0001:000C6120       ?GetTimestamp@datStack@@SAPBDXZ 004C7120
 0001:000C6130       ?InitMap@@YAXXZ            004C7130
 0001:000C6470       ?LookupAddress@datStack@@SAXPADH@Z 004C7470
 0001:000C64F0       ?DoTraceback@datStack@@SAXHPAHPAU_iobuf@@PBD@Z 004C74F0
 0001:000C65C0       ?Traceback@datStack@@SAXHPAU_iobuf@@@Z 004C75C0
 0001:000C65F0       ?LogTraceback@datStack@@SAHPAHH@Z 004C75F0
 0001:000C66B0       ?DumpTraceback@datStack@@SAXPAHHPAU_iobuf@@@Z 004C76B0
 0001:000C6720       ?ExceptionFilter@datStack@@SAHPAU_EXCEPTION_POINTERS@@@Z 004C7720
 0001:000C67C0       ?IsOnStack@@YA_NPAX@Z      004C77C0
 0001:000C67E0       ?Ticks@Timer@@SAKXZ        004C77E0
 0001:000C6810       ?QuickTicks@Timer@@SAIXZ   004C7810
 0001:000C6840       ??0Timer@@QAE@XZ           004C7840
 0001:000C6980       ?BeginBenchmark@Timer@@SAXXZ 004C7980
 0001:000C69F0       ?EndBenchmark@Timer@@SAXXZ 004C79F0
 0001:000C6A40       ??0datCallback@@QAE@XZ     004C7A40
 0001:000C6A50       ??0datCallback@@QAE@P8Base@@AEXXZPAV1@@Z 004C7A50
 0001:000C6A80       ??0datCallback@@QAE@P8Base@@AEXPAX@ZPAV1@0@Z 004C7A80
 0001:000C6AA0       ??0datCallback@@QAE@P8Base@@AEXPAX0@ZPAV1@0@Z 004C7AA0
 0001:000C6AC0       ??0datCallback@@QAE@P6AXXZ@Z 004C7AC0
 0001:000C6AF0       ??0datCallback@@QAE@P6AXPAX@Z0@Z 004C7AF0
 0001:000C6B20       ??0datCallback@@QAE@P6AXPAX0@Z0@Z 004C7B20
 0001:000C6B50       ?Call@datCallback@@QAEXPAX@Z 004C7B50
 0001:000C6BF0       ?DebugLogInit@@YAX_N@Z     004C7BF0
 0001:000C6C50       ?DebugLogShutdown@@YAXXZ   004C7C50
 0001:000C6C70       ?DebugLog@@YAXHPBXH_N@Z    004C7C70
 0001:000C6EA0       ?LogStackTraceback@@YAHPAHH@Z 004C7EA0
 0001:000C6F60       ?DumpStackTraceback@@YAXPAHH@Z 004C7F60
 0001:000C6FB0       ?HexDump@@YAXPAXH@Z        004C7FB0
 0001:000C70B0       ?FloatDump@@YAXPAXH@Z      004C80B0
 0001:000C7180       ?StringDuplicate@@YAPADPBD@Z 004C8180
 0001:000C71D0       ?formatf@@YAPADPADHPBDZZ   004C81D0
 0001:000C7200       ??1Base@@UAE@XZ            004C8200
 0001:000C7210       ?Init@datBaseTokenizer@@QAEXPBDPAVStream@@@Z 004C8210
 0001:000C7240       ?PushBack@datBaseTokenizer@@AAEXPBDH@Z 004C8240
 0001:000C7270       ?GetTokenCh@datBaseTokenizer@@AAEHXZ 004C8270
 0001:000C72B0       ?SkipComment@datBaseTokenizer@@IAEXXZ 004C82B0
 0001:000C72F0       ?GetToken@datBaseTokenizer@@QAEHPADH@Z 004C82F0
 0001:000C7440       ?GetBlock@datBaseTokenizer@@QAEHPADH@Z 004C8440
 0001:000C7480       ?MatchToken@datBaseTokenizer@@QAEXPBD@Z 004C8480
 0001:000C7500       ?CheckToken@datBaseTokenizer@@QAE_NPBD_N@Z 004C8500
 0001:000C7590       ?GetTokenToChar@datBaseTokenizer@@QAEHPADHD@Z 004C8590
 0001:000C7650       ?SkipToEndOfLine@datBaseTokenizer@@QAEXXZ 004C8650
 0001:000C7670       ?IgnoreToken@datBaseTokenizer@@QAEXXZ 004C8670
 0001:000C7690       ?Pop@datBaseTokenizer@@QAEXXZ 004C8690
 0001:000C76D0       ?Put@datBaseTokenizer@@UAE_ND@Z 004C86D0
 0001:000C7730       ?PutStr@datBaseTokenizer@@QAA_NPBDZZ 004C8730
 0001:000C7770       ?GetInt@datAsciiTokenizer@@UAEHXZ 004C8770
 0001:000C77D0       ?GetFloat@datAsciiTokenizer@@UAEMXZ 004C87D0
 0001:000C7830       ?GetVector@datAsciiTokenizer@@UAEXAAVVector2@@@Z 004C8830
 0001:000C7860       ?GetVector@datAsciiTokenizer@@UAEXAAVVector3@@@Z 004C8860
 0001:000C7890       ?GetVector@datAsciiTokenizer@@UAEXAAVVector4@@@Z 004C8890
 0001:000C78D0       ?GetDelimiter@datAsciiTokenizer@@UAEXPBD@Z 004C88D0
 0001:000C78E0       ?MatchInt@datAsciiTokenizer@@UAEHPBD@Z 004C88E0
 0001:000C7900       ?MatchFloat@datAsciiTokenizer@@UAEMPBD@Z 004C8900
 0001:000C7920       ?MatchVector@datAsciiTokenizer@@UAEXPBDAAVVector2@@@Z 004C8920
 0001:000C7940       ?MatchVector@datAsciiTokenizer@@UAEXPBDAAVVector3@@@Z 004C8940
 0001:000C7960       ?MatchVector@datAsciiTokenizer@@UAEXPBDAAVVector4@@@Z 004C8960
 0001:000C7980       ?Put@datAsciiTokenizer@@UAE_NPBDI@Z 004C8980
 0001:000C7A00       ?Put@datAsciiTokenizer@@UAE_NH@Z 004C8A00
 0001:000C7A40       ?Put@datAsciiTokenizer@@UAE_NM@Z 004C8A40
 0001:000C7A90       ?Put@datAsciiTokenizer@@UAE_NABVVector2@@@Z 004C8A90
 0001:000C7AF0       ?Put@datAsciiTokenizer@@UAE_NABVVector3@@@Z 004C8AF0
 0001:000C7B50       ?Put@datAsciiTokenizer@@UAE_NABVVector4@@@Z 004C8B50
 0001:000C7BC0       ?PutDelimiter@datAsciiTokenizer@@UAE_NPBD@Z 004C8BC0
 0001:000C7BE0       ?GetInt@datBinTokenizer@@UAEHXZ 004C8BE0
 0001:000C7C20       ?GetFloat@datBinTokenizer@@UAEMXZ 004C8C20
 0001:000C7C70       ?GetVector@datBinTokenizer@@UAEXAAVVector2@@@Z 004C8C70
 0001:000C7CB0       ?GetVector@datBinTokenizer@@UAEXAAVVector3@@@Z 004C8CB0
 0001:000C7CF0       ?GetVector@datBinTokenizer@@UAEXAAVVector4@@@Z 004C8CF0
 0001:000C7D30       ?GetDelimiter@datBinTokenizer@@UAEXPBD@Z 004C8D30
 0001:000C7D40       ?MatchInt@datBinTokenizer@@UAEHPBD@Z 004C8D40
 0001:000C7D50       ?MatchFloat@datBinTokenizer@@UAEMPBD@Z 004C8D50
 0001:000C7D60       ?MatchVector@datBinTokenizer@@UAEXPBDAAVVector2@@@Z 004C8D60
 0001:000C7D70       ?MatchVector@datBinTokenizer@@UAEXPBDAAVVector3@@@Z 004C8D70
 0001:000C7D80       ?MatchVector@datBinTokenizer@@UAEXPBDAAVVector4@@@Z 004C8D80
 0001:000C7D90       ?Put@datBinTokenizer@@UAE_NPBDI@Z 004C8D90
 0001:000C7DE0       ?Put@datBinTokenizer@@UAE_NH@Z 004C8DE0
 0001:000C7E00       ?Put@datBinTokenizer@@UAE_NM@Z 004C8E00
 0001:000C7E20       ?Put@datBinTokenizer@@UAE_NABVVector2@@@Z 004C8E20
 0001:000C7E40       ?Put@datBinTokenizer@@UAE_NABVVector3@@@Z 004C8E40
 0001:000C7E60       ?Put@datBinTokenizer@@UAE_NABVVector4@@@Z 004C8E60
 0001:000C7E80       ?PutDelimiter@datBinTokenizer@@UAE_NPBD@Z 004C8E80
 0001:000C7E90       ??0datMultiTokenizer@@QAE@XZ 004C8E90
 0001:000C7EA0       ?GetReadTokenizer@datMultiTokenizer@@QAEAAVdatBaseTokenizer@@PBDPAVStream@@00@Z 004C8EA0
 0001:000C7FB0       ?GetWriteTokenizer@datMultiTokenizer@@QAEAAVdatBaseTokenizer@@PBDPAVStream@@_N0@Z 004C8FB0
 0001:000C8000       ??0datTokenizer@@QAE@XZ    004C9000
 0001:000C8010       ??0datTokenizer@@QAE@PBDPAVStream@@@Z 004C9010
 0001:000C8040       ?Reset@datReplay@@SAXXZ    004C9040
 0001:000C8060       ?GetByte@datReplay@@SAHXZ  004C9060
 0001:000C8080       ?GetInt@datReplay@@SAHXZ   004C9080
 0001:000C80B0       ?RecordByte@datReplay@@SAXE@Z 004C90B0
 0001:000C80E0       ?RecordInt@datReplay@@SAXH@Z 004C90E0
 0001:000C8110       ?BeginRecord@datReplay@@SA_NPAVdatMemStream@@@Z 004C9110
 0001:000C8150       ?BeginPlayback@datReplay@@SA_NPAVdatMemStream@@@Z 004C9150
 0001:000C81B0       ?Close@datReplay@@SAXXZ    004C91B0
 0001:000C81E0       ?BeginFrame@datReplay@@SAXXZ 004C91E0
 0001:000C81F0       ?EndFrame@datReplay@@SA_NXZ 004C91F0
 0001:000C8280       ?Read@datMemStream@@QAEHPAXH@Z 004C9280
 0001:000C82D0       ?Write@datMemStream@@QAEHPBXH@Z 004C92D0
 0001:000C8330       ?GetCh@datMemStream@@QAEHXZ 004C9330
 0001:000C8360       ?PutCh@datMemStream@@QAEHE@Z 004C9360
 0001:000C8390       ?Close@datMemStream@@QAEHXZ 004C9390
 0001:000C83A0       ?Size@datMemStream@@QAEHXZ 004C93A0
 0001:000C83B0       ?__ComputeCpuSpeed@@YAIXZ  004C93B0
 0001:000C8470       ?ComputeCpuSpeed@@YAIXZ    004C9470
 0001:000C84D0       ?DisablePopUpErrors@@YAXXZ 004C94D0
 0001:000C84E0       ?DisablePopUpQuits@@YAXXZ  004C94E0
 0001:000C84F0       ?EnablePopUpErrors@@YAXXZ  004C94F0
 0001:000C8500       ?EnablePopUpQuits@@YAXXZ   004C9500
 0001:000C8510       DefaultPrintString         004C9510
 0001:000C8530       ?CloseLog@datOutput@@SAXXZ 004C9530
 0001:000C8550       ?SetBeforeMsgBoxFunction@datOutput@@SAXP6AXXZ@Z 004C9550
 0001:000C8560       ?SetAfterMsgBoxFunction@datOutput@@SAXP6AXXZ@Z 004C9560
 0001:000C8570       ?CallBeforeMsgBoxFunction@datOutput@@SAXXZ 004C9570
 0001:000C8580       ?CallAfterMsgBoxFunction@datOutput@@SAXXZ 004C9580
 0001:000C8590       ?SetOutputMask@datOutput@@SAXI@Z 004C9590
 0001:000C85A0       ?OpenLog@datOutput@@SA_NPBD@Z 004C95A0
 0001:000C85F0       ?DefaultPrinter@@YAXHPBDPAD@Z 004C95F0
 0001:000C8720       ?Printf@@YAXPBDZZ          004C9720
 0001:000C8750       ?Messagef@@YAXPBDZZ        004C9750
 0001:000C8780       ?Displayf@@YAXPBDZZ        004C9780
 0001:000C87B0       ?Warningf@@YAXPBDZZ        004C97B0
 0001:000C87E0       ?Errorf@@YAXPBDZZ          004C97E0
 0001:000C8810       ?Quitf@@YAXPBDZZ           004C9810
 0001:000C8850       ?Abortf@@YAXPBDZZ          004C9850
 0001:000C88A0       nullsub_76                 004C98A0
 0001:000C88D0       ?AllocStream@Stream@@CAPAV1@PBDHPBUcoreFileMethods@@@Z 004C98D0
 0001:000C8970       ?DumpOpenFiles@Stream@@SAXXZ 004C9970
 0001:000C89C0       ?Open@Stream@@SAPAV1@PBD_N@Z 004C99C0
 0001:000C8A00       ?Create@Stream@@SAPAV1@PBD@Z 004C9A00
 0001:000C8A40       ?Open@Stream@@SAPAV1@PBDPBUcoreFileMethods@@_N@Z 004C9A40
 0001:000C8A70       ?Create@Stream@@SAPAV1@PBDPBUcoreFileMethods@@@Z 004C9A70
 0001:000C8AA0       ?Read@Stream@@QAEHPAXH@Z   004C9AA0
 0001:000C8BF0       ?Write@Stream@@QAEHPBXH@Z  004C9BF0
 0001:000C8D00       ?GetCh@Stream@@QAEHXZ      004C9D00
 0001:000C8D30       ?PutCh@Stream@@QAEHE@Z     004C9D30
 0001:000C8D60       ?Seek@Stream@@QAEHH@Z      004C9D60
 0001:000C8DB0       ?Tell@Stream@@QAEHXZ       004C9DB0
 0001:000C8DC0       ?Close@Stream@@QAEHXZ      004C9DC0
 0001:000C8E00       ?Size@Stream@@QAEHXZ       004C9E00
 0001:000C8E60       ?Flush@Stream@@QAEHXZ      004C9E60
 0001:000C8ED0       ?fprintf@@YAXPAVStream@@PBDZZ 004C9ED0
 0001:000C8F20       ?fseek@@YAHPAVStream@@HH@Z 004C9F20
 0001:000C8F80       ?fgets@@YAHPADHPAVStream@@@Z 004C9F80
 0001:000C8FF0       ?fscanf@@YAHPAVStream@@PBDZZ 004C9FF0
 0001:000C90A0       ?memReadFile@@YAHHPAXH@Z   004CA0A0
 0001:000C90B0       ?memCloseFile@@YAHH@Z      004CA0B0
 0001:000C90D0       ?memSizeFile@@YAHH@Z       004CA0D0
 0001:000C90E0       ?PreLoad@Stream@@SAPAV1@PAV1@@Z 004CA0E0
 0001:000C91B0       ?coreRawOpenFile@@YAHPBD_N@Z 004CA1B0
 0001:000C91F0       ?coreRawCreateFile@@YAHPBD@Z 004CA1F0
 0001:000C9220       ?coreRawSeekFile@@YAHHHW4seekWhence@@@Z 004CA220
 0001:000C9240       ?coreRawWriteFile@@YAHHPBXH@Z 004CA240
 0001:000C9270       ?coreRawReadFile@@YAHHPAXH@Z 004CA270
 0001:000C92A0       ?coreRawCloseFile@@YAHH@Z  004CA2A0
 0001:000C92C0       ?coreRawEnumFiles@@YAHPBDP6AX0_NPAX@Z2@Z 004CA2C0
 0001:000C9380       ??0vehCarDamage@@QAE@XZ    004CA380
 0001:000C9530       ??1vehCarDamage@@UAE@XZ    004CA530
 0001:000C95F0       ?GetDirName@vehCarDamage@@UAEPBDXZ 004CA5F0
 0001:000C9600       ?Init@vehCarDamage@@QAEXPAVvehCar@@PBD@Z 004CA600
 0001:000C98D0       ?SpewSmoke@vehCarDamage@@AAEXPAVasParticles@@PAMAAVVector3@@M@Z 004CA8D0
 0001:000C9A40       ?Update@vehCarDamage@@UAEXXZ 004CAA40
 0001:000C9E60       ?Reset@vehCarDamage@@UAEXXZ 004CAE60
 0001:000C9E80       ?ClearDamage@vehCarDamage@@QAEXXZ 004CAE80
 0001:000C9EC0       ?AddDamage@vehCarDamage@@QAEXM@Z 004CAEC0
 0001:000C9EF0       ?InsertImpact@vehCarDamage@@AAEXPAUImpactCBData@@PAVphCollider@@@Z 004CAEF0
 0001:000CA140       ?ApplyImpact@vehCarDamage@@AAEXPAUvehDamageImpactInfo@@@Z 004CB140
 0001:000CA350       ?Impact@vehCarDamage@@SAXPAV1@PAUImpactCBData@@@Z 004CB350
 0001:000CA3E0       ?SetGameCallback@vehCarDamage@@QAEXVdatCallback@@@Z 004CB3E0
 0001:000CA400       ?FileIO@vehCarDamage@@UAEXAAVdatParser@@@Z 004CB400
 0001:000CA610       ??_GvehCarDamage@@UAEPAXI@Z 004CB610
 0001:000CA640       ?GetClassName@vehCarDamage@@UAEPADXZ 004CB640
 0001:000CA650       ?GetDamageModifier@vehCarDamage@@UAEMPAVphCollider@@@Z 004CB650
 0001:000CA660       ??0vehCarSim@@QAE@XZ       004CB660
 0001:000CA8E0       ??1vehCarSim@@UAE@XZ       004CB8E0
 0001:000CAA70       ?Reset@vehCarSim@@UAEXXZ   004CBA70
 0001:000CAAF0       ?GetDirName@vehCarSim@@UAEPBDXZ 004CBAF0
 0001:000CAB00       ?OnGround@vehCarSim@@QAEHXZ 004CBB00
 0001:000CAB40       ?BottomedOut@vehCarSim@@QAEHXZ 004CBB40
 0001:000CAB80       ?Init@vehCarSim@@QAEXPBDPAVphColliderJointed@@PAVlvlInstance@@@Z 004CBB80
 0001:000CAF50       ?SetWorldMatrix@vehCarSim@@QAEXXZ 004CBF50
 0001:000CB050       ?RestoreImpactParams@vehCarSim@@QAEXXZ 004CC050
 0001:000CB080       ?SetHackedImpactParams@vehCarSim@@QAEXXZ 004CC080
 0001:000CB0B0       ?ReconfigureDrivetrain@vehCarSim@@QAEXXZ 004CC0B0
 0001:000CB0D0       ?ConfigureDrivetrain@vehCarSim@@QAEXXZ 004CC0D0
 0001:000CB4E0       ?UnconfigureDrivetrain@vehCarSim@@QAEXXZ 004CC4E0
 0001:000CB830       ?SetResetPos@vehCarSim@@QAEXABVVector3@@@Z 004CC830
 0001:000CB880       ?ClearDamage@vehCarSim@@QAEXXZ 004CC880
 0001:000CB890       ?GetSSSFactor@vehCarSim@@QAEMM@Z 004CC890
 0001:000CB8E0       ?Update@vehCarSim@@UAEXXZ  004CC8E0
 0001:000CBAB0       ?PlaybackReplay@vehCarSim@@QAEXXZ 004CCAB0
 0001:000CBB30       ?RecordReplay@vehCarSim@@QAEXXZ 004CCB30
 0001:000CBC70       ?FileIO@vehCarSim@@UAEXAAVdatParser@@@Z 004CCC70
 0001:000CBE80       ??_GvehCarSim@@UAEPAXI@Z   004CCE80
 0001:000CBEB0       ??1vehTransmission@@UAE@XZ 004CCEB0
 0001:000CBEC0       ??1vehDrivetrain@@UAE@XZ   004CCEC0
 0001:000CBED0       ??1vehWheel@@UAE@XZ        004CCED0
 0001:000CBEE0       ??1vehAxle@@UAE@XZ         004CCEE0
 0001:000CBEF0       ??1vehSuspension@@UAE@XZ   004CCEF0
 0001:000CBF00       ??1vehAero@@UAE@XZ         004CCF00
 0001:000CBF10       ?GetClassName@vehCarSim@@UAEPADXZ 004CCF10
 0001:000CBF20       ??0vehCarModel@@QAE@XZ     004CCF20
 0001:000CBF80       ??1vehCarModel@@QAE@XZ     004CCF80
 0001:000CBFE0       ?Init@vehCarModel@@QAEXPAVvehCar@@PBDH@Z 004CCFE0
 0001:000CCA20       ?InitBound@vehCarModel@@QAEXPBD_N@Z 004CDA20
 0001:000CCBF0       ?GetTrailerHitch@vehCarModel@@QAE_NPAVVector3@@@Z 004CDBF0
 0001:000CCC50       ?InitBreakable@vehCarModel@@IAE_NPAVvehBreakableMgr@@PBD1HH@Z 004CDC50
 0001:000CCCA0       ?EjectOneshot@vehCarModel@@QAEXXZ 004CDCA0
 0001:000CCF00       ?GetSurfaceColor@vehCarModel@@IAE_NPAVmodStatic@@AAVVector3@@@Z 004CDF00
 0001:000CCF60       ?InitSirenLight@vehCarModel@@IAEXPBD0H@Z 004CDF60
 0001:000CCFD0       ?Reset@vehCarModel@@UAEXXZ 004CDFD0
 0001:000CCFE0       ?SizeOf@vehCarModel@@UAEIXZ 004CDFE0
 0001:000CCFF0       ?ClearDamage@vehCarModel@@QAEXXZ 004CDFF0
 0001:000CD040       ?Draw@vehCarModel@@UAEXH@Z 004CE040
 0001:000CD840       ?DrawPart@vehCarModel@@QAEXHHABVMatrix34@@PAVmodShader@@@Z 004CE840
 0001:000CD880       ?DrawPart@vehCarModel@@QAEXPAVmodStatic@@ABVMatrix34@@PAVmodShader@@@Z 004CE880
 0001:000CD940       ?DrawShadow@vehCarModel@@UAEXXZ 004CE940
 0001:000CDA90       ?DrawShadowMap@vehCarModel@@UAEXXZ 004CEA90
 0001:000CDB90       ?DrawGlow@vehCarModel@@UAEXXZ 004CEB90
 0001:000CDD50       ?DrawHeadlights@vehCarModel@@QAEX_N@Z 004CED50
 0001:000CDF50       ?GetPosition@vehCarModel@@UAEABVVector3@@XZ 004CEF50
 0001:000CDF80       ?GetVelocity@vehCarModel@@UAEABVVector3@@XZ 004CEF80
 0001:000CDF90       ?GetMatrix@vehCarModel@@UAEABVMatrix34@@AAV2@@Z 004CEF90
 0001:000CDFA0       ?SetMatrix@vehCarModel@@UAEXABVMatrix34@@@Z 004CEFA0
 0001:000CDFC0       ?GetEntity@vehCarModel@@UAEPAVdgPhysEntity@@XZ 004CEFC0
 0001:000CDFD0       ?AttachEntity@vehCarModel@@UAEPAVdgPhysEntity@@XZ 004CEFD0
 0001:000CDFE0       ?BreakElectrics@vehCarModel@@QAEXABVVector3@@@Z 004CEFE0
 0001:000CE050       ?SetVisible@vehCarModel@@QAEX_N@Z 004CF050
 0001:000CE070       ?GetVisible@vehCarModel@@QAE_NXZ 004CF070
 0001:000CE080       ?DrawReflected@vehCarModel@@UAEXM@Z 004CF080
 0001:000CE090       ??_EltLight@@QAEPAXI@Z     004CF090
 0001:000CE0F0       ??0vehTransmission@@QAE@XZ 004CF0F0
 0001:000CE200       ?Reset@vehTransmission@@UAEXXZ 004CF200
 0001:000CE220       ?ComputeConstants@vehTransmission@@QAEXXZ 004CF220
 0001:000CE530       ?GearRatioFromMPH@vehTransmission@@AAEMM@Z 004CF530
 0001:000CE560       ?Init@vehTransmission@@QAEXPAVvehCarSim@@@Z 004CF560
 0001:000CE570       ?Upshift@vehTransmission@@QAEHXZ 004CF570
 0001:000CE5B0       ?Downshift@vehTransmission@@QAEHXZ 004CF5B0
 0001:000CE600       ?Update@vehTransmission@@UAEXXZ 004CF600
 0001:000CE6B0       ?Automatic@vehTransmission@@QAEXH@Z 004CF6B0
 0001:000CE6C0       ?SetReverse@vehTransmission@@QAEXXZ 004CF6C0
 0001:000CE6D0       ?SetNeutral@vehTransmission@@QAEXXZ 004CF6D0
 0001:000CE6E0       ?SetForward@vehTransmission@@QAEXXZ 004CF6E0
 0001:000CE700       ?SetCurrentGear@vehTransmission@@QAEHH@Z 004CF700
 0001:000CE740       ?FileIO@vehTransmission@@UAEXAAVdatParser@@@Z 004CF740
 0001:000CE850       ??_GvehTransmission@@UAEPAXI@Z 004CF850
 0001:000CE880       ?GetClassName@vehTransmission@@UAEPADXZ 004CF880
 0001:000CE890       ??0aiAmbientVehicleAudio@@QAE@XZ 004CF890
 0001:000CE8E0       ??1aiAmbientVehicleAudio@@UAE@XZ 004CF8E0
 0001:000CE8F0       ?Init@aiAmbientVehicleAudio@@QAEXPADPAVVector3@@@Z 004CF8F0
 0001:000CE9B0       ?Reset@aiAmbientVehicleAudio@@QAEXXZ 004CF9B0
 0001:000CE9D0       ?AssignSounds@aiAmbientVehicleAudio@@UAEXXZ 004CF9D0
 0001:000CEA50       ?UnAssignSounds@aiAmbientVehicleAudio@@UAEXH@Z 004CFA50
 0001:000CEAB0       ?PlayAvoidanceHorn@aiAmbientVehicleAudio@@QAE_NXZ 004CFAB0
 0001:000CEAD0       ?PlayImpactHorn@aiAmbientVehicleAudio@@QAEXM@Z 004CFAD0
 0001:000CEAF0       ?UpdateHorn@aiAmbientVehicleAudio@@QAEXXZ 004CFAF0
 0001:000CEB10       ?GetAudImpactPtr@aiAmbientVehicleAudio@@QAEPAVAudImpact@@XZ 004CFB10
 0001:000CEB20       ?UpdateAudio@aiAmbientVehicleAudio@@UAEXXZ 004CFB20
 0001:000CEB90       ?UpdateAudio@aiAmbientVehicleAudio@@QAEHM@Z 004CFB90
 0001:000CECC0       ?InitStatics@aiAmbientVehicleAudio@@SAXXZ 004CFCC0
 0001:000CED00       ?DeallocateStatics@aiAmbientVehicleAudio@@SAXXZ 004CFD00
 0001:000CEF00       ?UpdateStatics@aiAmbientVehicleAudio@@SAXM@Z 004CFF00
 0001:000CEF30       ?UpdateVoices@aiAmbientVehicleAudio@@CAXHM@Z 004CFF30
 0001:000CEF70       ?SetCSVCatString@aiAmbientVehicleAudio@@SAXPAD@Z 004CFF70
 0001:000CEFA0       ?LoadNumVFileChoices@aiAmbientVehicleAudio@@SAXPAD@Z 004CFFA0
 0001:000CEFE0       ?EchoOn@aiAmbientVehicleAudio@@QAEXXZ 004CFFE0
 0001:000CF030       ?EchoOff@aiAmbientVehicleAudio@@QAEXXZ 004D0030
 0001:000CF060       ?UpdateEcho@aiAmbientVehicleAudio@@AAEXXZ 004D0060
 0001:000CF090       ?PlayImpactReaction@aiAmbientVehicleAudio@@QAEXM@Z 004D0090
 0001:000CF0B0       ?PlayAvoidanceReaction@aiAmbientVehicleAudio@@QAEXM@Z 004D00B0
 0001:000CF0D0       ?LoadEngine@aiAmbientVehicleAudio@@QAE_NPAD0@Z 004D00D0
 0001:000CF300       ?LoadHorn@aiAmbientVehicleAudio@@QAE_NPAD0@Z 004D0300
 0001:000CF530       ?LoadVoices@aiAmbientVehicleAudio@@QAE_NPAD0_N@Z 004D0530
 0001:000CF7B0       ?LoadImpacts@aiAmbientVehicleAudio@@QAE_NPAD0@Z 004D07B0
 0001:000CFB00       ?DeallocateAudioData@@YAXPAPAPAVaiEngineAudio@@PAH@Z 004D0B00
 0001:000CFB70       ?DeallocateAudioData@@YAXPAPAPAVAudCreature@@PAH@Z 004D0B70
 0001:000CFBE0       ?DeallocateAudioData@@YAXPAPAPAVAudImpact@@PAH@Z 004D0BE0
 0001:000CFC50       ??_GvehHornAudio@@QAEPAXI@Z 004D0C50
 0001:000CFC80       ?SetSirenCSVName@vehCarAudioContainer@@SAXPBD@Z 004D0C80
 0001:000CFCB0       ?RegisterTypes@vehCarAudioContainer@@SAXPBD@Z 004D0CB0
 0001:000CFE30       ?RegisterSemiNames@vehCarAudioContainer@@CAXPAVStream@@PAD@Z 004D0E30
 0001:000CFF10       ?RegisterPoliceNames@vehCarAudioContainer@@CAXPAVStream@@PAD@Z 004D0F10
 0001:000CFFF0       ?InitStatics@vehCarAudioContainer@@SAXXZ 004D0FF0
 0001:000D0020       ?DeallocateStatics@vehCarAudioContainer@@SAXXZ 004D1020
 0001:000D00F0       ??0vehCarAudioContainer@@QAE@XZ 004D10F0
 0001:000D0110       ??0vehCarAudioContainer@@QAE@PBDPAVvehCarSim@@PAVvehCarDamage@@H@Z 004D1110
 0001:000D01D0       ?Init@vehCarAudioContainer@@QAEXPBDPAVvehCarSim@@PAVvehCarDamage@@H@Z 004D11D0
 0001:000D02E0       ?InitPolice@vehCarAudioContainer@@QAEXPBDPAVvehCarSim@@PAVvehCarDamage@@H@Z 004D12E0
 0001:000D03D0       ?InitSemi@vehCarAudioContainer@@QAEXPBDPAVvehCarSim@@PAVvehCarDamage@@H@Z 004D13D0
 0001:000D04E0       ?InitNitro@vehCarAudioContainer@@QAEXPBDPAVvehCarSim@@PAVvehCarDamage@@H@Z 004D14E0
 0001:000D05F0       ??1vehCarAudioContainer@@QAE@XZ 004D15F0
 0001:000D0660       ?Set2DPan@vehCarAudioContainer@@QAEXM@Z 004D1660
 0001:000D06C0       ?Is3D@vehCarAudioContainer@@QAE_NXZ 004D16C0
 0001:000D06F0       ?IsAirBorne@vehCarAudioContainer@@QAE_NXZ 004D16F0
 0001:000D0730       ?GetAudImpactPtr@vehCarAudioContainer@@QAEPAVAudImpact@@XZ 004D1730
 0001:000D0770       ?GetCarAudioPtr@vehCarAudioContainer@@QAEPAVvehCarAudio@@XZ 004D1770
 0001:000D0780       ?GetNitroCarAudioPtr@vehCarAudioContainer@@QAEPAVvehNitroCarAudio@@XZ 004D1780
 0001:000D0790       ?GetPoliceCarAudioPtr@vehCarAudioContainer@@QAEPAVvehPoliceCarAudio@@XZ 004D1790
 0001:000D07A0       ?GetSemiCarAudioPtr@vehCarAudioContainer@@QAEPAVvehSemiCarAudio@@XZ 004D17A0
 0001:000D07B0       ?IsPlayer@vehCarAudioContainer@@QAE_NXZ 004D17B0
 0001:000D07C0       ?PlayHorn@vehCarAudioContainer@@QAEXXZ 004D17C0
 0001:000D0800       ?StopHorn@vehCarAudioContainer@@QAEXXZ 004D1800
 0001:000D0840       ?Set3D@vehCarAudioContainer@@QAEX_N@Z 004D1840
 0001:000D0890       ?PlayNitro@vehCarAudioContainer@@QAEXXZ 004D1890
 0001:000D08A0       ?StopNitro@vehCarAudioContainer@@QAEXXZ 004D18A0
 0001:000D08B0       ?StartSiren@vehCarAudioContainer@@QAEXXZ 004D18B0
 0001:000D08C0       ?StopSiren@vehCarAudioContainer@@QAEXXZ 004D18C0
 0001:000D08D0       ?RemoveNetVehicleAudio@vehCarAudioContainer@@QAEXXZ 004D18D0
 0001:000D0910       ?SilenceEngine@vehCarAudioContainer@@QAEXH@Z 004D1910
 0001:000D0980       ?Update@vehCarAudioContainer@@QAEXXZ 004D1980
 0001:000D09C0       ?Reset@vehCarAudioContainer@@QAEXXZ 004D19C0
 0001:000D0A00       ?IsSemiOrBus@vehCarAudioContainer@@SA_NPBD@Z 004D1A00
 0001:000D0A70       ?IsPolice@vehCarAudioContainer@@SA_NPBD@Z 004D1A70
 0001:000D0C00       ??0vehWheelPtx@@QAE@XZ     004D1C00
 0001:000D0C60       ??1vehWheelPtx@@UAE@XZ     004D1C60
 0001:000D0CC0       ?ConstructClass@vehWheelPtx@@SAXPBD@Z 004D1CC0
 0001:000D0D90       ?DestroyClass@vehWheelPtx@@SAXXZ 004D1D90
 0001:000D0DC0       ?Reset@vehWheelPtx@@UAEXXZ 004D1DC0
 0001:000D0DD0       ?Init@vehWheelPtx@@QAEXPAVvehCarSim@@@Z 004D1DD0
 0001:000D0E40       ?Update@vehWheelPtx@@UAEXXZ 004D1E40
 0001:000D0E90       ?UpdateWheel@vehWheelPtx@@QAEXPAVvehWheel@@@Z 004D1E90
 0001:000D0EF0       ?Blast@vehWheelPtx@@QAEXPAVvehWheel@@MHH@Z 004D1EF0
 0001:000D1160       ??_GvehWheelPtx@@UAEPAXI@Z 004D2160
 0001:000D1190       ??0vehWheel@@QAE@XZ        004D2190
 0001:000D12E0       ?Reset@vehWheel@@UAEXXZ    004D22E0
 0001:000D13F0       ?ComputeConstants@vehWheel@@QAEXXZ 004D23F0
 0001:000D1490       ?AddNormalLoad@vehWheel@@QAEXM@Z 004D2490
 0001:000D14C0       ?SetNormalLoad@vehWheel@@QAEXM@Z 004D24C0
 0001:000D15D0       ?ComputeFriction@vehWheel@@AAEMMPAM@Z 004D25D0
 0001:000D1690       ?Init@vehWheel@@QAEXPAVvehCarSim@@PBDPADVVector3@@PAVphInertialCS@@HH@Z 004D2690
 0001:000D1720       ?CalcSuspensionForce@vehWheel@@AAEXM_NM@Z 004D2720
 0001:000D1A00       ?ComputeDwtdw@vehWheel@@QAEXMPAM00@Z 004D2A00
 0001:000D2440       ?GetBumpDisplacement@vehWheel@@AAEMM@Z 004D3440
 0001:000D24E0       ?Update@vehWheel@@UAEXXZ   004D34E0
 0001:000D2F60       ?GetSurfaceSound@vehWheel@@QAEHXZ 004D3F60
 0001:000D2F80       ?SetInputs@vehWheel@@QAEXMMM@Z 004D3F80
 0001:000D3030       ?GetVisualDispVert@vehWheel@@QAEMXZ 004D4030
 0001:000D3090       ?GetVisualDispLat@vehWheel@@QAEMXZ 004D4090
 0001:000D30D0       ?GetVisualDispLong@vehWheel@@QAEMXZ 004D40D0
 0001:000D3110       ?CopyVars@vehWheel@@QAEXPAV1@@Z 004D4110
 0001:000D31C0       ?FileIO@vehWheel@@UAEXAAVdatParser@@@Z 004D41C0
 0001:000D3390       ??_GvehWheel@@UAEPAXI@Z    004D4390
 0001:000D33C0       ?GetClassName@vehWheel@@UAEPADXZ 004D43C0
 0001:000D33D0       ??0vehPoliceCarAudio@@QAE@PAVvehCarSim@@PAVvehCarDamage@@PBD2_N@Z 004D43D0
 0001:000D34C0       ??1vehPoliceCarAudio@@UAE@XZ 004D44C0
 0001:000D3590       ?DeallocateSirenPlayInfo@vehPoliceCarAudio@@AAEXPAUtagSirenData@@@Z 004D4590
 0001:000D35F0       ?EchoOn@vehPoliceCarAudio@@QAEXXZ 004D45F0
 0001:000D3670       ?EchoOff@vehPoliceCarAudio@@QAEXXZ 004D4670
 0001:000D36B0       ?UpdateEcho@vehPoliceCarAudio@@QAEXXZ 004D46B0
 0001:000D36F0       ?Init@vehPoliceCarAudio@@QAEXPAVvehCarSim@@PAVvehCarDamage@@PBD2_N@Z 004D46F0
 0001:000D3730       ?Load@vehPoliceCarAudio@@AAEXPBD@Z 004D4730
 0001:000D3800       ?ReadSirenData@vehPoliceCarAudio@@AAEXPAVStream@@@Z 004D4800
 0001:000D39E0       ?ReadSirenData@vehPoliceCarAudio@@AAEXPAUtagSirenData@@PAD@Z 004D49E0
 0001:000D3A50       ?ReadSirenPlayInfo@vehPoliceCarAudio@@AAEXPAUtagSirenData@@PAD@Z 004D4A50
 0001:000D3B00       ?ExplosionIsPlaying@vehPoliceCarAudio@@QAEHXZ 004D4B00
 0001:000D3B20       ?StartSiren@vehPoliceCarAudio@@QAEXH@Z 004D4B20
 0001:000D3C20       ?StopSiren@vehPoliceCarAudio@@QAEXXZ 004D4C20
 0001:000D3C90       ?PlayExplosion@vehPoliceCarAudio@@QAEXXZ 004D4C90
 0001:000D3D50       ?DamageSiren@vehPoliceCarAudio@@QAEXXZ 004D4D50
 0001:000D3E40       ?UpdateSiren@vehPoliceCarAudio@@QAEHMMM@Z 004D4E40
 0001:000D3F60       ?UpdateSiren@vehPoliceCarAudio@@QAEXXZ 004D4F60
 0001:000D3FB0       ?FluctuateSiren@vehPoliceCarAudio@@AAEXXZ 004D4FB0
 0001:000D4060       ?UpdateAudio3D@vehPoliceCarAudio@@QAEHM@Z 004D5060
 0001:000D40B0       ?UpdateExplosion@vehPoliceCarAudio@@QAEXMM@Z 004D50B0
 0001:000D4120       ?PlayVoice@vehPoliceCarAudio@@QAEXXZ 004D5120
 0001:000D4130       ?AssignSounds@vehPoliceCarAudio@@UAEXXZ 004D5130
 0001:000D4220       ?UnAssignSounds@vehPoliceCarAudio@@UAEXH@Z 004D5220
 0001:000D4290       ?Reset@vehPoliceCarAudio@@QAEXXZ 004D5290
 0001:000D42A0       ?UpdateAudio@vehPoliceCarAudio@@UAEXXZ 004D52A0
 0001:000D42F0       ?UpdateAudio3D@vehPoliceCarAudio@@QAEXXZ 004D52F0
 0001:000D43B0       ?UpdateAudioNon3D@vehPoliceCarAudio@@QAEXXZ 004D53B0
 0001:000D4400       ?RandomizeNumber@vehPoliceCarAudio@@QAEFXZ 004D5400
 0001:000D4440       ?GetNumCopsPursuingPlayer@vehPoliceCarAudio@@SAHXZ 004D5440
 0001:000D4450       ?SetNon3DParams@vehPoliceCarAudio@@UAEXXZ 004D5450
 0001:000D44F0       ?Set2DPan@vehPoliceCarAudio@@QAEXM@Z 004D54F0
 0001:000D4570       ?Set3DParams@vehPoliceCarAudio@@UAEXXZ 004D5570
 0001:000D4580       ?RemoveFromManager@vehPoliceCarAudio@@QAEXXZ 004D5580
 0001:000D4590       ?Update@vehPoliceCarAudio@@UAEXXZ 004D5590
 0001:000D46C0       ??0vehFeedback@@QAE@XZ     004D56C0
 0001:000D4740       ??1vehFeedback@@UAE@XZ     004D5740
 0001:000D4750       ?GetPad@vehFeedback@@QAEPAVioPad@@XZ 004D5750
 0001:000D4760       ?SetPad@vehFeedback@@QAEXPAVioPad@@@Z 004D5760
 0001:000D4770       ?GetPadID@vehFeedback@@QAEHXZ 004D5770
 0001:000D4780       ?SetPadID@vehFeedback@@QAEXH@Z 004D5780
 0001:000D47A0       ?SetFeedback@vehFeedback@@UAEH_N@Z 004D57A0
 0001:000D47B0       ?SetTimingUnit@vehFeedback@@UAEHM@Z 004D57B0
 0001:000D47E0       ?GetNumActuators@vehFeedback@@UAEHXZ 004D57E0
 0001:000D47F0       ?SetActuatorValue@vehFeedback@@UAEHHM@Z 004D57F0
 0001:000D4830       ?PlayFeedbackSample@vehFeedback@@UAEHHHPAMPAH@Z 004D5830
 0001:000D48B0       ?PlayFeedbackSampleID@vehFeedback@@UAEHH@Z 004D58B0
 0001:000D4910       ?ClearAllSamples@vehFeedback@@UAEH_N@Z 004D5910
 0001:000D4980       ?GetNextUnit@vehFeedback@@UAEMH@Z 004D5980
 0001:000D4A80       ?Update@vehFeedback@@UAEHXZ 004D5A80
 0001:000D4B50       ??_GvehFeedback@@UAEPAXI@Z 004D5B50
 0001:000D4B80       ??0vehGyro@@QAE@XZ         004D5B80
 0001:000D4BC0       ?GetDirName@vehGyro@@UAEPBDXZ 004D5BC0
 0001:000D4BD0       ?Init@vehGyro@@QAEXPAVvehCarSim@@PBD@Z 004D5BD0
 0001:000D4C00       ?Update@vehGyro@@UAEXXZ    004D5C00
 0001:000D4EE0       ?FileIO@vehGyro@@UAEXAAVdatParser@@@Z 004D5EE0
 0001:000D4F60       ??_GvehGyro@@UAEPAXI@Z     004D5F60
 0001:000D4F90       ??1vehGyro@@UAE@XZ         004D5F90
 0001:000D4FA0       ?GetClassName@vehGyro@@UAEPADXZ 004D5FA0
 0001:000D4FB0       ??0vehStuck@@QAE@XZ        004D5FB0
 0001:000D5060       ?Reset@vehStuck@@UAEXXZ    004D6060
 0001:000D5080       ?GetDirName@vehStuck@@UAEPBDXZ 004D6080
 0001:000D5090       ?Init@vehStuck@@QAEXPAVvehCarSim@@PBD@Z 004D6090
 0001:000D50C0       ?Impact@vehStuck@@QAEXXZ   004D60C0
 0001:000D5100       ?Pegged@vehStuck@@QAEHXZ   004D6100
 0001:000D5140       ?Update@vehStuck@@UAEXXZ   004D6140
 0001:000D5510       ?FileIO@vehStuck@@UAEXAAVdatParser@@@Z 004D6510
 0001:000D55B0       ??_GvehStuck@@UAEPAXI@Z    004D65B0
 0001:000D55E0       ??1vehStuck@@UAE@XZ        004D65E0
 0001:000D55F0       ?GetClassName@vehStuck@@UAEPADXZ 004D65F0
 0001:000D5600       ??0vehSiren@@QAE@XZ        004D6600
 0001:000D5630       ??1vehSiren@@QAE@XZ        004D6630
 0001:000D5680       ?Init@vehSiren@@QAE_NXZ    004D6680
 0001:000D5740       ?AddLight@vehSiren@@QAE_NABVVector3@@0@Z 004D6740
 0001:000D5820       ?Reset@vehSiren@@QAEXXZ    004D6820
 0001:000D5830       ?Update@vehSiren@@QAEXXZ   004D6830
 0001:000D5880       ?Draw@vehSiren@@QAEXABVMatrix34@@@Z 004D6880
 0001:000D5A00       ??0vehSplash@@QAE@XZ       004D6A00
 0001:000D5A70       ?Reset@vehSplash@@UAEXXZ   004D6A70
 0001:000D5A80       ?Init@vehSplash@@QAEXPAVphInertialCS@@ABVVector3@@1@Z 004D6A80
 0001:000D5BD0       ?Activate@vehSplash@@QAEXM@Z 004D6BD0
 0001:000D5BF0       ?Update@vehSplash@@UAEXXZ  004D6BF0
 0001:000D5F00       ??_GvehSplash@@UAEPAXI@Z   004D6F00
 0001:000D5F30       ??1vehSplash@@UAE@XZ       004D6F30
 0001:000D5F40       ??0vehTrailer@@QAE@XZ      004D6F40
 0001:000D61A0       ??1vehTrailer@@UAE@XZ      004D71A0
 0001:000D62E0       ?GetDirName@vehTrailer@@UAEPBDXZ 004D72E0
 0001:000D62F0       ?Init@vehTrailer@@QAEXPBDABVVector3@@PAVvehCarSim@@H@Z 004D72F0
 0001:000D67D0       ?SetMatrix@vehTrailerInstance@@UAEXABVMatrix34@@@Z 004D77D0
 0001:000D67F0       ?GetMatrix@vehTrailerInstance@@UAEABVMatrix34@@AAV2@@Z 004D77F0
 0001:000D6810       ?GetPosition@vehTrailerInstance@@UAEABVVector3@@XZ 004D7810
 0001:000D6820       ?GetEntity@vehTrailerInstance@@UAEPAVdgPhysEntity@@XZ 004D7820
 0001:000D6830       ?AttachEntity@vehTrailerInstance@@UAEPAVdgPhysEntity@@XZ 004D7830
 0001:000D6840       ?GetVelocity@vehTrailerInstance@@UAEABVVector3@@XZ 004D7840
 0001:000D6850       ?SizeOf@vehTrailerInstance@@UAEIXZ 004D7850
 0001:000D6860       ?GetInst@vehTrailer@@UAEPAVlvlInstance@@XZ 004D7860
 0001:000D6870       ?RequiresTerrainCollision@vehTrailer@@UAE_NXZ 004D7870
 0001:000D6980       ?BottomedOut@vehTrailer@@QAEHXZ 004D7980
 0001:000D69C0       ?Reset@vehTrailer@@UAEXXZ  004D79C0
 0001:000D6B00       ?Update@vehTrailer@@UAEXXZ 004D7B00
 0001:000D6C40       ?PostUpdate@vehTrailer@@UAEXXZ 004D7C40
 0001:000D6C50       ?SetCarHitchOffset@vehTrailer@@QAEXXZ 004D7C50
 0001:000D6C80       ?SetTrailerHitchOffset@vehTrailer@@QAEXXZ 004D7C80
 0001:000D6CB0       ?FileIO@vehTrailer@@UAEXAAVdatParser@@@Z 004D7CB0
 0001:000D6D90       ?Save@vehTrailer@@UAE_NXZ  004D7D90
 0001:000D6DC0       ?Load@vehTrailer@@UAE_NXZ  004D7DC0
 0001:000D6DF0       ?Init@vehTrailerInstance@@QAEXPBDABVVector3@@H@Z 004D7DF0
 0001:000D6F20       ?Draw@vehTrailerInstance@@UAEXH@Z 004D7F20
 0001:000D71F0       ?DrawShadow@vehTrailerInstance@@UAEXXZ 004D81F0
 0001:000D7320       ?DrawShadowMap@vehTrailerInstance@@UAEXXZ 004D8320
 0001:000D7420       ?GetTrailerHitch@vehTrailerInstance@@QAE_NPAVVector3@@@Z 004D8420
 0001:000D74B0       ??_EvehTrailer@@UAEPAXI@Z  004D84B0
 0001:000D74E0       j_??1lvlInstance@@QAE@XZ_0 004D84E0
 0001:000D74F0       ??_EvehTrailer@@WLE@AEPAXI@Z 004D84F0
 0001:000D7500       ?Update@vehTrailer@@WLE@AEXXZ 004D8500
 0001:000D7510       ?GetClassName@vehTrailer@@UAEPADXZ 004D8510
 0001:000D7520       ?GetICS@vehTrailer@@UAEPAVphInertialCS@@XZ 004D8520
 0001:000D7530       ??0vehBreakable@@QAE@PAPAVmodStatic@@AAVMatrix34@@HHH@Z 004D8530
 0001:000D7580       ??0vehBreakableMgr@@QAE@XZ 004D8580
 0001:000D75B0       ??1vehBreakableMgr@@QAE@XZ 004D85B0
 0001:000D75E0       ?Init@vehBreakableMgr@@QAE_NPAVMatrix34@@@Z 004D85E0
 0001:000D7600       ?Create@vehBreakableMgr@@QAEPAVvehBreakable@@PBD0PAPAVmodStatic@@HH@Z 004D8600
 0001:000D76A0       ?Add@vehBreakableMgr@@QAEXPBD0PAPAVmodStatic@@HH@Z 004D86A0
 0001:000D76F0       ?Get@vehBreakableMgr@@QAEPAVvehBreakable@@H@Z 004D86F0
 0001:000D7710       ?Reset@vehBreakableMgr@@QAEXXZ 004D8710
 0001:000D7770       ?Update@vehBreakableMgr@@QAEXXZ 004D8770
 0001:000D7780       ?Draw@vehBreakableMgr@@QAEXABVMatrix34@@PAVmodShader@@H@Z 004D8780
 0001:000D7890       ?DrawCityLit@vehBreakableMgr@@QAEXABVMatrix34@@PAVmodShader@@H@Z 004D8890
 0001:000D78A0       ?Impact@vehBreakableMgr@@QAEXMABVVector3@@H@Z 004D88A0
 0001:000D7940       ?Eject@vehBreakableMgr@@QAEXPAVvehBreakable@@H@Z 004D8940
 0001:000D7BB0       ?EjectAll@vehBreakableMgr@@QAEXH@Z 004D8BB0
 0001:000D7BE0       ?Add@vehBreakable@@QAEXPAV1@@Z 004D8BE0
 0001:000D7C10       ??0vehEngine@@QAE@XZ       004D8C10
 0001:000D7CD0       ??1vehEngine@@UAE@XZ       004D8CD0
 0001:000D7CE0       ?Reset@vehEngine@@UAEXXZ   004D8CE0
 0001:000D7D20       ?Init@vehEngine@@QAEXPAVvehCarSim@@PBD1@Z 004D8D20
 0001:000D7DC0       ?ComputeConstants@vehEngine@@QAEXXZ 004D8DC0
 0001:000D7E20       ?CalcTorqueAtFullThrottle@vehEngine@@QAEMM@Z 004D8E20
 0001:000D7EA0       ?CalcTorqueAtZeroThrottle@vehEngine@@QAEMXZ 004D8EA0
 0001:000D7ED0       ?CalcTorque@vehEngine@@QAEMM@Z 004D8ED0
 0001:000D7F10       ?CalcHPAtFullThrottle@vehEngine@@QAEMM@Z 004D8F10
 0001:000D7F30       ?Update@vehEngine@@UAEXXZ  004D8F30
 0001:000D8240       ?FileIO@vehEngine@@UAEXAAVdatParser@@@Z 004D9240
 0001:000D82E0       ??_GvehEngine@@UAEPAXI@Z   004D92E0
 0001:000D8310       ?GetClassName@vehEngine@@UAEPADXZ 004D9310
 0001:000D8320       ??0vehAero@@QAE@XZ         004D9320
 0001:000D8360       ?Update@vehAero@@UAEXXZ    004D9360
 0001:000D86E0       ?FileIO@vehAero@@UAEXAAVdatParser@@@Z 004D96E0
 0001:000D8760       ??_GvehAero@@UAEPAXI@Z     004D9760
 0001:000D8790       ?GetClassName@vehAero@@UAEPADXZ 004D9790
 0001:000D87A0       ??0vehSuspension@@QAE@XZ   004D97A0
 0001:000D8810       ?Init@vehSuspension@@QAEXPAVvehCarSim@@PBD1PAVvehWheel@@@Z 004D9810
 0001:000D88B0       ?Update@vehSuspension@@UAEXXZ 004D98B0
 0001:000D8920       ?Copy@vehSuspension@@QAEXABV1@@Z 004D9920
 0001:000D8950       ??_GvehSuspension@@UAEPAXI@Z 004D9950
 0001:000D8980       ?GetClassName@vehSuspension@@UAEPADXZ 004D9980
 0001:000D8990       ??0vehAxle@@QAE@XZ         004D9990
 0001:000D8A20       ?ComputeConstants@vehAxle@@QAEXXZ 004D9A20
 0001:000D8A50       ?Init@vehAxle@@QAEXPAVvehCarSim@@PBD1PAVvehWheel@@2@Z 004D9A50
 0001:000D8B20       ?Update@vehAxle@@UAEXXZ    004D9B20
 0001:000D8CA0       ?FileIO@vehAxle@@UAEXAAVdatParser@@@Z 004D9CA0
 0001:000D8CF0       ??_GvehAxle@@UAEPAXI@Z     004D9CF0
 0001:000D8D20       ?GetClassName@vehAxle@@UAEPADXZ 004D9D20
 0001:000D8D60       ??0vehDrivetrain@@QAE@XZ   004D9D60
 0001:000D8DD0       ?Init@vehDrivetrain@@QAEXPAVvehCarSim@@@Z 004D9DD0
 0001:000D8DE0       ?CopyVars@vehDrivetrain@@QAEXPAV1@@Z 004D9DE0
 0001:000D8E00       ?Reset@vehDrivetrain@@UAEXXZ 004D9E00
 0001:000D8E20       ?Attach@vehDrivetrain@@QAEXXZ 004D9E20
 0001:000D8E40       ?Detach@vehDrivetrain@@QAEXXZ 004D9E40
 0001:000D8E50       ?AddWheel@vehDrivetrain@@QAEHPAVvehWheel@@@Z 004D9E50
 0001:000D8E90       ?Update@vehDrivetrain@@UAEXXZ 004D9E90
 0001:000D9570       ?FileIO@vehDrivetrain@@UAEXAAVdatParser@@@Z 004DA570
 0001:000D95D0       ??_GvehDrivetrain@@UAEPAXI@Z 004DA5D0
 0001:000D9600       ?GetClassName@vehDrivetrain@@UAEPADXZ 004DA600
 0001:000D9610       ??0vehBound@@QAE@XZ        004DA610
 0001:000D9680       ??1vehBound@@QAE@XZ        004DA680
 0001:000D96E0       ?Init@vehBound@@QAEXXZ     004DA6E0
 0001:000D9700       ?SetFriction@vehBound@@UAEXM@Z 004DA700
 0001:000D9710       ?SetElasticity@vehBound@@UAEXM@Z 004DA710
 0001:000D9720       ??0aiEngineAudio@@QAE@XZ   004DA720
 0001:000D9740       ??0aiEngineAudio@@QAE@PAV0@@Z 004DA740
 0001:000D9820       ??1aiEngineAudio@@QAE@XZ   004DA820
 0001:000D98D0       ?Load@aiEngineAudio@@SAHPAPAV1@PAD1PAH@Z 004DA8D0
 0001:000D9990       ?AddToHash@aiEngineAudio@@SAXPADH@Z 004DA990
 0001:000D99D0       ?ReadCSV@aiEngineAudio@@AAEHPAVStream@@@Z 004DA9D0
 0001:000D9C10       ?EchoOn@aiEngineAudio@@QAEXM@Z 004DAC10
 0001:000D9C40       ?EchoOff@aiEngineAudio@@QAEXXZ 004DAC40
 0001:000D9C50       ?UpdateEcho@aiEngineAudio@@QAEXXZ 004DAC50
 0001:000D9C60       ?AssignSounds@aiEngineAudio@@QAEXH@Z 004DAC60
 0001:000D9C80       ?UnAssignSounds@aiEngineAudio@@QAEXXZ 004DAC80
 0001:000D9CA0       ?CalculatePitch@aiEngineAudio@@QAEXMMH@Z 004DACA0
 0001:000D9D30       ?UpdateDoppler@aiEngineAudio@@QAEXMMM@Z 004DAD30
 0001:000D9EC0       ??0vehHornAudio@@QAE@XZ    004DAEC0
 0001:000D9EF0       ??0vehHornAudio@@QAE@PAV0@@Z 004DAEF0
 0001:000DA020       ??1vehHornAudio@@QAE@XZ    004DB020
 0001:000DA080       ?AllocTiming@vehHornAudio@@QAEXXZ 004DB080
 0001:000DA130       ?GetHornAudioTimingPtr@vehHornAudio@@QAEPAVvehHornAudioTiming@@H@Z 004DB130
 0001:000DA140       ?GetNumTimings@vehHornAudio@@QAEHXZ 004DB140
 0001:000DA150       ?UpdateDoppler@vehHornAudio@@QAEXMMM@Z 004DB150
 0001:000DA1C0       ?IsPlaying@vehHornAudio@@QAE_NXZ 004DB1C0
 0001:000DA1E0       ?PlayAvoidance@vehHornAudio@@QAE_NXZ 004DB1E0
 0001:000DA280       ?PlayImpact@vehHornAudio@@QAEXM@Z 004DB280
 0001:000DA310       ?Reset@vehHornAudio@@QAEXXZ 004DB310
 0001:000DA320       ?AssignSounds@vehHornAudio@@QAEXH@Z 004DB320
 0001:000DA350       ?UnAssignSounds@vehHornAudio@@QAEXXZ 004DB350
 0001:000DA3D0       ?Load@vehHornAudio@@SAHPAPAV1@PAD1PAH@Z 004DB3D0
 0001:000DA490       ?AddToHash@vehHornAudio@@SAXPADH@Z 004DB490
 0001:000DA4D0       ?ReadCSV@vehHornAudio@@AAEHPAVStream@@@Z 004DB4D0
 0001:000DA680       ?Update@vehHornAudio@@QAEXXZ 004DB680
 0001:000DA6A0       ?EchoOn@vehHornAudio@@QAEXM@Z 004DB6A0
 0001:000DA6D0       ?EchoOff@vehHornAudio@@QAEXXZ 004DB6D0
 0001:000DA6E0       ?UpdateEcho@vehHornAudio@@QAEXXZ 004DB6E0
 0001:000DA810       ??0vehCarAudio@@QAE@PAVvehCarSim@@PAVvehCarDamage@@PBD_N3@Z 004DB810
 0001:000DA890       ??1vehCarAudio@@UAE@XZ     004DB890
 0001:000DA900       ?Init@vehCarAudio@@QAEXPAVvehCarSim@@PAVvehCarDamage@@PBD_N33@Z 004DB900
 0001:000DAB50       ?GetCurrentGear@vehCarAudio@@QAEHXZ 004DBB50
 0001:000DAB60       ?UpdateGear@vehCarAudio@@QAEXXZ 004DBB60
 0001:000DABB0       ?UpdateAudio@vehCarAudio@@UAEXXZ 004DBBB0
 0001:000DAC10       ?UpdateAudio3D@vehCarAudio@@QAEHXZ 004DBC10
 0001:000DACB0       ?UpdateAudioNon3D@vehCarAudio@@QAEXXZ 004DBCB0
 0001:000DAD00       ?UpdateAudio3D@vehCarAudio@@QAEHM@Z 004DBD00
 0001:000DAE30       ?Reset@vehCarAudio@@QAEXXZ 004DBE30
 0001:000DAE40       ?AssignSounds@vehCarAudio@@UAEXXZ 004DBE40
 0001:000DAF80       ?UnAssignSounds@vehCarAudio@@UAEXH@Z 004DBF80
 0001:000DB000       ?SetMinAmpSpeed@vehCarAudio@@QAEXM@Z 004DC000
 0001:000DB020       ?Load@vehCarAudio@@QAEHPBD_N@Z 004DC020
 0001:000DB1C0       ?RemoveFromManager@vehCarAudio@@QAEXXZ 004DC1C0
 0001:000DB1D0       ?PlayHorn@vehCarAudio@@QAEXXZ 004DC1D0
 0001:000DB210       ?StopHorn@vehCarAudio@@QAEXXZ 004DC210
 0001:000DB240       ?SetNon3DParams@vehCarAudio@@UAEXXZ 004DC240
 0001:000DB300       ?Set3DParams@vehCarAudio@@UAEXXZ 004DC300
 0001:000DB320       ?Update@vehCarAudio@@UAEXXZ 004DC320
 0001:000DB340       ?IsAirBorne@vehCarAudio@@QAE_NXZ 004DC340
 0001:000DB350       ?EchoOn@vehCarAudio@@QAEXXZ 004DC350
 0001:000DB400       ?EchoOff@vehCarAudio@@QAEXXZ 004DC400
 0001:000DB450       ?Set2DPan@vehCarAudio@@QAEXM@Z 004DC450
 0001:000DB4C0       ?UpdateEcho@vehCarAudio@@QAEXXZ 004DC4C0
 0001:000DB4F0       ?IsBrakeing@vehCarAudio@@QAE_NXZ 004DC4F0
 0001:000DB500       ?GetSpeed@vehCarAudio@@QAEMXZ 004DC500
 0001:000DB510       ?LoadImpacts@vehCarAudio@@AAE_NPAD0@Z 004DC510
 0001:000DB730       ?GetAudImpactPtr@vehCarAudio@@QAEPAVAudImpact@@XZ 004DC730
 0001:000DB740       ?InitStatics@vehCarAudio@@SAXXZ 004DC740
 0001:000DB750       ?DeallocateStatics@vehCarAudio@@SAXXZ 004DC750
 0001:000DB930       ??0vehSemiCarAudio@@QAE@PAVvehCarSim@@PAVvehCarDamage@@PAD_N3@Z 004DC930
 0001:000DB9C0       ??1vehSemiCarAudio@@UAE@XZ 004DC9C0
 0001:000DB9D0       ?Init@vehSemiCarAudio@@QAEXPAVvehCarSim@@PAVvehCarDamage@@PAD_N33@Z 004DC9D0
 0001:000DBA40       ?UpdateAudio@vehSemiCarAudio@@UAEXXZ 004DCA40
 0001:000DBA90       ?UpdateAudio3D@vehSemiCarAudio@@QAEXXZ 004DCA90
 0001:000DBB50       ?UpdateAudioNon3D@vehSemiCarAudio@@QAEXXZ 004DCB50
 0001:000DBB70       ?UpdateReverse@vehSemiCarAudio@@QAEXXZ 004DCB70
 0001:000DBBD0       ?UpdateAirBlow@vehSemiCarAudio@@QAEXXZ 004DCBD0
 0001:000DBC40       ?Reset@vehSemiCarAudio@@QAEXXZ 004DCC40
 0001:000DBC50       ?AssignSounds@vehSemiCarAudio@@UAEXXZ 004DCC50
 0001:000DBCF0       ?UnAssignSounds@vehSemiCarAudio@@UAEXH@Z 004DCCF0
 0001:000DBD70       ?Load@vehSemiCarAudio@@QAEXPAD@Z 004DCD70
 0001:000DBE80       ?RemoveFromManager@vehSemiCarAudio@@QAEXXZ 004DCE80
 0001:000DBE90       ?SetNon3DParams@vehSemiCarAudio@@UAEXXZ 004DCE90
 0001:000DBF30       ?Set3DParams@vehSemiCarAudio@@UAEXXZ 004DCF30
 0001:000DBF40       ?Update@vehSemiCarAudio@@UAEXXZ 004DCF40
 0001:000DBF50       ?EchoOn@vehSemiCarAudio@@QAEXXZ 004DCF50
 0001:000DBFD0       ?EchoOff@vehSemiCarAudio@@QAEXXZ 004DCFD0
 0001:000DC000       ?Set2DPan@vehSemiCarAudio@@QAEXM@Z 004DD000
 0001:000DC050       ?UpdateEcho@vehSemiCarAudio@@QAEXXZ 004DD050
 0001:000DC1A0       ??0vehNitroCarAudio@@QAE@PAVvehCarSim@@PAVvehCarDamage@@PAD_N3@Z 004DD1A0
 0001:000DC230       ??1vehNitroCarAudio@@UAE@XZ 004DD230
 0001:000DC240       ?Init@vehNitroCarAudio@@QAEXPAVvehCarSim@@PAVvehCarDamage@@PAD_N33@Z 004DD240
 0001:000DC2A0       ?UpdateAudio@vehNitroCarAudio@@UAEXXZ 004DD2A0
 0001:000DC2F0       ?UpdateAudio3D@vehNitroCarAudio@@QAEXXZ 004DD2F0
 0001:000DC370       ?UpdateAudioNon3D@vehNitroCarAudio@@QAEXXZ 004DD370
 0001:000DC380       ?Reset@vehNitroCarAudio@@QAEXXZ 004DD380
 0001:000DC390       ?AssignSounds@vehNitroCarAudio@@UAEXXZ 004DD390
 0001:000DC400       ?UnAssignSounds@vehNitroCarAudio@@UAEXH@Z 004DD400
 0001:000DC450       ?Load@vehNitroCarAudio@@QAEXPAD@Z 004DD450
 0001:000DC550       ?RemoveFromManager@vehNitroCarAudio@@QAEXXZ 004DD550
 0001:000DC560       ?SetNon3DParams@vehNitroCarAudio@@UAEXXZ 004DD560
 0001:000DC5D0       ?Set3DParams@vehNitroCarAudio@@UAEXXZ 004DD5D0
 0001:000DC5E0       ?Update@vehNitroCarAudio@@UAEXXZ 004DD5E0
 0001:000DC5F0       ?EchoOn@vehNitroCarAudio@@QAEXXZ 004DD5F0
 0001:000DC650       ?EchoOff@vehNitroCarAudio@@QAEXXZ 004DD650
 0001:000DC670       ?Set2DPan@vehNitroCarAudio@@QAEXM@Z 004DD670
 0001:000DC6B0       ?UpdateEcho@vehNitroCarAudio@@QAEXXZ 004DD6B0
 0001:000DC6D0       ?PlayNitro@vehNitroCarAudio@@QAEXXZ 004DD6D0
 0001:000DC760       ?StopNitro@vehNitroCarAudio@@QAEXXZ 004DD760
 0001:000DC8B0       ??0vehEngineAudio@@QAE@XZ  004DD8B0
 0001:000DC8C0       ??1vehEngineAudio@@UAE@XZ  004DD8C0
 0001:000DC930       ?GetSoundIndex@vehEngineAudio@@QAEHH@Z 004DD930
 0001:000DC950       ?Stop@vehEngineAudio@@QAEXXZ 004DD950
 0001:000DC980       ?UpdateRPM@vehEngineAudio@@QAEXMMMM@Z 004DD980
 0001:000DC9C0       ?UpdateRPM@vehEngineAudio@@QAEXM@Z 004DD9C0
 0001:000DC9F0       ?EchoOn@vehEngineAudio@@QAEXM@Z 004DD9F0
 0001:000DCA20       ?EchoOff@vehEngineAudio@@QAEXXZ 004DDA20
 0001:000DCA50       ?Enable3DMode@vehEngineAudio@@QAEXPAVVector3@@@Z 004DDA50
 0001:000DCA60       ?Disable3DMode@vehEngineAudio@@QAEXXZ 004DDA60
 0001:000DCA70       ?AssignSounds@vehEngineAudio@@QAEXH@Z 004DDA70
 0001:000DCAC0       ?UnAssignSounds@vehEngineAudio@@QAEXXZ 004DDAC0
 0001:000DCAF0       ?Load@vehEngineAudio@@QAEHPAVStream@@@Z 004DDAF0
 0001:000DCCD0       ?Silence@vehEngineAudio@@QAEXH@Z 004DDCD0
 0001:000DCD00       ?SetPan@vehEngineAudio@@QAEXM@Z 004DDD00
 0001:000DCE50       ??0vehSurfaceAudio@@QAE@XZ 004DDE50
 0001:000DCEF0       ??1vehSurfaceAudio@@UAE@XZ 004DDEF0
 0001:000DCF50       ?SetDamagePtr@vehSurfaceAudio@@QAEXPAVvehCarDamage@@@Z 004DDF50
 0001:000DCF60       ?SetWheelPointers@vehSurfaceAudio@@QAEXPAVvehWheel@@000@Z 004DDF60
 0001:000DCFA0       ?IsBrakeing@vehSurfaceAudio@@QAE_NXZ 004DDFA0
 0001:000DCFD0       ?Update@vehSurfaceAudio@@QAEXPAVvehCarSim@@MM@Z 004DDFD0
 0001:000DD030       ?Update@vehSurfaceAudio@@QAEXPAVvehCarSim@@@Z 004DE030
 0001:000DD080       ?UpdateSurface@vehSurfaceAudio@@QAEXM@Z 004DE080
 0001:000DD1A0       ?UpdateSurface@vehSurfaceAudio@@QAEXMMM@Z 004DE1A0
 0001:000DD2C0       ?UpdateSkid@vehSurfaceAudio@@QAEXM@Z 004DE2C0
 0001:000DD3F0       ?UpdateSkid@vehSurfaceAudio@@QAEXMMM@Z 004DE3F0
 0001:000DD530       ?SurfaceChanged@vehSurfaceAudio@@QAEHXZ 004DE530
 0001:000DD560       ?LoadCSV@vehSurfaceAudio@@QAE_NPAD0@Z 004DE560
 0001:000DD730       ?LoadSuspension@vehSurfaceAudio@@QAEHPAD0@Z 004DE730
 0001:000DD8C0       ?EchoOn@vehSurfaceAudio@@QAEXM@Z 004DE8C0
 0001:000DD8F0       ?EchoOff@vehSurfaceAudio@@QAEXXZ 004DE8F0
 0001:000DD920       ?SetPan@vehSurfaceAudio@@QAEXM@Z 004DE920
 0001:000DD960       ?StopSkid@vehSurfaceAudio@@QAEXXZ 004DE960
 0001:000DD970       ?StopSurface@vehSurfaceAudio@@QAEXXZ 004DE970
 0001:000DD980       ?AssignSounds@vehSurfaceAudio@@QAEXH@Z 004DE980
 0001:000DD9F0       ?UnAssignSounds@vehSurfaceAudio@@QAEXXZ 004DE9F0
 0001:000DDA30       ?UpdateSuspension@vehSurfaceAudio@@QAEXXZ 004DEA30
 0001:000DDB10       ?UpdateSuspension@vehSurfaceAudio@@QAEXMM@Z 004DEB10
 0001:000DDC10       ?LoadTireWobble@vehSurfaceAudio@@QAEHPAD0@Z 004DEC10
 0001:000DDD90       ?UpdateTireWobble@vehSurfaceAudio@@QAEXPAVvehCarSim@@@Z 004DED90
 0001:000DE020       ?UpdateTireWobble@vehSurfaceAudio@@QAEXPAVvehCarSim@@MM@Z 004DF020
 0001:000DE170       ?UpdateEcho@vehSurfaceAudio@@QAEXXZ 004DF170
 0001:000DE180       ?UpdateAir@vehSurfaceAudio@@QAEXXZ 004DF180
 0001:000DE250       ?SetPositionPtr@vehSurfaceAudio@@QAEXPAVVector3@@@Z 004DF250
 0001:000DE260       ??0vehHornAudioTiming@@QAE@XZ 004DF260
 0001:000DE280       ??0vehHornAudioTiming@@QAE@PAV0@@Z 004DF280
 0001:000DE2E0       ??1vehHornAudioTiming@@QAE@XZ 004DF2E0
 0001:000DE330       ?Reset@vehHornAudioTiming@@QAEXXZ 004DF330
 0001:000DE340       ?AllocPlayPause@vehHornAudioTiming@@QAEXMM@Z 004DF340
 0001:000DE3D0       ?Stop@vehHornAudioTiming@@QAEXPAVAudSoundBase@@@Z 004DF3D0
 0001:000DE400       ?Play@vehHornAudioTiming@@QAEXPAVAudSoundBase@@@Z 004DF400
 0001:000DE440       ?Update@vehHornAudioTiming@@QAEXPAVAudSoundBase@@@Z 004DF440
 0001:000DE550       ??0vehEngineSampleWrapper@@QAE@XZ 004DF550
 0001:000DE570       ??1vehEngineSampleWrapper@@UAE@XZ 004DF570
 0001:000DE580       ?SetSoundPtr@vehEngineSampleWrapper@@QAEXPAVAudSoundBase@@@Z 004DF580
 0001:000DE5B0       ?DeallocateSoundPtr@vehEngineSampleWrapper@@QAEXXZ 004DF5B0
 0001:000DE5D0       ?Stop@vehEngineSampleWrapper@@QAEXXZ 004DF5D0
 0001:000DE5F0       ?SetPan@vehEngineSampleWrapper@@QAEXM@Z 004DF5F0
 0001:000DE610       ?UpdateRPM@vehEngineSampleWrapper@@QAEXMMMM@Z 004DF610
 0001:000DE6E0       ?UpdateRPM@vehEngineSampleWrapper@@QAEXM@Z 004DF6E0
 0001:000DE790       ?CalculateVolumeOld@vehEngineSampleWrapper@@QAEMM@Z 004DF790
 0001:000DE7F0       ?CalculateVolume@vehEngineSampleWrapper@@QAEMM@Z 004DF7F0
 0001:000DE860       ?CalculatePitch@vehEngineSampleWrapper@@QAEMM@Z 004DF860
 0001:000DE8A0       ?EchoOn@vehEngineSampleWrapper@@QAEXM@Z 004DF8A0
 0001:000DE8D0       ?EchoOff@vehEngineSampleWrapper@@QAEXXZ 004DF8D0
 0001:000DE8F0       ?Silence@vehEngineSampleWrapper@@QAEXH@Z 004DF8F0
 0001:000DE920       ?ParseCSVBufferOld@vehEngineSampleWrapper@@QAEXPAD@Z 004DF920
 0001:000DEA40       ?ParseCSVBuffer@vehEngineSampleWrapper@@QAEXPAD@Z 004DFA40
 0001:000DEC10       ?SetMaxVolume@vehEngineSampleWrapper@@QAEXM@Z 004DFC10
 0001:000DED50       ??0vehSurfaceAudioData@@QAE@XZ 004DFD50
 0001:000DED80       ??1vehSurfaceAudioData@@UAE@XZ 004DFD80
 0001:000DEDA0       ?AllocateSkidSamples@vehSurfaceAudioData@@QAEXH@Z 004DFDA0
 0001:000DEDD0       ?StopSkid@vehSurfaceAudioData@@QAEXXZ 004DFDD0
 0001:000DEE10       ?UpdateSkid@vehSurfaceAudioData@@QAEXMMM@Z 004DFE10
 0001:000DF010       ?UpdateSkid@vehSurfaceAudioData@@QAEXM@Z 004E0010
 0001:000DF0C0       ?UpdateSurface@vehSurfaceAudioData@@QAEXMMM@Z 004E00C0
 0001:000DF160       ?UpdateSurface@vehSurfaceAudioData@@QAEXM@Z 004E0160
 0001:000DF1E0       ?StopSurface@vehSurfaceAudioData@@QAEXXZ 004E01E0
 0001:000DF200       ?ParseCSVBuffer@vehSurfaceAudioData@@QAE_NPAVStream@@@Z 004E0200
 0001:000DF4E0       ?SkidPlaying@vehSurfaceAudioData@@QAEHXZ 004E04E0
 0001:000DF520       ?SurfacePlaying@vehSurfaceAudioData@@QAEHXZ 004E0520
 0001:000DF540       ?GetSurfaceSoundPtr@vehSurfaceAudioData@@QAEPAVAudSoundBase@@XZ 004E0540
 0001:000DF550       ?AssignSounds@vehSurfaceAudioData@@QAEXH@Z 004E0550
 0001:000DF5B0       ?UnAssignSounds@vehSurfaceAudioData@@QAEXXZ 004E05B0
 0001:000DF5E0       ?SetPan@vehSurfaceAudioData@@QAEXM@Z 004E05E0
 0001:000DF640       ?EchoOn@vehSurfaceAudioData@@QAEXM@Z 004E0640
 0001:000DF6C0       ?EchoOff@vehSurfaceAudioData@@QAEXXZ 004E06C0
 0001:000DF770       ??0UIMenu@@QAE@H@Z         004E0770
 0001:000DF870       ??1UIMenu@@UAE@XZ          004E0870
 0001:000DF930       ?AssignName@UIMenu@@QAEXPAULocString@@@Z 004E0930
 0001:000DF980       ?AssignBackground@UIMenu@@QAEXPAD@Z 004E0980
 0001:000DF9D0       ?Enable@UIMenu@@QAEXXZ     004E09D0
 0001:000DFA40       ?Disable@UIMenu@@QAEXXZ    004E0A40
 0001:000DFA60       ?PreSetup@UIMenu@@UAEXXZ   004E0A60
 0001:000DFA70       ?PostSetup@UIMenu@@UAEXXZ  004E0A70
 0001:000DFA80       ?Update@UIMenu@@UAEXXZ     004E0A80
 0001:000DFA90       ?SetAction@UIMenu@@QAEXW4eSource@1@@Z 004E0A90
 0001:000DFAB0       ?ForceWidgetAction@UIMenu@@QAEXH@Z 004E0AB0
 0001:000DFAD0       ?ClearAction@UIMenu@@QAEXXZ 004E0AD0
 0001:000DFAE0       ?ClearToolTip@UIMenu@@QAEXXZ 004E0AE0
 0001:000DFB10       ?BackUp@UIMenu@@UAEXXZ     004E0B10
 0001:000DFB20       ?SetBstate@UIMenu@@QAEXH@Z 004E0B20
 0001:000DFB50       ?SetFocusWidget@UIMenu@@QAEXH@Z 004E0B50
 0001:000DFB90       ?GetWidgetID@UIMenu@@QAEHXZ 004E0B90
 0001:000DFBA0       ?GetBstate@UIMenu@@QAEHXZ  004E0BA0
 0001:000DFBB0       ?GetDimensions@UIMenu@@QAEXAAM000@Z 004E0BB0
 0001:000DFBE0       ?DisableIME@UIMenu@@QAEXXZ 004E0BE0
 0001:000DFC00       ?FindTheFirstFocusWidget@UIMenu@@QAEHXZ 004E0C00
 0001:000DFC40       ?Increment@UIMenu@@QAEHXZ  004E0C40
 0001:000DFCF0       ?Decrement@UIMenu@@QAEHXZ  004E0CF0
 0001:000DFDA0       ?ScanInput@UIMenu@@QAEHPATeqEvent@@@Z 004E0DA0
 0001:000DFDE0       ?CheckInput@UIMenu@@UAEXXZ 004E0DE0
 0001:000DFE70       ?ScaleWidget@UIMenu@@QAEXAAM000@Z 004E0E70
 0001:000DFEB0       ?AddHotSpot@UIMenu@@QAEPAVuiWidget@@HPADMMMMVdatCallback@@@Z 004E0EB0
 0001:000DFF90       ?AddTextDropdown@UIMenu@@QAEPAVUITextDropdown@@HPAULocString@@PAHMMMMVstring@@HHHVdatCallback@@PAD3@Z 004E0F90
 0001:000E0120       ?AddTextRoller@UIMenu@@QAEPAVUITextRoller@@HPAULocString@@PAHMMMMVstring@@HHHHVdatCallback@@@Z 004E1120
 0001:000E0270       ?AddTextRoller2@UIMenu@@QAEPAVUITextRoller2@@HPAULocString@@PAHMMMMVstring@@HHHHVdatCallback@@@Z 004E1270
 0001:000E03E0       ?AddTextScroll@UIMenu@@QAEPAVUITextScroll@@HPAXMMMMVstring@@HPAHVdatCallback@@@Z 004E13E0
 0001:000E0580       ?AddCompScroll@UIMenu@@QAEPAVUICompositeScroll@@HMMMMMHPAHHHVdatCallback@@@Z 004E1580
 0001:000E0700       ?AddTextField@UIMenu@@QAEPAVUITextField@@HPAULocString@@PADMMMMHHHHHVdatCallback@@@Z 004E1700
 0001:000E0860       ?AddUIControl@UIMenu@@QAEPAVUIControlWidget@@HMMMMMPAVmmIO@@VdatCallback@@@Z 004E1860
 0001:000E0940       ?AddSlider@UIMenu@@QAEPAVUISlider@@HPAULocString@@PAMMMMMMMHHHHVdatCallback@@2@Z 004E1940
 0001:000E0A90       ?AddButton@UIMenu@@QAEPAVUIButton@@HPAULocString@@MMMMHHVdatCallback@@H@Z 004E1A90
 0001:000E0BB0       ?AddLabel@UIMenu@@QAEPAVUILabel@@HPAULocString@@MMMMHH@Z 004E1BB0
 0001:000E0CB0       ?AddBMLabel@UIMenu@@QAEPAVUIBMLabel@@HPADPAVstring@@MMPAH@Z 004E1CB0
 0001:000E0DC0       ?AddIcon@UIMenu@@QAEPAVUIIcon@@HPADMM@Z 004E1DC0
 0001:000E0ED0       ?AddIconW@UIMenu@@QAEPAVUIIconW@@HPAULocString@@PADMMMMVdatCallback@@@Z 004E1ED0
 0001:000E0FE0       ?AddToggle@UIMenu@@QAEPAVUIToggleButton@@HPAULocString@@PAHMMMMHHVdatCallback@@@Z 004E1FE0
 0001:000E1100       ?AddToggle2@UIMenu@@QAEPAVUIToggleButton2@@HPAULocString@@PAHMMMMHHVdatCallback@@@Z 004E2100
 0001:000E1220       ?AddMex@UIMenu@@QAEPAVUIMexButton@@HPAULocString@@PAHHMMMMHHVdatCallback@@@Z 004E2220
 0001:000E1340       ?AddBMButton@UIMenu@@QAEPAVUIBMButton@@HPADMMHVdatCallback@@PAHHH1@Z 004E2340
 0001:000E14D0       ?AddCWArray@UIMenu@@QAEPAVUICWArray@@HMMMMHVdatCallback@@@Z 004E24D0
 0001:000E1610       ?AddVScrollBar@UIMenu@@QAEPAVUIVScrollBar@@HPAHMMMMMMHHVdatCallback@@@Z 004E2610
 0001:000E1760       ?MouseAction@UIMenu@@QAEXTeqEvent@@@Z 004E2760
 0001:000E17D0       ?KeyboardAction@UIMenu@@QAEXTeqEvent@@@Z 004E27D0
 0001:000E1860       ?MouseHitCheck@UIMenu@@QAEPAVuiWidget@@HMM@Z 004E2860
 0001:000E1960       ?SetSelected@UIMenu@@QAEXXZ 004E2960
 0001:000E1990       ?ClearSelected@UIMenu@@QAEXXZ 004E2990
 0001:000E19C0       ?ClearWidgets@UIMenu@@QAEXXZ 004E29C0
 0001:000E19F0       ?CheckMouseHits@UIMenu@@QAEXXZ 004E29F0
 0001:000E1B40       ?AddWidget@UIMenu@@QAEXPAVuiWidget@@PADMMMMH1@Z 004E2B40
 0001:000E1D40       ??_GUIMenu@@UAEPAXI@Z      004E2D40
 0001:000E1D70       ?IsAnOptionMenu@UIMenu@@UAEHXZ 004E2D70
 0001:000E1D80       ??0string@@QAE@ABV0@@Z     004E2D80
 0001:000E1DF0       ??0MenuManager@@QAE@XZ     004E2DF0
 0001:000E2490       ??1MenuManager@@UAE@XZ     004E3490
 0001:000E26F0       ?GetScale@MenuManager@@QAEXAAM000@Z 004E36F0
 0001:000E2760       ?MouseAction@MenuManager@@QAEPAVuiWidget@@HMM@Z 004E3760
 0001:000E27E0       ?ClearAllWidgets@MenuManager@@QAEXXZ 004E37E0
 0001:000E2820       ?Init@MenuManager@@QAEXHHPAD@Z 004E3820
 0001:000E2B10       ?Init@MenuManager@@QAEXPAVasCamera@@HHMMMM@Z 004E3B10
 0001:000E2D30       ?InitCommonStuff@MenuManager@@QAEXHH@Z 004E3D30
 0001:000E3030       ?AddPointer@MenuManager@@QAEXXZ 004E4030
 0001:000E3040       ?InitGlobalStrings@MenuManager@@QAEXXZ 004E4040
 0001:000E38A0       ?LoadRaceNames@MenuManager@@QAEXXZ 004E48A0
 0001:000E3C30       ?GetControllerName@MenuManager@@QAEPADH@Z 004E4C30
 0001:000E3CD0       ?GetFont@MenuManager@@QAEPAXH@Z 004E4CD0
 0001:000E3DA0       ?GetFGColor@MenuManager@@QAEAAVVector4@@H@Z 004E4DA0
 0001:000E3F20       ?CheckBG@MenuManager@@QAEXPAVUIMenu@@@Z 004E4F20
 0001:000E3F40       ?SetDefaultBackgroundImage@MenuManager@@QAEXPAD@Z 004E4F40
 0001:000E3FA0       ?SetBackgroundImage@MenuManager@@QAEXPAD@Z 004E4FA0
 0001:000E3FF0       ?TogglePU@MenuManager@@QAEXXZ 004E4FF0
 0001:000E4010       ?EnablePU@MenuManager@@QAEXXZ 004E5010
 0001:000E4080       ?AdjustPopupCard@MenuManager@@QAEXPAVUIMenu@@@Z 004E5080
 0001:000E40D0       ?DisablePU@MenuManager@@QAEXXZ 004E50D0
 0001:000E4110       ?OpenDialog@MenuManager@@QAEXH@Z 004E5110
 0001:000E4190       ?CloseDialog@MenuManager@@QAEXXZ 004E5190
 0001:000E41C0       ?Enable@MenuManager@@QAEXH@Z 004E51C0
 0001:000E4230       ?Disable@MenuManager@@QAEXH@Z 004E5230
 0001:000E4270       ?EnableNavBar@MenuManager@@QAEXXZ 004E5270
 0001:000E4290       ?DisableNavBar@MenuManager@@QAEXXZ 004E5290
 0001:000E42A0       ?Kill@MenuManager@@QAEXXZ  004E52A0
 0001:000E4320       ?PlaySound@MenuManager@@QAEXH@Z 004E5320
 0001:000E43D0       ?DeclareLastDrawn@MenuManager@@QAEXPAVasNode@@@Z 004E53D0
 0001:000E43E0       ?ResChange@MenuManager@@UAEXHH@Z 004E53E0
 0001:000E4410       ?Update@MenuManager@@UAEXXZ 004E5410
 0001:000E4440       ?Flush@MenuManager@@QAEXXZ 004E5440
 0001:000E4470       ?CheckInput@MenuManager@@QAEXXZ 004E5470
 0001:000E44F0       ?ToggleFocus@MenuManager@@QAEXH@Z 004E54F0
 0001:000E4570       ?RegisterWidgetFocus@MenuManager@@QAEXHMMMMPAVuiWidget@@@Z 004E5570
 0001:000E45D0       ?ScanGlobalKeys@MenuManager@@QAEHH@Z 004E55D0
 0001:000E4840       ?SwitchFocus@MenuManager@@QAEXPAVUIMenu@@@Z 004E5840
 0001:000E4890       ?NotifyMouseSelect@MenuManager@@QAEXPAVUIMenu@@@Z 004E5890
 0001:000E48D0       ?GetCurrentMenu@MenuManager@@QAEPAVUIMenu@@XZ 004E58D0
 0001:000E4900       ?FindMenu@MenuManager@@QAEHH@Z 004E5900
 0001:000E4940       ?CurrentMenuSelected@MenuManager@@QAEHXZ 004E5940
 0001:000E4960       ?MenuState@MenuManager@@QAEHH@Z 004E5960
 0001:000E49B0       ?ActionID@MenuManager@@QAEHH@Z 004E59B0
 0001:000E49F0       ?ForceCurrentFocus@MenuManager@@QAEXXZ 004E59F0
 0001:000E4A20       ?SetFocus@MenuManager@@QAEXPAVUIMenu@@@Z 004E5A20
 0001:000E4A30       ?Switch@MenuManager@@QAEHH@Z 004E5A30
 0001:000E4AD0       ?SetPreviousMenu@MenuManager@@QAEXH@Z 004E5AD0
 0001:000E4B00       ?GetPreviousMenu@MenuManager@@QAEHXZ 004E5B00
 0001:000E4B20       ?AddMenu2@MenuManager@@QAEHPAVUIMenu@@@Z 004E5B20
 0001:000E4B80       ?DeleteMenu@MenuManager@@QAEXPAVUIMenu@@@Z 004E5B80
 0001:000E4BE0       ?PlayMenuSwitchSound@MenuManager@@AAEXXZ 004E5BE0
 0001:000E4C90       ?AllocateMenuSwitchAudio@MenuManager@@QAEXXZ 004E5C90
 0001:000E4E30       ?PlayRecordsSound@MenuManager@@QAEXXZ 004E5E30
 0001:000E4E60       ?PlayReplaySound@MenuManager@@QAEXXZ 004E5E60
 0001:000E4E90       ?AddBrackets@MenuManager@@QAEXPAVUIIcon@@0PAVuiWidget@@MM@Z 004E5E90
 0001:000E4F70       ?Help@MenuManager@@QAEXXZ  004E5F70
 0001:000E4FE0       ?HelpWatcher@@YGKPAX@Z     004E5FE0
 0001:000E5200       ??_GMenuManager@@UAEPAXI@Z 004E6200
 0001:000E5230       ??0uiNavBar@@QAE@H@Z       004E6230
 0001:000E5460       ?Help@uiNavBar@@QAEXXZ     004E6460
 0001:000E5470       ?Minimize@uiNavBar@@QAEXXZ 004E6470
 0001:000E54A0       ??1uiNavBar@@UAE@XZ        004E64A0
 0001:000E54B0       ?ResetState@uiNavBar@@QAEXXZ 004E64B0
 0001:000E54C0       ?OptionActive@uiNavBar@@QAEXXZ 004E64C0
 0001:000E54E0       ?OptionInActive@uiNavBar@@QAEXXZ 004E64E0
 0001:000E5500       ?Update@uiNavBar@@UAEXXZ   004E6500
 0001:000E55A0       ?SetPrevPos@uiNavBar@@QAEXMM@Z 004E65A0
 0001:000E55F0       ?TurnOnPrev@uiNavBar@@QAEXXZ 004E65F0
 0001:000E5610       ?TurnOffPrev@uiNavBar@@QAEXXZ 004E6610
 0001:000E5630       ?SetPrevBitmap@uiNavBar@@QAEXPAD@Z 004E6630
 0001:000E5650       ??_GuiNavBar@@UAEPAXI@Z    004E6650
 0001:000E5680       ?BackUp@uiNavBar@@UAEXXZ   004E6680
 0001:000E5690       ??0UITextField@@QAE@XZ     004E6690
 0001:000E57B0       ??1UITextField@@UAE@XZ     004E67B0
 0001:000E5820       ?Init@UITextField@@QAEXPAULocString@@PADMMMMHHHHHVdatCallback@@PAVUIMenu@@@Z 004E6820
 0001:000E5B20       ?SetText@UITextField@@QAEXPAULocString@@@Z 004E6B20
 0001:000E5B40       ?SetField@UITextField@@QAEXPAD@Z 004E6B40
 0001:000E5BA0       ?CaptureAction@UITextField@@UAEXTeqEvent@@@Z 004E6BA0
 0001:000E5BB0       ?Action@UITextField@@UAEXTeqEvent@@@Z 004E6BB0
 0001:000E5C00       ?ClearField@UITextField@@QAEXXZ 004E6C00
 0001:000E5C60       ?SetTextField@UITextField@@QAEXXZ 004E6C60
 0001:000E5CB0       ?ToggleField@UITextField@@QAEXH@Z 004E6CB0
 0001:000E5E00       ?Switch@UITextField@@UAEXH@Z 004E6E00
 0001:000E5EB0       ?IsValidChar@UITextField@@QAEHG@Z 004E6EB0
 0001:000E5F70       ?WmCharHandler@UITextField@@QAEXE@Z 004E6F70
 0001:000E60F0       ?KeyAction@UITextField@@QAEXPATeqEvent@@@Z 004E70F0
 0001:000E6200       ?SetCompositionWindow@UITextField@@QAEXXZ 004E7200
 0001:000E62F0       ??_GUITextField@@UAEPAXI@Z 004E72F0
 0001:000E6320       ??1uiWidget@@UAE@XZ        004E7320
 0001:000E6330       ?Disable@uiWidget@@UAEXXZ  004E7330
 0001:000E6340       ?Enable@uiWidget@@UAEXXZ   004E7340
 0001:000E6350       ?TurnOn@uiWidget@@UAEXXZ   004E7350
 0001:000E6370       ?TurnOff@uiWidget@@UAEXXZ  004E7370
 0001:000E6380       ?SetReadOnly@uiWidget@@UAEXH@Z 004E7380
 0001:000E63A0       ?Action@uiWidget@@UAEXTeqEvent@@@Z 004E73A0
 0001:000E63B0       ?CaptureAction@uiWidget@@UAEXTeqEvent@@@Z 004E73B0
 0001:000E63C0       ?EvalMouseX@uiWidget@@UAEXM@Z 004E73C0
 0001:000E63D0       ?ReturnDescription@uiWidget@@UAEPADXZ 004E73D0
 0001:000E63E0       ?SetPosition@uiWidget@@UAEXMM@Z 004E73E0
 0001:000E63F0       ?GetScreenHeight@uiWidget@@UAEMXZ 004E73F0
 0001:000E6400       ??_GuiWidget@@UAEPAXI@Z    004E7400
 0001:000E6430       ?Update@UITextField@@UAEXXZ 004E7430
 0001:000E6440       ??0uiWidget@@QAE@XZ        004E7440
 0001:000E6470       ?AddToolTip@uiWidget@@QAEXPAVUIMenu@@PAULocString@@@Z 004E7470
 0001:000E6480       ?Switch@uiWidget@@UAEXH@Z  004E7480
 0001:000E64A0       ?ResetToolTip@uiWidget@@QAEXXZ 004E74A0
 0001:000E64B0       ?SetToolTipText@uiWidget@@QAEXPAULocString@@@Z 004E74B0
 0001:000E64D0       ??0WArray@@QAE@XZ          004E74D0
 0001:000E64E0       ??1WArray@@QAE@XZ          004E74E0
 0001:000E64F0       ?Init@WArray@@QAEXH@Z      004E74F0
 0001:000E6530       ?Write@WArray@@QAEXPAD@Z   004E7530
 0001:000E65F0       ?DumpMenu@WArray@@QAEXPAVStream@@PAVUIMenu@@@Z 004E75F0
 0001:000E6830       ?Flush@WArray@@QAEXXZ      004E7830
 0001:000E6840       ?Read@WArray@@QAEXPAD@Z    004E7840
 0001:000E6A00       ?AddWidgetData@WArray@@QAEXHHAAVVector4@@PAD@Z 004E7A00
 0001:000E6A60       ?RetrieveWidgetData@WArray@@QAEHHHAAM000@Z 004E7A60
 0001:000E6C80       ??0UITextDropdown@@QAE@XZ  004E7C80
 0001:000E6D20       ??1UITextDropdown@@UAE@XZ  004E7D20
 0001:000E6DB0       ?Init@UITextDropdown@@QAEXPAULocString@@PAHMMMMVstring@@HHHVdatCallback@@PAD3@Z 004E7DB0
 0001:000E7180       ?GetScreenHeight@UITextDropdown@@UAEMXZ 004E8180
 0001:000E7190       ?SetPos@UITextDropdown@@QAEXMM@Z 004E8190
 0001:000E71A0       ?AssignString@UITextDropdown@@QAEXVstring@@@Z 004E81A0
 0001:000E7250       ?SetData@UITextDropdown@@QAEXPAH@Z 004E8250
 0001:000E7280       ?Update@UITextDropdown@@UAEXXZ 004E8280
 0001:000E72F0       ?SetText@UITextDropdown@@QAEXPAULocString@@@Z 004E82F0
 0001:000E7300       ?CaptureAction@UITextDropdown@@UAEXTeqEvent@@@Z 004E8300
 0001:000E7570       ?inRange@@YAHMMM@Z         004E8570
 0001:000E75D0       ?Action@UITextDropdown@@UAEXTeqEvent@@@Z 004E85D0
 0001:000E7680       ?Switch@UITextDropdown@@UAEXH@Z 004E8680
 0001:000E7710       ?SetSliderFocus@UITextDropdown@@QAEXH@Z 004E8710
 0001:000E77C0       ?GetValue@UITextDropdown@@QAEHXZ 004E87C0
 0001:000E77D0       ?SetValue@UITextDropdown@@QAEHH@Z 004E87D0
 0001:000E7800       ?SetDisabledMask@UITextDropdown@@QAEXJ@Z 004E8800
 0001:000E7820       ?AnyEnabled@UITextDropdown@@QAEHXZ 004E8820
 0001:000E7830       ?Cull@UITextDropdown@@UAEXXZ 004E8830
 0001:000E7890       ??_GUITextDropdown@@UAEPAXI@Z 004E8890
 0001:000E78C0       ?GetWidth@gfxPipeline@@SAHXZ 004E88C0
 0001:000E78D0       ??0UITextRoller@@QAE@XZ    004E88D0
 0001:000E79A0       ??1UITextRoller@@UAE@XZ    004E89A0
 0001:000E7A10       ?Init@UITextRoller@@QAEXPAULocString@@PAHMMMMVstring@@HHHHVdatCallback@@PAVUIMenu@@@Z 004E8A10
 0001:000E7EA0       ?Update@UITextRoller@@UAEXXZ 004E8EA0
 0001:000E7F00       ?Switch@UITextRoller@@UAEXH@Z 004E8F00
 0001:000E7F30       ?Action@UITextRoller@@UAEXTeqEvent@@@Z 004E8F30
 0001:000E8020       ?EvalMouseXY@UITextRoller@@QAEXMM@Z 004E9020
 0001:000E8100       ?SetValue@UITextRoller@@QAEHH@Z 004E9100
 0001:000E81A0       ?SetString@UITextRoller@@QAEXVstring@@@Z 004E91A0
 0001:000E8270       ?SetText@UITextRoller@@QAEXXZ 004E9270
 0001:000E82E0       ?Inc@UITextRoller@@QAEHXZ  004E92E0
 0001:000E8300       ?Dec@UITextRoller@@QAEHXZ  004E9300
 0001:000E8320       ?Cull@UITextRoller@@UAEXXZ 004E9320
 0001:000E83C0       ??_GUITextRoller@@UAEPAXI@Z 004E93C0
 0001:000E83F0       ??0UITextRoller2@@QAE@XZ   004E93F0
 0001:000E84A0       ??1UITextRoller2@@UAE@XZ   004E94A0
 0001:000E8510       ?Init@UITextRoller2@@QAEXPAULocString@@PAHMMMMVstring@@HHHHVdatCallback@@PAVUIMenu@@@Z 004E9510
 0001:000E8BA0       ?Update@UITextRoller2@@UAEXXZ 004E9BA0
 0001:000E8C00       ?Switch@UITextRoller2@@UAEXH@Z 004E9C00
 0001:000E8CA0       ?Action@UITextRoller2@@UAEXTeqEvent@@@Z 004E9CA0
 0001:000E8D90       ?EvalMouseXY@UITextRoller2@@QAEXMM@Z 004E9D90
 0001:000E8E60       ?SetValue@UITextRoller2@@QAEHH@Z 004E9E60
 0001:000E8F10       ?SetString@UITextRoller2@@QAEXVstring@@@Z 004E9F10
 0001:000E8FE0       ?SetData@UITextRoller2@@QAEXPAH@Z 004E9FE0
 0001:000E9000       ?SetText@UITextRoller2@@QAEXXZ 004EA000
 0001:000E9070       ?Inc@UITextRoller2@@QAEHXZ 004EA070
 0001:000E90A0       ?Dec@UITextRoller2@@QAEHXZ 004EA0A0
 0001:000E90D0       ?Cull@UITextRoller2@@UAEXXZ 004EA0D0
 0001:000E91B0       ??_GUITextRoller2@@UAEPAXI@Z 004EA1B0
 0001:000E91E0       ??0UITextScroll@@QAE@XZ    004EA1E0
 0001:000E92F0       ??1UITextScroll@@UAE@XZ    004EA2F0
 0001:000E93D0       ?Init@UITextScroll@@QAEXPAXMMMMVstring@@HPAHVdatCallback@@@Z 004EA3D0
 0001:000E9730       ?InitVScroll@UITextScroll@@QAEXMMM@Z 004EA730
 0001:000E9740       ?VScrollCB@UITextScroll@@QAEXXZ 004EA740
 0001:000E9780       ?SetVScrollVals@UITextScroll@@QAEXXZ 004EA780
 0001:000E97A0       ?SetVScrollPos@UITextScroll@@QAEXXZ 004EA7A0
 0001:000E97D0       ?Recalc@UITextScroll@@QAEXVstring@@@Z 004EA7D0
 0001:000E9950       ?FillScroll@UITextScroll@@AAEXXZ 004EA950
 0001:000E9A30       ?GetCurrentString@UITextScroll@@QAEXPADH@Z 004EAA30
 0001:000E9A80       ?SetHighlight@UITextScroll@@QAEXH@Z 004EAA80
 0001:000E9AD0       ?GetHit@UITextScroll@@QAEHMM@Z 004EAAD0
 0001:000E9B50       ?KeyAction@UITextScroll@@AAEXXZ 004EAB50
 0001:000E9BB0       ?Action@UITextScroll@@UAEXTeqEvent@@@Z 004EABB0
 0001:000E9C70       ?Switch@UITextScroll@@UAEXH@Z 004EAC70
 0001:000E9CB0       ?SetTextColor@UITextScroll@@AAEXXZ 004EACB0
 0001:000E9D10       ?SetText@UITextScroll@@QAEXHPAULocString@@@Z 004EAD10
 0001:000E9D50       ?ResetTextScroll@UITextScroll@@AAEXXZ 004EAD50
 0001:000E9DD0       ?InitTextScroll@UITextScroll@@AAEXVstring@@@Z 004EADD0
 0001:000E9F00       ?AddTextScrollLine@UITextScroll@@AAEXPADH@Z 004EAF00
 0001:000E9F80       ?AddTextScrollLine@UITextScroll@@AAEXPAD@Z 004EAF80
 0001:000EA020       ??_GUITextScroll@@UAEPAXI@Z 004EB020
 0001:000EA050       ??0UICompositeScroll@@QAE@XZ 004EB050
 0001:000EA140       ??1UICompositeScroll@@UAE@XZ 004EB140
 0001:000EA1E0       ?Init@UICompositeScroll@@QAEXMMMMMHPAHHHVdatCallback@@@Z 004EB1E0
 0001:000EA410       ?InitVScroll@UICompositeScroll@@QAEXMMM@Z 004EB410
 0001:000EA490       ?RemoveAllComponentChildren@UICompositeScroll@@QAEXXZ 004EB490
 0001:000EA4F0       ?AddComponent@UICompositeScroll@@QAEXPAVmmCompBase@@@Z 004EB4F0
 0001:000EA5C0       ?AddTitle@UICompositeScroll@@QAEXPAVmmCompBase@@@Z 004EB5C0
 0001:000EA5E0       ?GetSelectedCount@UICompositeScroll@@QAEHXZ 004EB5E0
 0001:000EA630       ?Redraw@UICompositeScroll@@QAEXXZ 004EB630
 0001:000EA760       ?VScrollCB@UICompositeScroll@@QAEXXZ 004EB760
 0001:000EA7D0       ?SetVScrollVals@UICompositeScroll@@QAEXXZ 004EB7D0
 0001:000EA820       ?SetVScrollPos@UICompositeScroll@@QAEXXZ 004EB820
 0001:000EA850       ?Reset@UICompositeScroll@@UAEXXZ 004EB850
 0001:000EA870       ?Update@UICompositeScroll@@UAEXXZ 004EB870
 0001:000EA880       ?GetHit@UICompositeScroll@@QAEHMM@Z 004EB880
 0001:000EA900       ?Action@UICompositeScroll@@UAEXTeqEvent@@@Z 004EB900
 0001:000EAD10       ?CaptureAction@UICompositeScroll@@UAEXTeqEvent@@@Z 004EBD10
 0001:000EAD80       ?Switch@UICompositeScroll@@UAEXH@Z 004EBD80
 0001:000EADC0       ?Clear@UICompositeScroll@@QAEXXZ 004EBDC0
 0001:000EADD0       ?SetHighlight@UICompositeScroll@@QAEXH@Z 004EBDD0
 0001:000EADF0       ?SetHighlightComp@UICompositeScroll@@QAEXXZ 004EBDF0
 0001:000EAE90       ?GetHeight@UICompositeScroll@@QAEMXZ 004EBE90
 0001:000EAEB0       ?SetPosition@UICompositeScroll@@QAEXH@Z 004EBEB0
 0001:000EAEF0       ??_GUICompositeScroll@@UAEPAXI@Z 004EBEF0
 0001:000EAF20       ??0UIControlWidget@@QAE@XZ 004EBF20
 0001:000EB030       ??1UIControlWidget@@UAE@XZ 004EC030
 0001:000EB0D0       ?Init@UIControlWidget@@QAEXMMMMMPAVmmIO@@VdatCallback@@@Z 004EC0D0
 0001:000EB250       ?SetPosition@UIControlWidget@@QAEXMMMM@Z 004EC250
 0001:000EB310       ?Update@UIControlWidget@@UAEXXZ 004EC310
 0001:000EB330       ?UpdateField@UIControlWidget@@QAEXXZ 004EC330
 0001:000EB360       ?Action@UIControlWidget@@UAEXTeqEvent@@@Z 004EC360
 0001:000EB3B0       ?Switch@UIControlWidget@@UAEXH@Z 004EC3B0
 0001:000EB420       ?EnableField@UIControlWidget@@QAEXXZ 004EC420
 0001:000EB480       ?DisableField@UIControlWidget@@QAEXXZ 004EC480
 0001:000EB4D0       ??_GUIControlWidget@@UAEPAXI@Z 004EC4D0
 0001:000EB500       ?TurnOn@UIControlWidget@@UAEXXZ 004EC500
 0001:000EB510       ?TurnOff@UIControlWidget@@UAEXXZ 004EC510
 0001:000EB520       ??0UISlider@@QAE@XZ        004EC520
 0001:000EB5C0       ??1UISlider@@UAE@XZ        004EC5C0
 0001:000EB630       ?Init@UISlider@@QAEXPAULocString@@PAMMMMMMMHHHHVdatCallback@@PAVUIMenu@@2@Z 004EC630
 0001:000EB860       ?SetPosition@UISlider@@UAEXMM@Z 004EC860
 0001:000EB990       ?SetText@UISlider@@QAEXPAULocString@@@Z 004EC990
 0001:000EB9A0       ?Update@UISlider@@UAEXXZ   004EC9A0
 0001:000EBA00       ?Action@UISlider@@UAEXTeqEvent@@@Z 004ECA00
 0001:000EBAC0       ?Switch@UISlider@@UAEXH@Z  004ECAC0
 0001:000EBB40       ?TestHit@UISlider@@QAEHMM@Z 004ECB40
 0001:000EBB50       ?SetReadWrite@UISlider@@QAEXH@Z 004ECB50
 0001:000EBB90       ?IsReadWrite@UISlider@@QAEHXZ 004ECB90
 0001:000EBBA0       ?GetValue@UISlider@@QAEMXZ 004ECBA0
 0001:000EBBB0       ?SetValue@UISlider@@QAEMM@Z 004ECBB0
 0001:000EBBE0       ?SetMouseParams@UISlider@@QAEXM@Z 004ECBE0
 0001:000EBC30       ?EvalMouseXY@UISlider@@QAEXMM@Z 004ECC30
 0001:000EBD40       ?SetData@UISlider@@QAEXM@Z 004ECD40
 0001:000EBD60       ?GetFudgeWidth@UISlider@@QAEMXZ 004ECD60
 0001:000EBD70       ??_GUISlider@@UAEPAXI@Z    004ECD70
 0001:000EBDA0       ?GetScreenHeight@UISlider@@UAEMXZ 004ECDA0
 0001:000EBDB0       ??0UIButton@@QAE@XZ        004ECDB0
 0001:000EBE50       ??1UIButton@@UAE@XZ        004ECE50
 0001:000EBEE0       ?Init@UIButton@@QAEXPAULocString@@HMMMMHVdatCallback@@@Z 004ECEE0
 0001:000EBFB0       ?Update@UIButton@@UAEXXZ   004ECFB0
 0001:000EBFC0       ?SetString@UIButton@@QAEXPAULocString@@@Z 004ECFC0
 0001:000EBFE0       ?DrawOff@UIButton@@AAEXXZ  004ECFE0
 0001:000EC010       ?DrawOn@UIButton@@AAEXXZ   004ED010
 0001:000EC040       ?Action@UIButton@@UAEXTeqEvent@@@Z 004ED040
 0001:000EC090       ?SetReadOnly@UIButton@@UAEXH@Z 004ED090
 0001:000EC0D0       ?Switch@UIButton@@UAEXH@Z  004ED0D0
 0001:000EC140       ?SetType@UIButton@@QAEXH@Z 004ED140
 0001:000EC190       ?TestHit@UIButton@@QAEHMM@Z 004ED190
 0001:000EC1A0       ??_GUIButton@@UAEPAXI@Z    004ED1A0
 0001:000EC1D0       ?Enable@UIButton@@UAEXXZ   004ED1D0
 0001:000EC1F0       ?Disable@UIButton@@UAEXXZ  004ED1F0
 0001:000EC200       ??0UILabel@@QAE@XZ         004ED200
 0001:000EC280       ??1UILabel@@UAE@XZ         004ED280
 0001:000EC2E0       ?Init@UILabel@@QAEXPAULocString@@HMMMMH@Z 004ED2E0
 0001:000EC3A0       ?SetText@UILabel@@QAEXPAULocString@@@Z 004ED3A0
 0001:000EC3C0       ?Update@UILabel@@UAEXXZ    004ED3C0
 0001:000EC400       ?SetBlink@UILabel@@QAEXH@Z 004ED400
 0001:000EC430       ?Switch@UILabel@@UAEXH@Z   004ED430
 0001:000EC440       ?SwitchState@UILabel@@QAEXH@Z 004ED440
 0001:000EC490       ??_GUILabel@@UAEPAXI@Z     004ED490
 0001:000EC4C0       ?Action@UILabel@@UAEXTeqEvent@@@Z 004ED4C0
 0001:000EC4D0       ??0UIBMLabel@@QAE@XZ       004ED4D0
 0001:000EC540       ??1UIBMLabel@@UAE@XZ       004ED540
 0001:000EC5C0       ?Init@UIBMLabel@@QAEXPAVstring@@MMPAH@Z 004ED5C0
 0001:000EC680       ?SetBitmapName@UIBMLabel@@QAEXPAVstring@@@Z 004ED680
 0001:000EC720       ?LoadBitmap@UIBMLabel@@AAEXXZ 004ED720
 0001:000EC7F0       ?Update@UIBMLabel@@UAEXXZ  004ED7F0
 0001:000EC820       ?Cull@UIBMLabel@@UAEXXZ    004ED820
 0001:000EC850       ??_GUIBMLabel@@UAEPAXI@Z   004ED850
 0001:000EC880       ??0UIIcon@@QAE@XZ          004ED880
 0001:000EC8D0       ??1UIIcon@@UAE@XZ          004ED8D0
 0001:000EC8E0       ?Init@UIIcon@@QAEXPADMM@Z  004ED8E0
 0001:000EC920       ?LoadBitchmap@UIIcon@@QAEXPAD@Z 004ED920
 0001:000EC930       ?LoadBitmap@UIIcon@@QAEXPAD@Z 004ED930
 0001:000EC970       ?GetHitArea@UIIcon@@QAEXAAM0@Z 004ED970
 0001:000EC9B0       ?Switch@UIIcon@@UAEXH@Z    004ED9B0
 0001:000EC9F0       ?Update@UIIcon@@UAEXXZ     004ED9F0
 0001:000ECA10       ?Cull@UIIcon@@UAEXXZ       004EDA10
 0001:000ECA40       ??_GUIIcon@@UAEPAXI@Z      004EDA40
 0001:000ECA70       ??0UIIconW@@QAE@XZ         004EDA70
 0001:000ECB30       ??1UIIconW@@UAE@XZ         004EDB30
 0001:000ECBA0       ?Init@UIIconW@@QAEXPAULocString@@PADMMMMVdatCallback@@@Z 004EDBA0
 0001:000ECC90       ?Action@UIIconW@@UAEXTeqEvent@@@Z 004EDC90
 0001:000ECCF0       ?Update@UIIconW@@UAEXXZ    004EDCF0
 0001:000ECD70       ?Switch@UIIconW@@UAEXH@Z   004EDD70
 0001:000ECDE0       ??_GUIIconW@@UAEPAXI@Z     004EDDE0
 0001:000ECE10       ??0UIToggleButton@@QAE@XZ  004EDE10
 0001:000ECE90       ??1UIToggleButton@@UAE@XZ  004EDE90
 0001:000ECF00       ?Init@UIToggleButton@@QAEXPAULocString@@PAHMMMMHHVdatCallback@@@Z 004EDF00
 0001:000ECFA0       ?DrawOff@UIToggleButton@@MAEXXZ 004EDFA0
 0001:000ECFC0       ?DrawOn@UIToggleButton@@MAEXXZ 004EDFC0
 0001:000ECFE0       ?DoToggle@UIToggleButton@@UAEXXZ 004EDFE0
 0001:000ED000       ?Action@UIToggleButton@@UAEXTeqEvent@@@Z 004EE000
 0001:000ED080       ??_GUIToggleButton@@UAEPAXI@Z 004EE080
 0001:000ED0B0       ?Update@UIToggleButton@@UAEXXZ 004EE0B0
 0001:000ED0C0       ??0UIToggleButton2@@QAE@XZ 004EE0C0
 0001:000ED140       ??1UIToggleButton2@@UAE@XZ 004EE140
 0001:000ED150       ?Init@UIToggleButton2@@QAEXPAULocString@@PAHMMMMHHVdatCallback@@@Z 004EE150
 0001:000ED220       ?DrawOff@UIToggleButton2@@MAEXXZ 004EE220
 0001:000ED260       ?DrawOn@UIToggleButton2@@MAEXXZ 004EE260
 0001:000ED2A0       ?Unkill@UIToggleButton2@@QAEXXZ 004EE2A0
 0001:000ED2D0       ?DoToggle@UIToggleButton2@@UAEXXZ 004EE2D0
 0001:000ED2F0       ?Action@UIToggleButton2@@UAEXTeqEvent@@@Z 004EE2F0
 0001:000ED370       ?Switch@UIToggleButton2@@UAEXH@Z 004EE370
 0001:000ED3E0       ??_GUIToggleButton2@@UAEPAXI@Z 004EE3E0
 0001:000ED410       ?Update@UIToggleButton2@@UAEXXZ 004EE410
 0001:000ED420       ?Enable@UIToggleButton2@@UAEXXZ 004EE420
 0001:000ED430       ?Disable@UIToggleButton2@@UAEXXZ 004EE430
 0001:000ED440       ??0UIMexButton@@QAE@XZ     004EE440
 0001:000ED4C0       ??1UIMexButton@@UAE@XZ     004EE4C0
 0001:000ED4D0       ?Init@UIMexButton@@QAEXPAULocString@@PAHHMMMMHHVdatCallback@@@Z 004EE4D0
 0001:000ED590       ?Update@UIMexButton@@UAEXXZ 004EE590
 0001:000ED5E0       ?DrawOff@UIMexButton@@EAEXXZ 004EE5E0
 0001:000ED5F0       ?DrawOn@UIMexButton@@EAEXXZ 004EE5F0
 0001:000ED620       ?DoToggle@UIMexButton@@UAEXXZ 004EE620
 0001:000ED640       ?Action@UIMexButton@@UAEXTeqEvent@@@Z 004EE640
 0001:000ED6C0       ??_GUIMexButton@@UAEPAXI@Z 004EE6C0
 0001:000ED6F0       ??0UIBMButton@@QAE@XZ      004EE6F0
 0001:000ED790       ??1UIBMButton@@UAE@XZ      004EE790
 0001:000ED810       ?Init@UIBMButton@@QAEXPADMMHHPAHHHPAULocString@@VdatCallback@@3@Z 004EE810
 0001:000EDA90       ?LoadBitmap@UIBMButton@@QAEXPAD@Z 004EEA90
 0001:000EDAD0       ?GetDiv@UIBMButton@@QAEHXZ 004EEAD0
 0001:000EDB00       ?GetSize@UIBMButton@@AAEXXZ 004EEB00
 0001:000EDB30       ?SetPosition@UIBMButton@@UAEXMM@Z 004EEB30
 0001:000EDC80       ?GetHitArea@UIBMButton@@QAEXAAM0@Z 004EEC80
 0001:000EDCD0       ?DoToggle@UIBMButton@@QAEXXZ 004EECD0
 0001:000EDD90       ?Kill@UIBMButton@@QAEXXZ   004EED90
 0001:000EDDB0       ?Unkill@UIBMButton@@QAEXXZ 004EEDB0
 0001:000EDDF0       ?Switch@UIBMButton@@UAEXH@Z 004EEDF0
 0001:000EDF20       ?Action@UIBMButton@@UAEXTeqEvent@@@Z 004EEF20
 0001:000EDFE0       ?MexOff@UIBMButton@@QAEXXZ 004EEFE0
 0001:000EDFF0       ?MexOn@UIBMButton@@QAEXXZ  004EEFF0
 0001:000EE030       ?MexToggle@UIBMButton@@QAEXXZ 004EF030
 0001:000EE060       ?Update@UIBMButton@@UAEXXZ 004EF060
 0001:000EE1F0       ?ReturnDescription@UIBMButton@@UAEPADXZ 004EF1F0
 0001:000EE2A0       ?GetScreenHeight@UIBMButton@@UAEMXZ 004EF2A0
 0001:000EE2B0       ?Cull@UIBMButton@@UAEXXZ   004EF2B0
 0001:000EE430       ?AllocateSounds@UIBMButton@@CAXXZ 004EF430
 0001:000EE620       ?PlaySound@UIBMButton@@AAEXXZ 004EF620
 0001:000EE660       ??_GUIBMButton@@UAEPAXI@Z  004EF660
 0001:000EE690       ?Enable@UIBMButton@@UAEXXZ 004EF690
 0001:000EE6B0       ?Disable@UIBMButton@@UAEXXZ 004EF6B0
 0001:000EE6D0       ??0UICWArray@@QAE@XZ       004EF6D0
 0001:000EE7A0       ??1UICWArray@@UAE@XZ       004EF7A0
 0001:000EE830       ?Reset@UICWArray@@UAEXXZ   004EF830
 0001:000EE840       ?Init@UICWArray@@QAEXMMMMHVdatCallback@@@Z 004EF840
 0001:000EEA90       ?VScrollCB@UICWArray@@QAEXXZ 004EFA90
 0001:000EEB00       ?SetVScrollVals@UICWArray@@QAEXXZ 004EFB00
 0001:000EEB70       ?SetVScrollPos@UICWArray@@QAEXXZ 004EFB70
 0001:000EEBA0       ?SetStartOffset@UICWArray@@QAEXH@Z 004EFBA0
 0001:000EEBE0       ?Redraw@UICWArray@@QAEXXZ  004EFBE0
 0001:000EED40       ?Switch@UICWArray@@UAEXH@Z 004EFD40
 0001:000EED80       ?Action@UICWArray@@UAEXTeqEvent@@@Z 004EFD80
 0001:000EEEC0       ?CaptureAction@UICWArray@@UAEXTeqEvent@@@Z 004EFEC0
 0001:000EEF30       ?Update@UICWArray@@UAEXXZ  004EFF30
 0001:000EEFC0       ?EnterCapture@UICWArray@@QAEXH@Z 004EFFC0
 0001:000EF030       ?ForceCapture@UICWArray@@QAEXXZ 004F0030
 0001:000EF060       ?AcceptCapture@UICWArray@@QAEXXZ 004F0060
 0001:000EF0B0       ?ResetCapture@UICWArray@@QAEXXZ 004F00B0
 0001:000EF0E0       ?CheckCapture@UICWArray@@QAEXXZ 004F00E0
 0001:000EF190       ?SaveCFG@UICWArray@@QAEXXZ 004F0190
 0001:000EF1D0       ?LoadCFG@UICWArray@@QAEXXZ 004F01D0
 0001:000EF220       ?DefaultCFG@UICWArray@@QAEXXZ 004F0220
 0001:000EF250       ?DebugForceSetting@UICWArray@@QAEXXZ 004F0250
 0001:000EF270       ??_GUICWArray@@UAEPAXI@Z   004F0270
 0001:000EF2A0       ??_EUIControlWidget@@UAEPAXI@Z 004F02A0
 0001:000EF300       ??0UIVScrollBar@@QAE@XZ    004F0300
 0001:000EF3A0       ??1UIVScrollBar@@UAE@XZ    004F03A0
 0001:000EF430       ?Init@UIVScrollBar@@QAEXMMMMHMMPAHVdatCallback@@H@Z 004F0430
 0001:000EF4A0       ?LoadBitmap@UIVScrollBar@@QAEXXZ 004F04A0
 0001:000EF5C0       ?SetHotSpots@UIVScrollBar@@QAEXXZ 004F05C0
 0001:000EF650       ?Inc@UIVScrollBar@@QAEMXZ  004F0650
 0001:000EF6B0       ?Dec@UIVScrollBar@@QAEMXZ  004F06B0
 0001:000EF710       ?SetStep@UIVScrollBar@@QAEXHM@Z 004F0710
 0001:000EF770       ?SetRange@UIVScrollBar@@QAEXMM@Z 004F0770
 0001:000EF7D0       ?SetTrough@UIVScrollBar@@QAEXMM@Z 004F07D0
 0001:000EF850       ?Update@UIVScrollBar@@UAEXXZ 004F0850
 0001:000EF870       ?Switch@UIVScrollBar@@UAEXH@Z 004F0870
 0001:000EF8C0       ?Action@UIVScrollBar@@UAEXTeqEvent@@@Z 004F08C0
 0001:000EF990       ?EvalMouseXY@UIVScrollBar@@QAEXMM@Z 004F0990
 0001:000EFB20       ?Cull@UIVScrollBar@@UAEXXZ 004F0B20
 0001:000EFC90       ??_GUIVScrollBar@@UAEPAXI@Z 004F0C90
 0001:000EFCC0       ?SetPosition@UIVScrollBar@@UAEXMM@Z 004F0CC0
 0001:000EFCE0       ?Enable@UIVScrollBar@@UAEXXZ 004F0CE0
 0001:000EFD00       ?Disable@UIVScrollBar@@UAEXXZ 004F0D00
 0001:000EFD20       ??0MArray@@QAE@XZ          004F0D20
 0001:000EFD30       ??1MArray@@QAE@XZ          004F0D30
 0001:000EFD40       ?Init@MArray@@QAEXH@Z      004F0D40
 0001:000EFD80       ?Write@MArray@@QAEXPAD@Z   004F0D80
 0001:000EFF30       ?Flush@MArray@@QAEXXZ      004F0F30
 0001:000EFF40       ?Read@MArray@@QAEXPAD@Z    004F0F40
 0001:000F00E0       ?AddMenuData@MArray@@QAEXHAAVVector4@@PAD@Z 004F10E0
 0001:000F0130       ?RetrieveMenuData@MArray@@QAEHHAAM000@Z 004F1130
 0001:000F0200       ??0sfPointer@@QAE@XZ       004F1200
 0001:000F0270       ??1sfPointer@@UAE@XZ       004F1270
 0001:000F02D0       ?Init@sfPointer@@QAEXXZ    004F12D0
 0001:000F02F0       ?ResChange@sfPointer@@UAEXHH@Z 004F12F0
 0001:000F0350       ?GetPointerHeight@sfPointer@@QAEMXZ 004F1350
 0001:000F0360       ?Update@sfPointer@@UAEXXZ  004F1360
 0001:000F0560       ?UpdateAttached@sfPointer@@AAEXXZ 004F1560
 0001:000F0570       ?WaitForRelease@sfPointer@@QAEXXZ 004F1570
 0001:000F0580       ?Cull@sfPointer@@UAEXXZ    004F1580
 0001:000F05F0       ??_GsfPointer@@UAEPAXI@Z   004F15F0
 0001:000F0620       ??0mmToolTip@@QAE@XZ       004F1620
 0001:000F0690       ??1mmToolTip@@UAE@XZ       004F1690
 0001:000F06F0       ?Init@mmToolTip@@QAEXPAVUIMenu@@PAULocString@@@Z 004F16F0
 0001:000F07A0       ?SetText@mmToolTip@@QAEXPAULocString@@@Z 004F17A0
 0001:000F07C0       ?Switch@mmToolTip@@QAEXH@Z 004F17C0
 0001:000F07D0       ?Update@mmToolTip@@UAEXXZ  004F17D0
 0001:000F07E0       ??_GmmToolTip@@UAEPAXI@Z   004F17E0
 0001:000F0810       ??0TextDropWidget@@QAE@XZ  004F1810
 0001:000F08D0       ??1TextDropWidget@@UAE@XZ  004F18D0
 0001:000F0940       ?Init@TextDropWidget@@QAEXPAXMMMMMVstring@@H@Z 004F1940
 0001:000F0A50       ?GetCount@TextDropWidget@@QAEHXZ 004F1A50
 0001:000F0A60       ?SetString@TextDropWidget@@QAEXVstring@@@Z 004F1A60
 0001:000F0B20       ?SetValue@TextDropWidget@@QAEHH@Z 004F1B20
 0001:000F0BC0       ?SetHighlight@TextDropWidget@@QAEHH@Z 004F1BC0
 0001:000F0C30       ?Inc@TextDropWidget@@QAEHXZ 004F1C30
 0001:000F0C40       ?Dec@TextDropWidget@@QAEHXZ 004F1C40
 0001:000F0C50       ?IncDrop@TextDropWidget@@QAEHXZ 004F1C50
 0001:000F0C80       ?DecDrop@TextDropWidget@@QAEHXZ 004F1C80
 0001:000F0CB0       ?Capture@TextDropWidget@@QAEHMM@Z 004F1CB0
 0001:000F0CF0       ?Switch@TextDropWidget@@QAEXHAAVVector4@@@Z 004F1CF0
 0001:000F0D10       ?Update@TextDropWidget@@UAEXXZ 004F1D10
 0001:000F0D20       ?IsActive@TextDropWidget@@QAEHXZ 004F1D20
 0001:000F0D30       ?SetActive@TextDropWidget@@QAEXH@Z 004F1D30
 0001:000F0D40       ?SetDisabledMask@TextDropWidget@@QAEXJ@Z 004F1D40
 0001:000F0D60       ?GetDisabledMask@TextDropWidget@@QAEJXZ 004F1D60
 0001:000F0D70       ??_GTextDropWidget@@UAEPAXI@Z 004F1D70
 0001:000F0DA0       ??0mmDropDown@@QAE@XZ      004F1DA0
 0001:000F0E20       ??1mmDropDown@@UAE@XZ      004F1E20
 0001:000F0EA0       ?Init@mmDropDown@@QAEXPAXMMMMVstring@@H@Z 004F1EA0
 0001:000F1020       ?InitString@mmDropDown@@QAEXVstring@@@Z 004F2020
 0001:000F1420       ?SetString@mmDropDown@@AAEXVstring@@@Z 004F2420
 0001:000F1510       ?GetCurrentString@mmDropDown@@QAEXPADH@Z 004F2510
 0001:000F1560       ?SetDisabledColors@mmDropDown@@QAEXXZ 004F2560
 0001:000F15E0       ?FindFirstEnabled@mmDropDown@@QAEHXZ 004F25E0
 0001:000F1610       ?SetHighlight@mmDropDown@@QAEXH@Z 004F2610
 0001:000F1680       ?GetHit@mmDropDown@@QAEHMM@Z 004F2680
 0001:000F1750       ?Update@mmDropDown@@UAEXXZ 004F2750
 0001:000F1760       ?GetXmin@mmDropDown@@QAEMXZ 004F2760
 0001:000F1770       ?GetYmin@mmDropDown@@QAEMXZ 004F2770
 0001:000F1780       ?GetW@mmDropDown@@QAEMXZ   004F2780
 0001:000F1790       ?GetH@mmDropDown@@QAEMXZ   004F2790
 0001:000F17A0       ??_GmmDropDown@@UAEPAXI@Z  004F27A0
 0001:000F17D0       ??0VSWidget@@QAE@XZ        004F27D0
 0001:000F1860       ??1VSWidget@@UAE@XZ        004F2860
 0001:000F18F0       ?Init@VSWidget@@QAEXMMMMPAHVdatCallback@@H@Z 004F28F0
 0001:000F1950       ?LoadBitmap@VSWidget@@QAEXXZ 004F2950
 0001:000F1A90       ?CalcTroughRatio@VSWidget@@QAEXM@Z 004F2A90
 0001:000F1B00       ?SetHotSpots@VSWidget@@QAEXXZ 004F2B00
 0001:000F1B70       ?SyncData@VSWidget@@QAEXXZ 004F2B70
 0001:000F1BB0       ?Inc@VSWidget@@QAEMXZ      004F2BB0
 0001:000F1C00       ?Dec@VSWidget@@QAEMXZ      004F2C00
 0001:000F1C60       ?SetStep@VSWidget@@QAEXHM@Z 004F2C60
 0001:000F1CD0       ?SetTrough@VSWidget@@QAEXM@Z 004F2CD0
 0001:000F1D60       ?Update@VSWidget@@UAEXXZ   004F2D60
 0001:000F1D90       ?Switch@VSWidget@@QAEXHMM@Z 004F2D90
 0001:000F1DE0       ?Action@VSWidget@@QAEHTeqEvent@@MMH@Z 004F2DE0
 0001:000F1EA0       ?EvalMouseXY@VSWidget@@QAEXMMH@Z 004F2EA0
 0001:000F2020       ?Cull@VSWidget@@UAEXXZ     004F3020
 0001:000F2190       ??_GVSWidget@@UAEPAXI@Z    004F3190
 0001:000F21C0       ??0mmSlider@@QAE@XZ        004F31C0
 0001:000F2250       ??1mmSlider@@UAE@XZ        004F3250
 0001:000F2310       ?Init@mmSlider@@QAEXPADPAVuiWidget@@MMMMHMMHH@Z 004F3310
 0001:000F2370       ?LoadBitmap@mmSlider@@QAEXPAD@Z 004F3370
 0001:000F2510       ?SetReadWrite@mmSlider@@QAEXH@Z 004F3510
 0001:000F2530       ?IsReadWrite@mmSlider@@QAEHXZ 004F3530
 0001:000F2540       ?SetValue@mmSlider@@QAEMM@Z 004F3540
 0001:000F25A0       ?GetScreenHeight@mmSlider@@QAEMXZ 004F35A0
 0001:000F25C0       ?FudgeWidth@mmSlider@@QAEMXZ 004F35C0
 0001:000F25F0       ?SetPosition@mmSlider@@QAEXMM@Z 004F35F0
 0001:000F2610       ?GetSliderHotSpots@mmSlider@@QAEXAAM00000@Z 004F3610
 0001:000F26C0       ?UpdatePosition@mmSlider@@QAEXXZ 004F36C0
 0001:000F26F0       ?Inc@mmSlider@@QAEMXZ      004F36F0
 0001:000F2710       ?Dec@mmSlider@@QAEMXZ      004F3710
 0001:000F2730       ?SetStep@mmSlider@@QAEXM@Z 004F3730
 0001:000F27A0       ?SetRange@mmSlider@@QAEXMM@Z 004F37A0
 0001:000F2800       ?Update@mmSlider@@UAEXXZ   004F3800
 0001:000F2820       ?Cull@mmSlider@@UAEXXZ     004F3820
 0001:000F29B0       ??_GmmSlider@@UAEPAXI@Z    004F39B0
 0001:000F29E0       ??0mmToggle@@QAE@XZ        004F39E0
 0001:000F2A00       ??1mmToggle@@UAE@XZ        004F3A00
 0001:000F2A60       ?Init@mmToggle@@QAEXPADMMMM@Z 004F3A60
 0001:000F2B00       ?LoadBitmap@mmToggle@@AAEXPAD@Z 004F3B00
 0001:000F2B40       ?SetSize@mmToggle@@AAEXMM@Z 004F3B40
 0001:000F2BF0       ?Update@mmToggle@@UAEXXZ   004F3BF0
 0001:000F2C10       ?Cull@mmToggle@@UAEXXZ     004F3C10
 0001:000F2C80       ??_GmmToggle@@UAEPAXI@Z    004F3C80
 0001:000F2CB0       ??0mmToggle2@@QAE@XZ       004F3CB0
 0001:000F2CD0       ??1mmToggle2@@UAE@XZ       004F3CD0
 0001:000F2D30       ?Init@mmToggle2@@QAEXPADMMPAH@Z 004F3D30
 0001:000F2D60       ?LoadBitmap@mmToggle2@@AAEXPAD@Z 004F3D60
 0001:000F2DC0       ?SetPosition@mmToggle2@@QAEXMM@Z 004F3DC0
 0001:000F2E60       ?Update@mmToggle2@@UAEXXZ  004F3E60
 0001:000F2E80       ?Cull@mmToggle2@@UAEXXZ    004F3E80
 0001:000F2F20       ??_GmmToggle2@@UAEPAXI@Z   004F3F20
 0001:000F2F50       ?AutoDetect@@YAXH@Z        004F3F50
 0001:000F3280       ??0GraphicsOptions@@QAE@H@Z 004F4280
 0001:000F3D70       ?SetupResChoices@@YAXXZ    004F4D70
 0001:000F40D0       ??1GraphicsOptions@@UAE@XZ 004F50D0
 0001:000F4140       ?SetResolution@GraphicsOptions@@QAEXXZ 004F5140
 0001:000F4150       ?TogglePeds@GraphicsOptions@@QAEXXZ 004F5150
 0001:000F4170       ?SetLightQuality@GraphicsOptions@@QAEXXZ 004F5170
 0001:000F4220       ?SetRenderer@GraphicsOptions@@QAEXXZ 004F5220
 0001:000F4230       ?PreSetup@GraphicsOptions@@UAEXXZ 004F5230
 0001:000F42E0       ?ResetDefaultAction@GraphicsOptions@@UAEXXZ 004F52E0
 0001:000F43A0       ?CancelAction@GraphicsOptions@@UAEXXZ 004F53A0
 0001:000F43B0       ?DoneAction@GraphicsOptions@@UAEXXZ 004F53B0
 0001:000F43F0       ?FocusDescription@GraphicsOptions@@QAEXPAX0@Z 004F53F0
 0001:000F4420       ??_GGraphicsOptions@@UAEPAXI@Z 004F5420
 0001:000F4450       ?StoreCurrentSetup@OptionsBase@@UAEXXZ 004F5450
 0001:000F4460       ?IsAnOptionMenu@OptionsBase@@UAEHXZ 004F5460
 0001:000F4470       ??0VehicleSelectBase@@QAE@H@Z 004F5470
 0001:000F45F0       ?IncColor@VehicleSelectBase@@QAEXXZ 004F55F0
 0001:000F46B0       ?DecColor@VehicleSelectBase@@QAEXXZ 004F56B0
 0001:000F4780       ?IncTrans@VehicleSelectBase@@QAEXXZ 004F5780
 0001:000F4790       ?DecTrans@VehicleSelectBase@@QAEXXZ 004F5790
 0001:000F47A0       ?ColorCB@VehicleSelectBase@@QAEXXZ 004F57A0
 0001:000F47C0       ?InitCarSelection@VehicleSelectBase@@QAEXHMMMM@Z 004F57C0
 0001:000F58F0       ??1VehicleSelectBase@@UAE@XZ 004F68F0
 0001:000F5A00       ?PreSetup@VehicleSelectBase@@UAEXXZ 004F6A00
 0001:000F5AD0       ?PostSetup@VehicleSelectBase@@UAEXXZ 004F6AD0
 0001:000F5AF0       ?AllSetCar@VehicleSelectBase@@QAEXPADH@Z 004F6AF0
 0001:000F5B40       ?TDPickCB@VehicleSelectBase@@QAEXXZ 004F6B40
 0001:000F5B50       ?Reset@VehicleSelectBase@@UAEXXZ 004F6B50
 0001:000F5B60       ?Update@VehicleSelectBase@@UAEXXZ 004F6B60
 0001:000F5C00       ?GetCarTitle@VehicleSelectBase@@QAEPADHPADFPAVstring@@@Z 004F6C00
 0001:000F5D30       ?CurrentVehicleIsLocked@VehicleSelectBase@@QAEHXZ 004F6D30
 0001:000F5D90       ?SetLastUnlockedVehicle@VehicleSelectBase@@QAEXXZ 004F6D90
 0001:000F5DF0       ?CarMod@VehicleSelectBase@@QAEXAAH@Z 004F6DF0
 0001:000F5E20       ?SetPick@VehicleSelectBase@@QAEXHF@Z 004F6E20
 0001:000F6120       ?ShowCarDesc@VehicleSelectBase@@QAEXXZ 004F7120
 0001:000F6340       ?LoadStats@VehicleSelectBase@@QAEHPAD@Z 004F7340
 0001:000F63E0       ?max@@YAMMM@Z              004F73E0
 0001:000F6400       ?min@@YAMMM@Z              004F7400
 0001:000F6420       ?AssignVehicleStats@VehicleSelectBase@@QAEXHMMMM@Z 004F7420
 0001:000F6590       ?FillStats@VehicleSelectBase@@QAEXXZ 004F7590
 0001:000F65E0       ?SetLockedLabel@VehicleSelectBase@@QAEXXZ 004F75E0
 0001:000F6770       ?LockColor@VehicleSelectBase@@QAEXXZ 004F7770
 0001:000F67F0       ?FocusDescription@VehicleSelectBase@@QAEXHH@Z 004F77F0
 0001:000F6960       ??_GVehicleSelectBase@@UAEPAXI@Z 004F7960
 0001:000F6990       ??_EasDofCS@@UAEPAXI@Z     004F7990
 0001:000F69F0       ??1asDofCS@@UAE@XZ         004F79F0
 0001:000F6A00       ??_EmmVehicleForm@@UAEPAXI@Z 004F7A00
 0001:000F6A60       ?DecCar@VehicleSelectBase@@QAEXXZ 004F7A60
 0001:000F6A70       ?IncCar@VehicleSelectBase@@QAEXXZ 004F7A70
 0001:000F6A80       ?SetShowcaseFlag@VehicleSelectBase@@QAEXXZ 004F7A80
 0001:000F6A90       ?IsValid@mmVehInfo@@QAEHXZ 004F7A90
 0001:000F6AA0       ??0AudioOptions@@QAE@H@Z   004F7AA0
 0001:000F76D0       ??1AudioOptions@@UAE@XZ    004F86D0
 0001:000F7750       ?PreSetup@AudioOptions@@UAEXXZ 004F8750
 0001:000F77A0       ?SetSFXVolume@AudioOptions@@QAEXXZ 004F87A0
 0001:000F7800       ?SetMusicVolume@AudioOptions@@QAEXXZ 004F8800
 0001:000F7860       ?SetBalance@AudioOptions@@QAEXXZ 004F8860
 0001:000F78D0       ?SetQuality@AudioOptions@@QAEXXZ 004F88D0
 0001:000F7950       ?SetStereoFX@AudioOptions@@QAEXXZ 004F8950
 0001:000F79A0       ?StoreCurrentSetup@AudioOptions@@UAEXXZ 004F89A0
 0001:000F79B0       ?ResetDefaultAction@AudioOptions@@UAEXXZ 004F89B0
 0001:000F7A90       ?CancelAction@AudioOptions@@UAEXXZ 004F8A90
 0001:000F7B20       ?DoneAction@AudioOptions@@UAEXXZ 004F8B20
 0001:000F7B30       ?SetAudioState@AudioOptions@@QAEXXZ 004F8B30
 0001:000F7CB0       ?SetMusic@AudioOptions@@QAEXXZ 004F8CB0
 0001:000F7CD0       ?SetAmbient@AudioOptions@@QAEXXZ 004F8CD0
 0001:000F7D00       ?SetSoundFX@AudioOptions@@QAEXXZ 004F8D00
 0001:000F7D20       ?SetCommentary@AudioOptions@@QAEXXZ 004F8D20
 0001:000F7D50       ?FindDevice@AudioOptions@@QAEHPAD@Z 004F8D50
 0001:000F7DD0       ?GetCurrentDeviceName@AudioOptions@@QAEPADXZ 004F8DD0
 0001:000F7DF0       ?ResetStereo@AudioOptions@@QAEXXZ 004F8DF0
 0001:000F7E10       ?ResetSoundFX@AudioOptions@@QAEXXZ 004F8E10
 0001:000F7E40       ?ResetMusic@AudioOptions@@QAEXXZ 004F8E40
 0001:000F7E70       ?ResetAmbient@AudioOptions@@QAEXXZ 004F8E70
 0001:000F7EA0       ?ResetSoundQuality@AudioOptions@@QAEXXZ 004F8EA0
 0001:000F7EE0       ?ResetCommentary@AudioOptions@@QAEXXZ 004F8EE0
 0001:000F7F00       ?SetDevice@AudioOptions@@QAEXH@Z 004F8F00
 0001:000F7FA0       ?ToggleMusic@AudioOptions@@QAEXXZ 004F8FA0
 0001:000F8090       ?ToggleAmbient@AudioOptions@@QAEXXZ 004F9090
 0001:000F80D0       ?LoadUIMusicCSV@AudioOptions@@QAEXPAD@Z 004F90D0
 0001:000F81C0       ?FocusDescription@AudioOptions@@QAEXHH@Z 004F91C0
 0001:000F8310       ??_GAudioOptions@@UAEPAXI@Z 004F9310
 0001:000F8340       ??0Dialog_Eject@@QAE@HMMMMPAD@Z 004F9340
 0001:000F8520       ??1Dialog_Eject@@UAE@XZ    004F9520
 0001:000F8590       ?PostSetup@Dialog_Eject@@UAEXXZ 004F9590
 0001:000F85A0       ?PreSetup@Dialog_Eject@@UAEXXZ 004F95A0
 0001:000F85B0       ?BootButtonCB@Dialog_Eject@@QAEXXZ 004F95B0
 0001:000F8610       ?AddName@Dialog_Eject@@QAEXPBDKH@Z 004F9610
 0001:000F86B0       ?RemoveName@Dialog_Eject@@QAEXPBDK@Z 004F96B0
 0001:000F8800       ?RemoveName@Dialog_Eject@@QAEXK@Z 004F9800
 0001:000F8940       ?ClearNames@Dialog_Eject@@QAEXXZ 004F9940
 0001:000F89C0       ?PostNames@Dialog_Eject@@QAEXXZ 004F99C0
 0001:000F89F0       ?SetBootCB@Dialog_Eject@@QAEXVdatCallback@@@Z 004F99F0
 0001:000F8A10       ?FindRosterName@Dialog_Eject@@QAEHPBD@Z 004F9A10
 0001:000F8A80       ?FindRosterName@Dialog_Eject@@QAEHK@Z 004F9A80
 0001:000F8AB0       ??_GDialog_Eject@@UAEPAXI@Z 004F9AB0
 0001:000F8AE0       ??0Dialog_City2@@QAE@HMMMMPAD@Z 004F9AE0
 0001:000F8E10       ??1Dialog_City2@@UAE@XZ    004F9E10
 0001:000F8E80       ?PreSetup@Dialog_City2@@UAEXXZ 004F9E80
 0001:000F8E90       ?PostSetup@Dialog_City2@@UAEXXZ 004F9E90
 0001:000F8EA0       ?ScrollCB@Dialog_City2@@QAEXXZ 004F9EA0
 0001:000F8EB0       ?CancelCB@Dialog_City2@@QAEXXZ 004F9EB0
 0001:000F8EE0       ?DoneCB@Dialog_City2@@QAEXXZ 004F9EE0
 0001:000F8F80       ?SetCurrentCity@Dialog_City2@@QAEXH@Z 004F9F80
 0001:000F8FC0       ??_GDialog_City2@@UAEPAXI@Z 004F9FC0
 0001:000F8FF0       ??_EmmCompCity@@UAEPAXI@Z  004F9FF0
 0001:000F9050       ??0Dialog_ReplayEdit@@QAE@HMMMMPAD@Z 004FA050
 0001:000F91E0       ??1Dialog_ReplayEdit@@UAE@XZ 004FA1E0
 0001:000F91F0       ?PreSetup@Dialog_ReplayEdit@@UAEXXZ 004FA1F0
 0001:000F9200       ?ReplayDescCallback@Dialog_ReplayEdit@@QAEXXZ 004FA200
 0001:000F9210       ?SetDesc@Dialog_ReplayEdit@@QAEXPAD@Z 004FA210
 0001:000F9280       ??_GDialog_ReplayEdit@@UAEPAXI@Z 004FA280
 0001:000F92B0       ??0Dialog_Replay@@QAE@HMMMMPAD@Z 004FA2B0
 0001:000F96F0       ??1Dialog_Replay@@UAE@XZ   004FA6F0
 0001:000F97A0       ?PreSetup@Dialog_Replay@@UAEXXZ 004FA7A0
 0001:000F97B0       ?PostSetup@Dialog_Replay@@UAEXXZ 004FA7B0
 0001:000F97C0       ?ScrollCB@Dialog_Replay@@QAEXXZ 004FA7C0
 0001:000F97E0       ?CancelCB@Dialog_Replay@@QAEXXZ 004FA7E0
 0001:000F9810       ?DoneCB@Dialog_Replay@@QAEXXZ 004FA810
 0001:000F9830       ?EditCB@Dialog_Replay@@QAEXXZ 004FA830
 0001:000F9840       ?SetDescription@Dialog_Replay@@QAEXPAD@Z 004FA840
 0001:000F9890       ?GetDescription@Dialog_Replay@@QAEPADXZ 004FA890
 0001:000F99A0       ?DeleteCB@Dialog_Replay@@QAEXXZ 004FA9A0
 0001:000F9A60       ?SetCurrentReplay@Dialog_Replay@@QAEXH@Z 004FAA60
 0001:000F9AB0       ?GetSelectedReplay@Dialog_Replay@@QAEPADXZ 004FAAB0
 0001:000F9AF0       ?SetDriverStats@Dialog_Replay@@QAEXPAD00@Z 004FAAF0
 0001:000F9B50       ?isReplayFile@@YA_NPBD@Z   004FAB50
 0001:000F9BC0       ?LoadDlgReplayCB@@YAXPBD_NPAX@Z 004FABC0
 0001:000F9C70       ?LoadAll@Dialog_Replay@@QAEXXZ 004FAC70
 0001:000F9C90       ??_GDialog_Replay@@UAEPAXI@Z 004FAC90
 0001:000F9CC0       ??_EmmCompReplay@@UAEPAXI@Z 004FACC0
 0001:000F9D20       ??0Dialog_Host@@QAE@HMMMMPAD@Z 004FAD20
 0001:000F9F40       ??1Dialog_Host@@UAE@XZ     004FAF40
 0001:000F9F50       ?PreSetup@Dialog_Host@@UAEXXZ 004FAF50
 0001:000F9F90       ?PasswordCallback@Dialog_Host@@QAEXXZ 004FAF90
 0001:000F9FA0       ?Clear@Dialog_Host@@QAEXXZ 004FAFA0
 0001:000F9FE0       ??_GDialog_Host@@UAEPAXI@Z 004FAFE0
 0001:000FA010       ??0Dialog_Password@@QAE@HMMMMPAD@Z 004FB010
 0001:000FA1A0       ??1Dialog_Password@@UAE@XZ 004FB1A0
 0001:000FA1B0       ?PreSetup@Dialog_Password@@UAEXXZ 004FB1B0
 0001:000FA1C0       ?PasswordCallback@Dialog_Password@@QAEXXZ 004FB1C0
 0001:000FA1D0       ??_GDialog_Password@@UAEPAXI@Z 004FB1D0
 0001:000FA200       ??0Dialog_RaceEnvironment@@QAE@HMMMMPAD@Z 004FB200
 0001:000FA8D0       ??1Dialog_RaceEnvironment@@UAE@XZ 004FB8D0
 0001:000FA930       ?PreSetup@Dialog_RaceEnvironment@@UAEXXZ 004FB930
 0001:000FA980       ?ControlPedSlider@Dialog_RaceEnvironment@@QAEXXZ 004FB980
 0001:000FA9A0       ?SetMultiRaceOptions@Dialog_RaceEnvironment@@QAEXH@Z 004FB9A0
 0001:000FA9E0       ?DoneCallback@Dialog_RaceEnvironment@@QAEXXZ 004FB9E0
 0001:000FAA30       ?CancelCallback@Dialog_RaceEnvironment@@QAEXXZ 004FBA30
 0001:000FAA40       ??_GDialog_RaceEnvironment@@UAEPAXI@Z 004FBA40
 0001:000FAA70       ??0Dialog_HallOfFame@@QAE@HMMMMPAD@Z 004FBA70
 0001:000FAFC0       ??1Dialog_HallOfFame@@UAE@XZ 004FBFC0
 0001:000FB030       ?PreSetup@Dialog_HallOfFame@@UAEXXZ 004FC030
 0001:000FB040       ?AddRaceRecord@Dialog_HallOfFame@@QAEXHPAD00H00@Z 004FC040
 0001:000FB570       ?ResetRaceRecord@Dialog_HallOfFame@@QAEXXZ 004FC570
 0001:000FB600       ?SortByCity@Dialog_HallOfFame@@QAEXXZ 004FC600
 0001:000FB620       ?SetSortState@Dialog_HallOfFame@@QAEXXZ 004FC620
 0001:000FB6A0       ?InitRaceRecord@Dialog_HallOfFame@@QAEXXZ 004FC6A0
 0001:000FB840       ??_GDialog_HallOfFame@@UAEPAXI@Z 004FC840
 0001:000FB870       ??0Dialog_DriverRec@@QAE@HMMMMPAD@Z 004FC870
 0001:000FBD00       ??1Dialog_DriverRec@@UAE@XZ 004FCD00
 0001:000FBD70       ?PreSetup@Dialog_DriverRec@@UAEXXZ 004FCD70
 0001:000FBD80       ?InitDriverRecord@Dialog_DriverRec@@QAEXH@Z 004FCD80
 0001:000FBE50       ?AddDriverRecord@Dialog_DriverRec@@QAEHHPADHM0H@Z 004FCE50
 0001:000FC270       ?ResetDriverRecord@Dialog_DriverRec@@QAEXXZ 004FD270
 0001:000FC300       ?SetRecordPosition@Dialog_DriverRec@@QAEXH@Z 004FD300
 0001:000FC320       ?SetSortState@Dialog_DriverRec@@QAEXXZ 004FD320
 0001:000FC380       ?SetCityState@Dialog_DriverRec@@QAEXXZ 004FD380
 0001:000FC3A0       ??_GDialog_DriverRec@@UAEPAXI@Z 004FD3A0
 0001:000FC3D0       ??0Dialog_Message@@QAE@HMMMMPAD@Z 004FD3D0
 0001:000FC4F0       ?Init@Dialog_Message@@QAEXHPAD0@Z 004FD4F0
 0001:000FC560       ??1Dialog_Message@@UAE@XZ  004FD560
 0001:000FC570       ?PreSetup@Dialog_Message@@UAEXXZ 004FD570
 0001:000FC580       ??_GDialog_Message@@UAEPAXI@Z 004FD580
 0001:000FC5B0       ??0Dialog_NewPlayer@@QAE@HMMMMPAD@Z 004FD5B0
 0001:000FC910       ??1Dialog_NewPlayer@@UAE@XZ 004FD910
 0001:000FC920       ?EnterNewPlayer@Dialog_NewPlayer@@QAEXXZ 004FD920
 0001:000FC930       ?PreSetup@Dialog_NewPlayer@@UAEXXZ 004FD930
 0001:000FC960       ??_GDialog_NewPlayer@@UAEPAXI@Z 004FD960
 0001:000FC990       ??0Dialog_Serial@@QAE@HMMMMPAD@Z 004FD990
 0001:000FD340       ??1Dialog_Serial@@UAE@XZ   004FE340
 0001:000FD3A0       ?PreSetup@Dialog_Serial@@UAEXXZ 004FE3A0
 0001:000FD3B0       ?IPAddressCallback@Dialog_Serial@@QAEXXZ 004FE3B0
 0001:000FD3C0       ?BuildComs@Dialog_Serial@@QAEXXZ 004FE3C0
 0001:000FD480       ?GetCommPack@Dialog_Serial@@QAEPAUNETCOMMPACK@@XZ 004FE480
 0001:000FD490       ??_GDialog_Serial@@UAEPAXI@Z 004FE490
 0001:000FD4C0       ??0Dialog_ControlAssign@@QAE@HMMMMPAD@Z 004FE4C0
 0001:000FD5D0       ??1Dialog_ControlAssign@@UAE@XZ 004FE5D0
 0001:000FD5E0       ?PreSetup@Dialog_ControlAssign@@UAEXXZ 004FE5E0
 0001:000FD5F0       ??_GDialog_ControlAssign@@UAEPAXI@Z 004FE5F0
 0001:000FD620       ??0Dialog_TCPIP@@QAE@HMMMMPAD@Z 004FE620
 0001:000FD7B0       ??1Dialog_TCPIP@@UAE@XZ    004FE7B0
 0001:000FD7C0       ?PreSetup@Dialog_TCPIP@@UAEXXZ 004FE7C0
 0001:000FD7D0       ?IPAddressCallback@Dialog_TCPIP@@QAEXXZ 004FE7D0
 0001:000FD7E0       ?SetIPAddress@Dialog_TCPIP@@QAEXPAD@Z 004FE7E0
 0001:000FD850       ??_GDialog_TCPIP@@UAEPAXI@Z 004FE850
 0001:000FD880       ??0NetArena@@QAE@H@Z       004FE880
 0001:000FE140       ??1NetArena@@UAE@XZ        004FF140
 0001:000FE230       ?PreSetup@NetArena@@UAEXXZ 004FF230
 0001:000FE240       ?EnablePlayButton@NetArena@@QAEXXZ 004FF240
 0001:000FE250       ?DisablePlayButton@NetArena@@QAEXXZ 004FF250
 0001:000FE260       ?ResetGameChat@NetArena@@QAEXXZ 004FF260
 0001:000FE320       ?AddGameChatLine@NetArena@@QAEXPAD@Z 004FF320
 0001:000FE3C0       ?PostChatMessages@NetArena@@QAEXXZ 004FF3C0
 0001:000FE490       ?ChatEntry@NetArena@@QAEXXZ 004FF490
 0001:000FE560       ?RetrieveChatLine@NetArena@@QAEHPAD@Z 004FF560
 0001:000FE5B0       ?FindRosterName@NetArena@@QAEHPAD@Z 004FF5B0
 0001:000FE620       ?AddRosterName@NetArena@@QAEXPAD@Z 004FF620
 0001:000FE640       ?AddRosterName@NetArena@@QAEXPAULocString@@00KHH@Z 004FF640
 0001:000FE840       ?RemoveRosterEntry@NetArena@@QAEXH@Z 004FF840
 0001:000FE910       ?ResetRoster@NetArena@@QAEXXZ 004FF910
 0001:000FE9A0       ?RemoveRosterName@NetArena@@QAEXPAD@Z 004FF9A0
 0001:000FE9E0       ?SetStatus@NetArena@@QAEXKHH@Z 004FF9E0
 0001:000FEA40       ?GetStatus@NetArena@@QAE_NK@Z 004FFA40
 0001:000FEA90       ?GetRaceName@NetArena@@QAEPADXZ 004FFA90
 0001:000FED00       ?PostHostSettings@NetArena@@QAEXH@Z 004FFD00
 0001:000FF2B0       ?PostPlayerInfo@NetArena@@QAEXPAULocString@@00@Z 005002B0
 0001:000FF360       ?SyncJoin@NetArena@@QAEXXZ 00500360
 0001:000FF380       ?LateJoin@NetArena@@QAEXXZ 00500380
 0001:000FF3A0       ?SetHost@NetArena@@QAEXH@Z 005003A0
 0001:000FF430       ?TeamCallback@NetArena@@QAEXXZ 00500430
 0001:000FF440       ?SetTeamWidgets@NetArena@@QAEXXZ 00500440
 0001:000FF4E0       ?LoadRaceMap@NetArena@@QAEXXZ 005004E0
 0001:000FF570       ?ChangeRosterData@NetArena@@QAEXPAULocString@@KHH@Z 00500570
 0001:000FF5E0       ?ShowRosterTeam@NetArena@@QAEXH@Z 005005E0
 0001:000FF620       ?SetMyStatus@NetArena@@QAEXH@Z 00500620
 0001:000FF670       ??_GNetArena@@UAEPAXI@Z    00500670
 0001:000FF6A0       ??0HostRaceMenu@@QAE@H@Z   005006A0
 0001:000FF7E0       ??1HostRaceMenu@@UAE@XZ    005007E0
 0001:000FF870       ?PreSetup@HostRaceMenu@@UAEXXZ 00500870
 0001:000FF890       ?InitCRWidgets@HostRaceMenu@@UAEXXZ 00500890
 0001:00100230       ?SetCRWidgets@HostRaceMenu@@UAEXH@Z 00501230
 0001:00100330       ?SetLimitControl@HostRaceMenu@@QAEXXZ 00501330
 0001:001004E0       ?EncodeCRData@HostRaceMenu@@QAEHXZ 005014E0
 0001:00100530       ?DecodeCRData@HostRaceMenu@@QAEXH@Z 00501530
 0001:001005A0       ?GetLimit@HostRaceMenu@@QAEXAAH0@Z 005015A0
 0001:001005F0       ?SetLimit@HostRaceMenu@@QAEXAAH0@Z 005015F0
 0001:00100670       ?SetGoldMass@HostRaceMenu@@QAEXH@Z 00501670
 0001:001006A0       ?GetGoldMass@HostRaceMenu@@QAEHXZ 005016A0
 0001:001006B0       ?GetLimitVal@HostRaceMenu@@QAEHAAH@Z 005016B0
 0001:00100700       ?GetGoldMassVal@HostRaceMenu@@QAEHXZ 00501700
 0001:00100710       ?SetGameClassCallback@HostRaceMenu@@QAEXXZ 00501710
 0001:00100720       ?LimitInc@HostRaceMenu@@QAEXXZ 00501720
 0001:00100770       ?LimitDec@HostRaceMenu@@QAEXXZ 00501770
 0001:001007C0       ?MassInc@HostRaceMenu@@QAEXXZ 005017C0
 0001:001007F0       ?MassDec@HostRaceMenu@@QAEXXZ 005017F0
 0001:00100820       ??_GHostRaceMenu@@UAEPAXI@Z 00501820
 0001:00100850       ?FocusThis@@YAXXZ          00501850
 0001:00100860       ??0ControlSetup@@QAE@H@Z   00501860
 0001:00100A60       ??1ControlSetup@@UAE@XZ    00501A60
 0001:00100AE0       ?CreateDeviceOptions@ControlSetup@@QAEXXZ 00501AE0
 0001:00101020       ?DeactivateAllDeviceOptions@ControlSetup@@QAEXXZ 00502020
 0001:00101080       ?ActivateDeviceOptions@ControlSetup@@QAEXXZ 00502080
 0001:00101360       ?SetControlPosition@ControlSetup@@QAEMPAVuiWidget@@MM@Z 00502360
 0001:00101380       ?POVCB@ControlSetup@@QAEXXZ 00502380
 0001:00101390       ?SetSensitivityCB@ControlSetup@@QAEXXZ 00502390
 0001:001013A0       ?ControlSelect@ControlSetup@@QAEXXZ 005023A0
 0001:001013F0       ?PreSetup@ControlSetup@@UAEXXZ 005023F0
 0001:00101430       ?SetFFPermissions@ControlSetup@@QAEXXZ 00502430
 0001:00101470       ?InitCustomControls@ControlSetup@@QAEXXZ 00502470
 0001:00101500       ?Update@ControlSetup@@UAEXXZ 00502500
 0001:00101520       ?StoreCurrentSetup@ControlSetup@@UAEXXZ 00502520
 0001:00101530       ?ResetDefaultAction@ControlSetup@@UAEXXZ 00502530
 0001:00101570       ?LaunchJoyCpl@ControlSetup@@QAEXXZ 00502570
 0001:00101620       CalibrateWatcher           00502620
 0001:00101700       ?CancelAction@ControlSetup@@UAEXXZ 00502700
 0001:00101710       ?DoneAction@ControlSetup@@UAEXXZ 00502710
 0001:00101720       ?FocusDescription@ControlSetup@@QAEXPAX0@Z 00502720
 0001:00101750       ??_GControlSetup@@UAEPAXI@Z 00502750
 0001:00101780       ??0ControlCustom@@QAE@H@Z  00502780
 0001:00101820       ??1ControlCustom@@UAE@XZ   00502820
 0001:00101830       ?BadAssignCB@ControlCustom@@QAEXXZ 00502830
 0001:00101880       ?ClearBadAssignment@ControlCustom@@QAEXXZ 00502880
 0001:00101890       ?CancelBadAssignment@ControlCustom@@QAEXXZ 00502890
 0001:001018B0       ?VerifyBadAssignment@ControlCustom@@QAEXXZ 005028B0
 0001:001018D0       ?ResetDefaultAction@ControlCustom@@UAEXXZ 005028D0
 0001:001018F0       ?DoneAction@ControlCustom@@UAEXXZ 005028F0
 0001:00101900       ?CancelAction@ControlCustom@@UAEXXZ 00502900
 0001:00101920       ??_GControlCustom@@UAEPAXI@Z 00502920
 0001:00101950       ??0OptionsMenu@@QAE@H@Z    00502950
 0001:00101C70       ??1OptionsMenu@@UAE@XZ     00502C70
 0001:00101C80       ?PreSetup@OptionsMenu@@UAEXXZ 00502C80
 0001:00101CC0       ?PostSetup@OptionsMenu@@UAEXXZ 00502CC0
 0001:00101CE0       ?FocusDescription@OptionsMenu@@QAEXHH@Z 00502CE0
 0001:00101D10       ??_GOptionsMenu@@UAEPAXI@Z 00502D10
 0001:00101D40       ??0CrashCourseIntro@@QAE@H@Z 00502D40
 0001:00101E80       ??1CrashCourseIntro@@UAE@XZ 00502E80
 0001:00101E90       ?PreSetup@CrashCourseIntro@@UAEXXZ 00502E90
 0001:00101EB0       ?PostSetup@CrashCourseIntro@@UAEXXZ 00502EB0
 0001:00101EC0       ??_GCrashCourseIntro@@UAEPAXI@Z 00502EC0
 0001:00101EF0       ??0ccStatus@@QAE@XZ        00502EF0
 0001:00101F20       ??1ccStatus@@UAE@XZ        00502F20
 0001:00101F80       ?LoadBitmap@ccStatus@@QAEXPADHHH@Z 00502F80
 0001:00101FF0       ?Update@ccStatus@@UAEXXZ   00502FF0
 0001:00102010       ?Cull@ccStatus@@UAEXXZ     00503010
 0001:00102060       ?SetStatus@ccStatus@@QAEXF@Z 00503060
 0001:00102070       ??0CrashCourse@@QAE@H@Z    00503070
 0001:00102710       ??1CrashCourse@@UAE@XZ     00503710
 0001:00102790       ?SetRaceGrade@CrashCourse@@QAEXHH@Z 00503790
 0001:001027C0       ?PreSetup@CrashCourse@@UAEXXZ 005037C0
 0001:00102960       ?GameCallback@CrashCourse@@QAEXXZ 00503960
 0001:00102980       ?SetEnvironment@CrashCourse@@QAEXXZ 00503980
 0001:00102BD0       ?SetRaceState@CrashCourse@@QAEXXZ 00503BD0
 0001:00102CF0       ?ChangeLocalVals@CrashCourse@@QAEXXZ 00503CF0
 0001:00102F00       ?FocusDescription@CrashCourse@@QAEXHH@Z 00503F00
 0001:00102F10       ?SetProgressMask@CrashCourse@@QAEXH@Z 00503F10
 0001:00102F30       ?SetBlitzMask@CrashCourse@@QAEXH@Z 00503F30
 0001:00102F50       ?SetCheckpointMask@CrashCourse@@QAEXH@Z 00503F50
 0001:00102F70       ?IncRaceName@CrashCourse@@QAEXXZ 00503F70
 0001:00103010       ?DecRaceName@CrashCourse@@QAEXXZ 00504010
 0001:00103080       ?SetVehicleNext@CrashCourse@@QAEX_N@Z 00504080
 0001:001030D0       ??_GccStatus@@UAEPAXI@Z    005040D0
 0001:00103100       ??_GCrashCourse@@UAEPAXI@Z 00504100
 0001:00103130       ??0NetSelectMenu@@QAE@H@Z  00504130
 0001:001038B0       ??1NetSelectMenu@@UAE@XZ   005048B0
 0001:00103930       ?PreSetup@NetSelectMenu@@UAEXXZ 00504930
 0001:001039B0       ?PostSetup@NetSelectMenu@@UAEXXZ 005049B0
 0001:001039D0       ?HostCB@NetSelectMenu@@QAEXXZ 005049D0
 0001:001039E0       ?JoinCB@NetSelectMenu@@QAEXXZ 005049E0
 0001:001039F0       ?GetHostJoin@NetSelectMenu@@QAEHXZ 005049F0
 0001:00103A00       ?FocusDescription@NetSelectMenu@@QAEXHH@Z 00504A00
 0001:00103AA0       ?SetDescription@NetSelectMenu@@QAEXPAULocString@@@Z 00504AA0
 0001:00103AB0       ?JoinCallback@NetSelectMenu@@QAEXXZ 00504AB0
 0001:00103AC0       ?ShowTCPIPNetSessions@NetSelectMenu@@QAEXXZ 00504AC0
 0001:00103AD0       ?DisableSessions@NetSelectMenu@@QAEXXZ 00504AD0
 0001:00103AE0       ?ProtocolBack@NetSelectMenu@@QAEXXZ 00504AE0
 0001:00103B00       ?SetNetname@NetSelectMenu@@QAEXPAD@Z 00504B00
 0001:00103B40       ?SetPhoneNumber@NetSelectMenu@@QAEXPAD@Z 00504B40
 0001:00103B60       ?SetIPAddress@NetSelectMenu@@QAEXPAD@Z 00504B60
 0001:00103B80       ?GetSessions@NetSelectMenu@@QAEPAVUITextScroll@@XZ 00504B80
 0001:00103B90       ?GetSessionID@NetSelectMenu@@QAEHXZ 00504B90
 0001:00103BA0       ?SetSession@NetSelectMenu@@QAEXPADH@Z 00504BA0
 0001:00103BD0       ?IPAddressCallback@NetSelectMenu@@QAEXXZ 00504BD0
 0001:00103BF0       ?BuildComs@NetSelectMenu@@QAEXXZ 00504BF0
 0001:00103CE0       ?SetComs@NetSelectMenu@@QAEXXZ 00504CE0
 0001:00103DE0       ?ReparentWidgets@NetSelectMenu@@QAEXH@Z 00504DE0
 0001:00103DF0       ?WidgetSwitch@NetSelectMenu@@QAEXHH@Z 00504DF0
 0001:00103E00       ?AddWidgetToList@NetSelectMenu@@QAEXHPAVuiWidget@@@Z 00504E00
 0001:00103E10       ?AddModem@NetSelectMenu@@QAEXPADH@Z 00504E10
 0001:00103F20       ?ClearProtocol@NetSelectMenu@@QAEXXZ 00504F20
 0001:00103F30       ?SetIPXButton@NetSelectMenu@@QAEXH@Z 00504F30
 0001:00103F60       ?SetTCPLocalButton@NetSelectMenu@@QAEXH@Z 00504F60
 0001:00103F70       ?SetTCPNetButton@NetSelectMenu@@QAEXH@Z 00504F70
 0001:00103FA0       ?SetModemButton@NetSelectMenu@@QAEXH@Z 00504FA0
 0001:00103FD0       ?SetSerialButton@NetSelectMenu@@QAEXH@Z 00504FD0
 0001:00104000       ?GetCommPack@NetSelectMenu@@QAEPAUNETCOMMPACK@@XZ 00505000
 0001:00104010       ?NetNameCB@NetSelectMenu@@QAEXXZ 00505010
 0001:00104040       ?EnableSearchLabel@NetSelectMenu@@QAEX_N@Z 00505040
 0001:00104070       ??0string@@QAE@PBD@Z       00505070
 0001:001040E0       ??_GNetSelectMenu@@UAEPAXI@Z 005050E0
 0001:00104110       ??0RaceMenu@@QAE@H@Z       00505110
 0001:001041E0       ??1RaceMenu@@UAE@XZ        005051E0
 0001:001041F0       ?GetRaceID@RaceMenu@@QAEHXZ 005051F0
 0001:00104280       ?SetProgressMask@RaceMenu@@QAEXH@Z 00505280
 0001:001042A0       ?SetBlitzMask@RaceMenu@@QAEXH@Z 005052A0
 0001:001042C0       ?SetCheckpointMask@RaceMenu@@QAEXH@Z 005052C0
 0001:001042E0       ?SetCircuitMask@RaceMenu@@QAEXH@Z 005052E0
 0001:00104300       ?GetRaceName@RaceMenu@@QAEPADW4dgGameMode@@H@Z 00505300
 0001:00104420       ??_GRaceMenu@@UAEPAXI@Z    00505420
 0001:00104450       ?SetCRWidgets@RaceMenuBase@@UAEXH@Z 00505450
 0001:00104460       ?InitCRWidgets@RaceMenuBase@@UAEXXZ 00505460
 0001:00104470       ??0VehShowcase@@QAE@H@Z    00505470
 0001:001045C0       ??1VehShowcase@@UAE@XZ     005055C0
 0001:00104620       ?PreSetup@VehShowcase@@UAEXXZ 00505620
 0001:00104690       ?PostSetup@VehShowcase@@UAEXXZ 00505690
 0001:001046A0       ??_GVehShowcase@@UAEPAXI@Z 005056A0
 0001:001046D0       ??0Vehicle@@QAE@H@Z        005056D0
 0001:001047B0       ??1Vehicle@@UAE@XZ         005057B0
 0001:001047C0       ?SetSubMenu@Vehicle@@QAEXH@Z 005057C0
 0001:001047E0       ?SetSubMenuButtons@Vehicle@@QAEXXZ 005057E0
 0001:00104800       ?PreSetup@Vehicle@@UAEXXZ  00505800
 0001:00104810       ?PostSetup@Vehicle@@UAEXXZ 00505810
 0001:00104820       ??_GVehicle@@UAEPAXI@Z     00505820
 0001:00104850       ?GetMidtownRegString@@YAXPADH00@Z 00505850
 0001:001048D0       ??0AboutMenu@@QAE@H@Z      005058D0
 0001:00104AB0       ??1AboutMenu@@UAE@XZ       00505AB0
 0001:00104AC0       ?PreSetup@AboutMenu@@UAEXXZ 00505AC0
 0001:00104AE0       ?Update@AboutMenu@@UAEXXZ  00505AE0
 0001:00104B50       ?Cull@AboutMenu@@UAEXXZ    00505B50
 0001:00104C00       ??_GAboutMenu@@UAEPAXI@Z   00505C00
 0001:00104C30       ??0MainMenu@@QAE@H@Z       00505C30
 0001:00105020       ??1MainMenu@@UAE@XZ        00506020
 0001:001050A0       ?PreSetup@MainMenu@@UAEXXZ 005060A0
 0001:001050B0       ?EnableReplay@MainMenu@@QAEXH@Z 005060B0
 0001:001050D0       ?IsReplayReadOnly@MainMenu@@QAEHXZ 005060D0
 0001:001050E0       ?InitDriver@MainMenu@@QAEXXZ 005060E0
 0001:00105560       ?RemovePlayer@MainMenu@@QAEXPAD@Z 00506560
 0001:001057C0       ?SetPlayerPick@MainMenu@@QAEXH@Z 005067C0
 0001:001057D0       ?DecPlayer@MainMenu@@QAEXXZ 005067D0
 0001:00105800       ?IncPlayer@MainMenu@@QAEXXZ 00506800
 0001:00105830       ?RemoveAllPlayers@MainMenu@@QAEXXZ 00506830
 0001:00105840       ?AddPlayer@MainMenu@@QAEXPAD@Z 00506840
 0001:00105960       ?TDPickCB@MainMenu@@QAEXXZ 00506960
 0001:00105970       ?DeleteCB@MainMenu@@QAEXXZ 00506970
 0001:00105980       ?EnterNewPlayer@MainMenu@@QAEXXZ 00506980
 0001:00105990       ?DisplayDriverInfo@MainMenu@@QAEXPAD0000H@Z 00506990
 0001:00105A50       ?SetController@MainMenu@@QAEXPAD@Z 00506A50
 0001:00105A70       ?SetNetName@MainMenu@@QAEXPAD@Z 00506A70
 0001:00105A80       ?FocusDescription@MainMenu@@QAEXHH@Z 00506A80
 0001:00105AB0       ??_GMainMenu@@UAEPAXI@Z    00506AB0
 0001:00105BD0       ??0RaceMenuBase@@QAE@H@Z   00506BD0
 0001:00105CC0       ?Init@RaceMenuBase@@QAEXH@Z 00506CC0
 0001:00106D30       ??1RaceMenuBase@@UAE@XZ    00507D30
 0001:00106DC0       ?PreSetup@RaceMenuBase@@UAEXXZ 00507DC0
 0001:00106DF0       ?FocusDescription@RaceMenuBase@@QAEXHH@Z 00507DF0
 0001:00106E40       ?WidgetOnOff@RaceMenuBase@@QAEXHPAVuiWidget@@@Z 00507E40
 0001:00106EB0       ?SetRW@RaceMenuBase@@QAEXXZ 00507EB0
 0001:001072C0       ?CheatCallback@RaceMenuBase@@QAEXXZ 005082C0
 0001:001072D0       ?SyncRaceState@RaceMenuBase@@QAEXXZ 005082D0
 0001:00107350       ?CityChange@RaceMenuBase@@QAEXXZ 00508350
 0001:001074C0       ?AnotherCityChangeCB@RaceMenuBase@@QAEXXZ 005084C0
 0001:00107540       ?GameCallback@RaceMenuBase@@QAEXXZ 00508540
 0001:001075C0       ?LapsCallback@RaceMenuBase@@QAEXXZ 005085C0
 0001:001075D0       ?AICallback@RaceMenuBase@@QAEXXZ 005085D0
 0001:00107620       ?ChangeLocalVals@RaceMenuBase@@QAEXXZ 00508620
 0001:001078C0       ?SetStateRace@RaceMenuBase@@QAEXXZ 005088C0
 0001:00107C90       ?LoadRaceMap@RaceMenuBase@@QAEXXZ 00508C90
 0001:00107D20       ?DecRaceName@RaceMenuBase@@QAEXXZ 00508D20
 0001:00107DD0       ?IncRaceName@RaceMenuBase@@QAEXXZ 00508DD0
 0001:00107E80       ?IncLocale@RaceMenuBase@@QAEXXZ 00508E80
 0001:00107EB0       ?DecLocale@RaceMenuBase@@QAEXXZ 00508EB0
 0001:00107ED0       ?IncTime@RaceMenuBase@@QAEXXZ 00508ED0
 0001:00107F00       ?DecTime@RaceMenuBase@@QAEXXZ 00508F00
 0001:00107F30       ?IncWeather@RaceMenuBase@@QAEXXZ 00508F30
 0001:00107F60       ?DecWeather@RaceMenuBase@@QAEXXZ 00508F60
 0001:00107F90       ??_GRaceMenuBase@@UAEPAXI@Z 00508F90
 0001:00107FC0       ??0PUResults@@QAE@HMMMMPADHH@Z 00508FC0
 0001:00108120       ?Init320@PUResults@@QAEXXZ 00509120
 0001:00108600       ?Init640@PUResults@@QAEXXZ 00509600
 0001:00108B10       ??1PUResults@@UAE@XZ       00509B10
 0001:00108B20       ?AddTitle@PUResults@@QAEXPAULocString@@0@Z 00509B20
 0001:00108B50       ?Reset@PUResults@@UAEXXZ   00509B50
 0001:00108B60       ?RosterRO@PUResults@@QAEXH@Z 00509B60
 0001:00108B80       ?RestartRO@PUResults@@QAEXH@Z 00509B80
 0001:00108BA0       ?IsRosterReadOnly@PUResults@@QAEHXZ 00509BA0
 0001:00108BB0       ?IsRaceMenuReadOnly@PUResults@@QAEHXZ 00509BB0
 0001:00108BC0       ?RaceMenuRO@PUResults@@QAEXH@Z 00509BC0
 0001:00108BE0       ?AddName@PUResults@@QAEXHPBDM@Z 00509BE0
 0001:00108CA0       ?AddName@PUResults@@QAEXHPBD0@Z 00509CA0
 0001:00108D40       ?AddName@PUResults@@QAEXHPBDH@Z 00509D40
 0001:00108E10       ?AddLoser@PUResults@@QAEXHPBD@Z 00509E10
 0001:00108E70       ?ClearNames@PUResults@@QAEXXZ 00509E70
 0001:00108EE0       ?DisableNextRace@PUResults@@QAEXXZ 00509EE0
 0001:00108EF0       ?EnableNextRace@PUResults@@QAEXXZ 00509EF0
 0001:00108F00       ?SetMessage@PUResults@@QAEXPAULocString@@@Z 00509F00
 0001:00108F20       ??_GPUResults@@UAEPAXI@Z   00509F20
 0001:00109000       ??0PUGraphics@@QAE@HMMMM@Z 0050A000
 0001:001094A0       ??1PUGraphics@@UAE@XZ      0050A4A0
 0001:001094B0       ?PreSetup@PUGraphics@@UAEXXZ 0050A4B0
 0001:00109500       ?CancelAction@PUGraphics@@QAEXXZ 0050A500
 0001:00109510       ?SetFarClip@PUGraphics@@QAEXM@Z 0050A510
 0001:00109530       ?FixClip@PUGraphics@@QAEXXZ 0050A530
 0001:00109580       ?RenderQualityCB@PUGraphics@@QAEXXZ 0050A580
 0001:00109590       ??_GPUGraphics@@UAEPAXI@Z  0050A590
 0001:001095C0       ??0PUMain@@QAE@HMMMMPAD@Z  0050A5C0
 0001:00109800       ??1PUMain@@UAE@XZ          0050A800
 0001:00109810       ?RplRO@PUMain@@QAEXH@Z     0050A810
 0001:00109830       ?RestartRO@PUMain@@QAEXH@Z 0050A830
 0001:00109850       ?RaceMenuRO@PUMain@@QAEXH@Z 0050A850
 0001:00109870       ?IsRaceMenuReadOnly@PUMain@@QAEHXZ 0050A870
 0001:00109880       ??_GPUMain@@UAEPAXI@Z      0050A880
 0001:001098B0       ??0PURoster@@QAE@HMMMM@Z   0050A8B0
 0001:00109A60       ??1PURoster@@UAE@XZ        0050AA60
 0001:00109A70       ?Reset@PURoster@@UAEXXZ    0050AA70
 0001:00109A80       ?BootButtonCB@PURoster@@QAEXXZ 0050AA80
 0001:00109AE0       ?SetHost@PURoster@@QAEXH@Z 0050AAE0
 0001:00109B50       ?AddName@PURoster@@QAEXPBDKH@Z 0050AB50
 0001:00109C30       ?RemoveName@PURoster@@QAEXPBDK@Z 0050AC30
 0001:00109D70       ?RemoveName@PURoster@@QAEXK@Z 0050AD70
 0001:00109EA0       ?ClearNames@PURoster@@QAEXXZ 0050AEA0
 0001:00109F20       ?PostNames@PURoster@@QAEXXZ 0050AF20
 0001:00109F50       ?SetBootCB@PURoster@@QAEXVdatCallback@@@Z 0050AF50
 0001:00109F70       ?FindRosterName@PURoster@@QAEHPBD@Z 0050AF70
 0001:00109FE0       ?FindRosterName@PURoster@@QAEHK@Z 0050AFE0
 0001:0010A010       ??_GPURoster@@UAEPAXI@Z    0050B010
 0001:0010A040       ??0PUQuit@@QAE@HMMMMPAD@Z  0050B040
 0001:0010A1F0       ??1PUQuit@@UAE@XZ          0050B1F0
 0001:0010A200       ?EnableMigrateHost@PUQuit@@QAEX_N@Z 0050B200
 0001:0010A240       ??_GPUQuit@@UAEPAXI@Z      0050B240
 0001:0010A270       ??0PUReplay@@QAE@HMMMMPAD@Z 0050B270
 0001:0010A530       ??1PUReplay@@UAE@XZ        0050B530
 0001:0010A540       ?SaveRO@PUReplay@@QAEXH@Z  0050B540
 0001:0010A560       ?GetSaveRO@PUReplay@@QAEHXZ 0050B560
 0001:0010A570       ??_GPUReplay@@UAEPAXI@Z    0050B570
 0001:0010A5A0       ??0PUKey@@QAE@HMMMM@Z      0050B5A0
 0001:0010A640       ??1PUKey@@UAE@XZ           0050B640
 0001:0010A650       ?PreSetup@PUKey@@EAEXXZ    0050B650
 0001:0010A910       ?PostSetup@PUKey@@EAEXXZ   0050B910
 0001:0010A950       ??_GPUKey@@UAEPAXI@Z       0050B950
 0001:0010A980       ??0PUReplaySave@@QAE@HMMMMPAD@Z 0050B980
 0001:0010AAE0       ??1PUReplaySave@@UAE@XZ    0050BAE0
 0001:0010AAF0       ??_GPUReplaySave@@UAEPAXI@Z 0050BAF0
 0001:0010AB20       ??0PUChat@@QAE@HMMMMPAD@Z  0050BB20
 0001:0010AC20       ??1PUChat@@UAE@XZ          0050BC20
 0001:0010AC30       ?ClearChat@PUChat@@QAEXXZ  0050BC30
 0001:0010AC70       ?ChatEntry@PUChat@@QAEXXZ  0050BC70
 0001:0010ACD0       ??_GPUChat@@UAEPAXI@Z      0050BCD0
 0001:0010AD00       ??0PUControl@@QAE@HMMMM@Z  0050BD00
 0001:0010B090       ??1PUControl@@UAE@XZ       0050C090
 0001:0010B0F0       ?PreSetup@PUControl@@UAEXXZ 0050C0F0
 0001:0010B110       ?CancelAction@PUControl@@QAEXXZ 0050C110
 0001:0010B130       ?SetRWStates@PUControl@@QAEXXZ 0050C130
 0001:0010B1C0       ?ControlSelect@PUControl@@QAEXXZ 0050C1C0
 0001:0010B1F0       ?SetSensitivityCB@PUControl@@QAEXXZ 0050C1F0
 0001:0010B200       ??_GPUControl@@UAEPAXI@Z   0050C200
 0001:0010B230       ??0PUDebug@@QAE@HMMMM@Z    0050C230
 0001:0010B3F0       ??1PUDebug@@UAE@XZ         0050C3F0
 0001:0010B400       ?RecordCB@PUDebug@@QAEXXZ  0050C400
 0001:0010B410       ??_GPUDebug@@UAEPAXI@Z     0050C410
 0001:0010B440       ??0PUOptions@@QAE@HMMMM@Z  0050C440
 0001:0010B5E0       ??1PUOptions@@UAE@XZ       0050C5E0
 0001:0010B5F0       ??_GPUOptions@@UAEPAXI@Z   0050C5F0
 0001:0010B620       ??0PUAudioOptions@@QAE@HMMMM@Z 0050C620
 0001:0010B8E0       ??1PUAudioOptions@@UAE@XZ  0050C8E0
 0001:0010B8F0       ?SetWaveVolume@PUAudioOptions@@QAEXXZ 0050C8F0
 0001:0010B910       ?SetCDVolume@PUAudioOptions@@QAEXXZ 0050C910
 0001:0010B940       ?SetBalance@PUAudioOptions@@QAEXXZ 0050C940
 0001:0010B980       ?PreSetup@PUAudioOptions@@UAEXXZ 0050C980
 0001:0010B990       ?CancelAction@PUAudioOptions@@QAEXXZ 0050C990
 0001:0010BAC0       ??_GPUAudioOptions@@UAEPAXI@Z 0050CAC0
 0001:0010BAF0       ??0PUExit@@QAE@HMMMMPAD@Z  0050CAF0
 0001:0010BC50       ??1PUExit@@UAE@XZ          0050CC50
 0001:0010BC60       ??_GPUExit@@UAEPAXI@Z      0050CC60
 0001:0010BC90       ??0PUMenuBase@@QAE@HMMMMPAD_N@Z 0050CC90
 0001:0010BE70       ??1PUMenuBase@@UAE@XZ      0050CE70
 0001:0010BEF0       ?CreateDummyBitmap@PUMenuBase@@QAEPAVgfxBitmap@@XZ 0050CEF0
 0001:0010BF90       ?CreateTitle@PUMenuBase@@QAEMH@Z 0050CF90
 0001:0010BFD0       ?AddPrevious@PUMenuBase@@QAEMMMMM@Z 0050CFD0
 0001:0010C050       ?AddOKCancel@PUMenuBase@@QAEXVdatCallback@@0@Z 0050D050
 0001:0010C0F0       ?AddExit@PUMenuBase@@QAEMMMMM@Z 0050D0F0
 0001:0010C170       ?Update@PUMenuBase@@UAEXXZ 0050D170
 0001:0010C1A0       ?Cull@PUMenuBase@@UAEXXZ   0050D1A0
 0001:0010C1E0       ?DisableExit@PUMenuBase@@QAEXXZ 0050D1E0
 0001:0010C1F0       ?EnableExit@PUMenuBase@@QAEXXZ 0050D1F0
 0001:0010C200       ??_GPUMenuBase@@UAEPAXI@Z  0050D200
 0001:0010C230       ??0OptionsBase@@QAE@H@Z    0050D230
 0001:0010C3C0       ?CreateTitle@OptionsBase@@QAEXPAULocString@@@Z 0050D3C0
 0001:0010C3F0       ??1OptionsBase@@UAE@XZ     0050D3F0
 0001:0010C460       ??_GOptionsBase@@UAEPAXI@Z 0050D460
 0001:0010C490       ??_9@$BFA@AE               0050D490
 0001:0010C4A0       ??_9@$BFE@AE               0050D4A0
 0001:0010C4B0       ?ResetDefaultAction@OptionsBase@@UAEXXZ 0050D4B0
 0001:0010C4C0       ??0ControlBase@@QAE@XZ     0050D4C0
 0001:0010C4D0       ??1ControlBase@@QAE@XZ     0050D4D0
 0001:0010C4E0       ?InitSensitivity@ControlBase@@QAEXXZ 0050D4E0
 0001:0010C540       ?SetSensitivity@ControlBase@@QAEXXZ 0050D540
 0001:0010C570       ?SetAgeAudioManagerPtr@AudSoundBase@@SAXPAVaudManager@@@Z 0050D570
 0001:0010C580       ??0AudSoundBase@@QAE@XZ    0050D580
 0001:0010C5B0       ??0AudSoundBase@@QAE@PAV0@@Z 0050D5B0
 0001:0010C6D0       ??0AudSoundBase@@QAE@IHF@Z 0050D6D0
 0001:0010C7B0       ??1AudSoundBase@@UAE@XZ    0050D7B0
 0001:0010C890       ?DeallocateStatics@AudSoundBase@@SAXXZ 0050D890
 0001:0010C8D0       ?SetSubPath@AudSoundBase@@QAEXPAD@Z 0050D8D0
 0001:0010C900       ?SetExtension@AudSoundBase@@QAEXPAD@Z 0050D900
 0001:0010C930       ?GetSubPathAndExtension@AudSoundBase@@QAEXPAD0@Z 0050D930
 0001:0010C9C0       ?SetDefSubPath@AudSoundBase@@SAXPAD@Z 0050D9C0
 0001:0010C9E0       ?SetDefExtension@AudSoundBase@@SAXPAD@Z 0050D9E0
 0001:0010CA00       ?CreateDuplicateObject@AudSoundBase@@AAEPAVaudObject@@H@Z 0050DA00
 0001:0010CA30       ?SetVolume@AudSoundBase@@QAEXM@Z 0050DA30
 0001:0010CA90       ?SetAllVolumes@AudSoundBase@@QAEXM@Z 0050DA90
 0001:0010CAB0       ?SetFrequency@AudSoundBase@@QAEXM@Z 0050DAB0
 0001:0010CB10       ?SetPriority@AudSoundBase@@QAEXH@Z 0050DB10
 0001:0010CB30       ?SetPan@AudSoundBase@@QAEXMH@Z 0050DB30
 0001:0010CB80       ?SetAllPanning@AudSoundBase@@QAEXM@Z 0050DB80
 0001:0010CBE0       ?Update@AudSoundBase@@UAEXXZ 0050DBE0
 0001:0010CBF0       ?UpdateEcho@AudSoundBase@@QAEXXZ 0050DBF0
 0001:0010CC20       ?DisableEchoEffect@AudSoundBase@@QAEXXZ 0050DC20
 0001:0010CC50       ?SetEffect@AudSoundBase@@QAEXH@Z 0050DC50
 0001:0010CC70       ?GetEffect@AudSoundBase@@QAEHXZ 0050DC70
 0001:0010CC80       ?DisableEffect@AudSoundBase@@QAEXH@Z 0050DC80
 0001:0010CCA0       ?SetEchoEffect@AudSoundBase@@QAEXXZ 0050DCA0
 0001:0010CD10       ?SetEchoEffect@AudSoundBase@@AAEXH@Z 0050DD10
 0001:0010CD70       ?SetEchoAttenuation@AudSoundBase@@QAEXM@Z 0050DD70
 0001:0010CDB0       ?SetDelayTime@AudSoundBase@@QAEXM@Z 0050DDB0
 0001:0010CDF0       ?SetRamp@AudSoundBase@@QAEXMM@Z 0050DDF0
 0001:0010CE00       ?SetEchoFrequency@AudSoundBase@@QAEXMH@Z 0050DE00
 0001:0010CE40       ?SetPositionPtr@AudSoundBase@@QAEXPAVVector3@@@Z 0050DE40
 0001:0010CE90       ?Load@AudSoundBase@@QAEHPADH_N@Z 0050DE90
 0001:0010CFA0       ?AutoUpdateParamsOff@AudSoundBase@@AAEXH@Z 0050DFA0
 0001:0010CFE0       ?SetupOneShotLayerBuffers@AudSoundBase@@QAEXHMH@Z 0050DFE0
 0001:0010CFF0       ?ReadyOneShotLayerBuf@AudSoundBase@@QAEHXZ 0050DFF0
 0001:0010D020       ?AllOneShotLayersPlaying@AudSoundBase@@QAEHXZ 0050E020
 0001:0010D030       ?Get2DFlags@AudSoundBase@@SAIXZ 0050E030
 0001:0010D040       ?GetSoft2DFlags@AudSoundBase@@SAIXZ 0050E040
 0001:0010D050       ?GetFreqChange2DFlags@AudSoundBase@@SAIXZ 0050E050
 0001:0010D060       ?GetSoftFreqChange2DFlags@AudSoundBase@@SAIXZ 0050E060
 0001:0010D070       ?Get3DFlags@AudSoundBase@@SAIXZ 0050E070
 0001:0010D080       ?GetFreqChange3DFlags@AudSoundBase@@SAIXZ 0050E080
 0001:0010D090       ?PlayOnce@AudSoundBase@@QAEXMM@Z 0050E090
 0001:0010D150       ?PlayLoop@AudSoundBase@@QAEXMM@Z 0050E150
 0001:0010D1F0       ?Stop@AudSoundBase@@QAEXXZ 0050E1F0
 0001:0010D230       ?PauseResume@AudSoundBase@@QAEX_N@Z 0050E230
 0001:0010D250       ?IsPlaying@AudSoundBase@@QAE_NXZ 0050E250
 0001:0010D2C0       ?SetSoundHandleIndex@AudSoundBase@@QAEXH@Z 0050E2C0
 0001:0010D2D0       ?GetSoundHandleIndex@AudSoundBase@@QAEHXZ 0050E2D0
 0001:0010D2E0       ?SetPlayPosition@AudSoundBase@@QAEXI@Z 0050E2E0
 0001:0010D2F0       ?Enable3DMode@AudSoundBase@@QAEXXZ 0050E2F0
 0001:0010D300       ?Disable3DMode@AudSoundBase@@QAEXXZ 0050E300
 0001:0010D310       ?GetNumSoundHandles@AudSoundBase@@QAEHXZ 0050E310
 0001:0010D320       ??0AudStream@@QAE@IHF@Z    0050E320
 0001:0010D3C0       ??1AudStream@@UAE@XZ       0050E3C0
 0001:0010D3D0       ?SetVolume@AudStream@@QAEXM@Z 0050E3D0
 0001:0010D3F0       ?PlayOnce@AudStream@@QAE_NPAD@Z 0050E3F0
 0001:0010D4E0       ??0AudMidi@@QAE@AAVAudManagerBase@@@Z 0050E4E0
 0001:0010D590       ??1AudMidi@@UAE@XZ         0050E590
 0001:0010D610       ?MidiZeroPointers@AudMidi@@QAEXXZ 0050E610
 0001:0010D620       ?MidiLoad@AudMidi@@QAEHPAD0@Z 0050E620
 0001:0010D720       ?MidiPlay@AudMidi@@QAEHMM@Z 0050E720
 0001:0010D770       ?MidiRewind@AudMidi@@QAEXXZ 0050E770
 0001:0010D780       ?MidiSetTempo@AudMidi@@QAEXM@Z 0050E780
 0001:0010D7A0       ?MidiSetVolume@AudMidi@@QAEXM@Z 0050E7A0
 0001:0010D7C0       ?MidiPauseResume@AudMidi@@QAEX_N@Z 0050E7C0
 0001:0010D7E0       ?MidiStop@AudMidi@@QAEXXZ  0050E7E0
 0001:0010D7F0       ?MidiUpdate@AudMidi@@QAEXXZ 0050E7F0
 0001:0010D810       ??0AudStreamingMusic@@QAE@AAVAudManagerBase@@@Z 0050E810
 0001:0010D850       ??1AudStreamingMusic@@UAE@XZ 0050E850
 0001:0010D8A0       ?StreamingMusicReleaseControl@AudStreamingMusic@@QAEXXZ 0050E8A0
 0001:0010D910       ?StreamingMusicInit@AudStreamingMusic@@QAEHPBD@Z 0050E910
 0001:0010DB40       ?StreamingMusicPlay@AudStreamingMusic@@QAEHHH_N@Z 0050EB40
 0001:0010DC50       ?StreamingMusicStop@AudStreamingMusic@@QAEXXZ 0050EC50
 0001:0010DC60       ?StreamingMusicUpdate@AudStreamingMusic@@QAEXXZ 0050EC60
 0001:0010DC70       ?StreamingMusicSetVolume@AudStreamingMusic@@QAEXM@Z 0050EC70
 0001:0010DC90       ??_GAudSoundBase@@UAEPAXI@Z 0050EC90
 0001:0010DCC0       ??_GAudStream@@UAEPAXI@Z   0050ECC0
 0001:0010DCF0       ??_GAudMidi@@UAEPAXI@Z     0050ECF0
 0001:0010DD20       ??_GAudStreamingMusic@@UAEPAXI@Z 0050ED20
 0001:0010DD50       ?Aud_Stream_Open@@YAPAVStream@@PAD@Z 0050ED50
 0001:0010DD70       ?Aud_Stream_Close@@YAXPAVStream@@@Z 0050ED70
 0001:0010DD90       ?Aud_Stream_Tell@@YAHPAVStream@@@Z 0050ED90
 0001:0010DDA0       ?Aud_Stream_Seek@@YAHPAVStream@@H@Z 0050EDA0
 0001:0010DDC0       ?Aud_Stream_Size@@YAHPAVStream@@@Z 0050EDC0
 0001:0010DDF0       ?Aud_Stream_Read@@YAHPAVStream@@PAXH@Z 0050EDF0
 0001:0010DE10       ??0AudManagerBase@@QAE@XZ  0050EE10
 0001:0010DE40       ??1AudManagerBase@@UAE@XZ  0050EE40
 0001:0010DED0       ?Init@AudManagerBase@@QAEXHFFH@Z 0050EED0
 0001:0010DF80       ?RestartAudio@AudManagerBase@@QAEXHHH@Z 0050EF80
 0001:0010E000       ?ShutDownAudio@AudManagerBase@@QAEXXZ 0050F000
 0001:0010E060       ?LoadSoundBank@AudManagerBase@@QAEPAVaudSoundBankHdr@@PAD@Z 0050F060
 0001:0010E070       ?SoundFXOn@AudManagerBase@@QAE_NXZ 0050F070
 0001:0010E090       ?SetStereoFlag@AudManagerBase@@QAEXH@Z 0050F090
 0001:0010E0C0       ?SetReverbFlags@AudManagerBase@@QAEXHH@Z 0050F0C0
 0001:0010E0D0       ?IsStereo@AudManagerBase@@QAEHXZ 0050F0D0
 0001:0010E0F0       ?Enable@AudManagerBase@@QAEXXZ 0050F0F0
 0001:0010E100       ?IsEnabled@AudManagerBase@@QAE_NXZ 0050F100
 0001:0010E120       ?Disable@AudManagerBase@@QAEXXZ 0050F120
 0001:0010E130       ?Update@AudManagerBase@@UAEXXZ 0050F130
 0001:0010E1A0       ?UpdatePaused@AudManagerBase@@UAEXXZ 0050F1A0
 0001:0010E1C0       ?GetMasterSFXVolume@AudManagerBase@@QAEMXZ 0050F1C0
 0001:0010E1E0       ?StopAllSounds@AudManagerBase@@QAEXXZ 0050F1E0
 0001:0010E230       ?RandomizeNumber@AudManagerBase@@QAEMM@Z 0050F230
 0001:0010E290       ?RandomizeNumber@AudManagerBase@@QAEMMM@Z 0050F290
 0001:0010E300       ?GetAgeAudioManager@AudManagerBase@@QAEPAVaudManager@@XZ 0050F300
 0001:0010E310       ?SetReverb@AudManagerBase@@QAEXH@Z 0050F310
 0001:0010E330       ??_GAudManagerBase@@UAEPAXI@Z 0050F330
 0001:0010E360       ??0Aud3DObjectManager@@QAE@H@Z 0050F360
 0001:0010E440       ??1Aud3DObjectManager@@UAE@XZ 0050F440
 0001:0010E650       ?InitAmbObjContainer@Aud3DObjectManager@@QAEXPAD@Z 0050F650
 0001:0010E6E0       ?Add@Aud3DObjectManager@@QAEHPAVAud3DObject@@@Z 0050F6E0
 0001:0010E760       ?Remove@Aud3DObjectManager@@QAEXPAVAud3DObject@@H@Z 0050F760
 0001:0010E790       ?FindGreatestDistance@Aud3DObjectManager@@QAEHPAVAud3DObject@@@Z 0050F790
 0001:0010E8A0       ?FindUnusedSlot@Aud3DObjectManager@@QAEHXZ 0050F8A0
 0001:0010E8D0       ?Process3D@Aud3DObjectManager@@QAEX_N@Z 0050F8D0
 0001:0010E910       ?Update@Aud3DObjectManager@@QAEXM@Z 0050F910
 0001:0010E9C0       ?EchoOn@Aud3DObjectManager@@QAEXM@Z 0050F9C0
 0001:0010E9E0       ?EchoOff@Aud3DObjectManager@@QAEXXZ 0050F9E0
 0001:0010E9F0       ?GetSample@Aud3DObjectManager@@QAEPAVAudSoundBase@@HH@Z 0050F9F0
 0001:0010EA20       ?SetNumScreenSplits@Aud3DObjectManager@@QAEXH@Z 0050FA20
 0001:0010EAB0       ?CatName@Aud3DObjectManager@@AAEPADPADHH@Z 0050FAB0
 0001:0010ECB0       ?AllocateSample@Aud3DObjectManager@@QAEHPADK@Z 0050FCB0
 0001:0010EE20       ?AllocateSample@Aud3DObjectManager@@QAEHPADHK@Z 0050FE20
 0001:0010EF90       ?GetSampleWrapper@Aud3DObjectManager@@QAEPAVAud3DSampleWrapper@@H@Z 0050FF90
 0001:0010EFB0       ?QueueInCopVoice@Aud3DObjectManager@@QAEHM@Z 0050FFB0
 0001:0010EFC0       ?PlayCopVoice@Aud3DObjectManager@@QAEHXZ 0050FFC0
 0001:0010EFD0       ?GetClosestCop@Aud3DObjectManager@@QAEHXZ 0050FFD0
 0001:0010EFE0       ?GetLeftHeadPtrPtr@Aud3DObjectManager@@QAEPAPAVMatrix34@@XZ 0050FFE0
 0001:0010F000       ?GetRightHeadPtrPtr@Aud3DObjectManager@@QAEPAPAVMatrix34@@XZ 00510000
 0001:0010F020       ?SetLeftHeadPtr@Aud3DObjectManager@@QAEXPAVMatrix34@@H@Z 00510020
 0001:0010F040       ?SetRightHeadPtr@Aud3DObjectManager@@QAEXPAVMatrix34@@H@Z 00510040
 0001:0010F060       ??_GAud3DObjectManager@@UAEPAXI@Z 00510060
 0001:0010F090       ??0AudSpeech@@QAE@_N@Z     00510090
 0001:0010F120       ??1AudSpeech@@UAE@XZ       00510120
 0001:0010F1D0       ?SetSubPath@AudSpeech@@QAEXPAD@Z 005101D0
 0001:0010F220       ?SetExtension@AudSpeech@@QAEXPAD@Z 00510220
 0001:0010F270       ?AllocateSpeechData@AudSpeech@@QAEXPADMM@Z 00510270
 0001:0010F350       ?AllocateQueuePlayData@AudSpeech@@QAEXXZ 00510350
 0001:0010F3F0       ?PutInQueue@AudSpeech@@AAEXHHM@Z 005103F0
 0001:0010F450       ?Play@AudSpeech@@QAEXHM@Z  00510450
 0001:0010F480       ?SetVolume@AudSpeech@@QAEXM@Z 00510480
 0001:0010F4B0       ?SetStreamVolume@AudSpeech@@AAEXM@Z 005104B0
 0001:0010F4D0       ?SetOneShotVolume@AudSpeech@@AAEXM@Z 005104D0
 0001:0010F510       ?PlayStream@AudSpeech@@AAEXHM@Z 00510510
 0001:0010F570       ?PlayOneShot@AudSpeech@@AAEXHM@Z 00510570
 0001:0010F5E0       ?IsPlaying@AudSpeech@@QAE_NXZ 005105E0
 0001:0010F600       ?Play@AudSpeech@@QAEXHHM@Z 00510600
 0001:0010F640       ?PlayStream@AudSpeech@@AAEXHHM@Z 00510640
 0001:0010F6B0       ?PlayOneShot@AudSpeech@@AAEXHHM@Z 005106B0
 0001:0010F720       ?Update@AudSpeech@@QAEXXZ  00510720
 0001:0010F7F0       ?EmptyQueue@AudSpeech@@AAEXXZ 005107F0
 0001:0010F840       ?Stop@AudSpeech@@QAEXXZ    00510840
 0001:0010F890       ?GetCatAddValue@AudSpeech@@QAEHH@Z 00510890
 0001:0010F8B0       ?GetEndSufixNumber@AudSpeech@@QAEHH@Z 005108B0
 0001:0010F8D0       ??0AudCreatureContainer@@QAE@XZ 005108D0
 0001:0010F900       ??1AudCreatureContainer@@UAE@XZ 00510900
 0001:0010F910       ?IsPlaying@AudCreatureContainer@@QAE_NXZ 00510910
 0001:0010F920       ?Init@AudCreatureContainer@@QAEXPADPAVVector3@@@Z 00510920
 0001:0010F950       ?Update@AudCreatureContainer@@UAEXXZ 00510950
 0001:0010F980       ?Reset@AudCreatureContainer@@QAEXXZ 00510980
 0001:0010F9A0       ?AssignSounds@AudCreatureContainer@@UAEXXZ 005109A0
 0001:0010F9E0       ?UnAssignSounds@AudCreatureContainer@@UAEXH@Z 005109E0
 0001:0010FA20       ?UpdateAudio@AudCreatureContainer@@UAEXXZ 00510A20
 0001:0010FA80       ?UpdateAudio@AudCreatureContainer@@QAEHM@Z 00510A80
 0001:0010FB10       ?InitStatics@AudCreatureContainer@@SAXXZ 00510B10
 0001:0010FB30       ?DeallocateStatics@AudCreatureContainer@@SAXXZ 00510B30
 0001:0010FBF0       ?UpdateStatics@AudCreatureContainer@@SAXM@Z 00510BF0
 0001:0010FC20       ?UpdateVoices@AudCreatureContainer@@CAXHM@Z 00510C20
 0001:0010FC60       ?EchoOn@AudCreatureContainer@@QAEXXZ 00510C60
 0001:0010FC90       ?EchoOff@AudCreatureContainer@@QAEXXZ 00510C90
 0001:0010FCB0       ?UpdateEcho@AudCreatureContainer@@AAEXXZ 00510CB0
 0001:0010FCC0       ?PlayImpactReaction@AudCreatureContainer@@QAEXM@Z 00510CC0
 0001:0010FCF0       ?PlayAvoidanceReaction@AudCreatureContainer@@QAEXM@Z 00510CF0
 0001:0010FD20       ?LoadVoices@AudCreatureContainer@@QAE_NPAD0@Z 00510D20
 0001:0010FF50       ?LoadNumFileChoices@AudCreatureContainer@@SAXPADPAH@Z 00510F50
 0001:00110130       ??0AudImpact@@QAE@XZ       00511130
 0001:00110160       ??0AudImpact@@QAE@PAV0@@Z  00511160
 0001:00110270       ??1AudImpact@@UAE@XZ       00511270
 0001:001102D0       ?SetSecondsElapsed@AudImpact@@SAXM@Z 005112D0
 0001:001102E0       ?GetSecondsElapsed@AudImpact@@SAMXZ 005112E0
 0001:001102F0       ?GetAudImpactDataPtr@AudImpact@@QAEPAVAudImpactData@@H@Z 005112F0
 0001:00110370       ?Load@AudImpact@@SAHPAPAV1@PAD1PAH@Z 00511370
 0001:00110460       ?AddToHash@AudImpact@@SAXPADH@Z 00511460
 0001:001104A0       ?ReadCSV@AudImpact@@AAEHPAVStream@@@Z 005114A0
 0001:001107F0       ?AssignSounds@AudImpact@@QAEXH@Z 005117F0
 0001:00110820       ?UnAssignSounds@AudImpact@@QAEXXZ 00511820
 0001:00110840       ?Update@AudImpact@@QAEXXZ  00511840
 0001:00110860       ?Play@AudImpact@@QAEXMH@Z  00511860
 0001:00110880       ?Play@AudImpact@@QAEXHM@Z  00511880
 0001:001108D0       ?Set3D@AudImpact@@QAEX_NM@Z 005118D0
 0001:001108F0       ?SetPan@AudImpact@@QAEXM@Z 005118F0
 0001:00110950       ?UpdateAttenuation@AudImpact@@QAEXMM@Z 00511950
 0001:00110AB0       ??0Aud3DObject@@QAE@XZ     00511AB0
 0001:00110B20       ??1Aud3DObject@@UAE@XZ     00511B20
 0001:00110B80       ?SetPositionPtr@Aud3DObject@@QAEXPAVVector3@@@Z 00511B80
 0001:00110BB0       ?Reset@Aud3DObject@@QAEXXZ 00511BB0
 0001:00110C10       ?CalcDistToClosestHeads2@Aud3DObject@@QAEXXZ 00511C10
 0001:00110E10       ?CalcDistToClosestHead2@Aud3DObject@@AAEMPAPAVMatrix34@@PAVVector3@@H@Z 00511E10
 0001:00110E90       ?CalcDistToHead2@Aud3DObject@@AAEMPAVMatrix34@@PAVVector3@@@Z 00511E90
 0001:00110ED0       ?CalcPercentToMaxDist2@Aud3DObject@@AAEMM@Z 00511ED0
 0001:00110F30       ?CalcMultiPlayerPan@Aud3DObject@@QAEXXZ 00511F30
 0001:00110F40       ?CalcSinglePlayerPan@Aud3DObject@@QAEXXZ 00511F40
 0001:00111000       ?CalculateDoppler@Aud3DObject@@QAEMM@Z 00512000
 0001:00111040       ?GetLeftPositionPtr@Aud3DObject@@QAEPAVVector3@@XZ 00512040
 0001:00111050       ?GetRightPositionPtr@Aud3DObject@@QAEPAVVector3@@XZ 00512050
 0001:00111060       ?SetDropOffs@Aud3DObject@@QAEXMM@Z 00512060
 0001:00111090       ?PastMaxDistance@Aud3DObject@@QAE_NXZ 00512090
 0001:00111130       ?WithinMaxDistance@Aud3DObject@@QAE_NXZ 00512130
 0001:001111C0       ?WithinMaxDistance@Aud3DObject@@QAE_NM@Z 005121C0
 0001:00111200       ?GetDistToClosestHead2@Aud3DObject@@QAEMXZ 00512200
 0001:00111230       ?AddTo3DMgr@Aud3DObject@@QAEXXZ 00512230
 0001:00111250       ?RemoveFrom3DMgr@Aud3DObject@@QAEXXZ 00512250
 0001:00111280       ?CalculateAttenuation@Aud3DObject@@QAEMXZ 00512280
 0001:001112C0       ?CalculatePan@Aud3DObject@@QAEMXZ 005122C0
 0001:001112F0       ?AssignSounds@Aud3DObject@@UAEXXZ 005122F0
 0001:00111300       ?UnAssignSounds@Aud3DObject@@UAEXH@Z 00512300
 0001:00111310       ?UpdateAudio@Aud3DObject@@UAEXXZ 00512310
 0001:00111320       ?Set3D@Aud3DObject@@QAEX_N@Z 00512320
 0001:00111360       ?SetNon3DParams@Aud3DObject@@UAEXXZ 00512360
 0001:00111370       ?Set3DParams@Aud3DObject@@UAEXXZ 00512370
 0001:00111380       ?GetPriority@Aud3DObject@@QAEHXZ 00512380
 0001:00111390       ?Update@Aud3DObject@@UAEXXZ 00512390
 0001:001113D0       ?UpdateNonVirtual@Aud3DObject@@QAEXXZ 005123D0
 0001:00111400       ?ReadVectorPoints@Aud3DObject@@QAE_NPAVStream@@@Z 00512400
 0001:00111550       ?SetClosestPositionPtr@Aud3DObject@@AAEXXZ 00512550
 0001:001115A0       ?GetClosestPositionPtr@Aud3DObject@@AAEPAVVector3@@PAPAVMatrix34@@H@Z 005125A0
 0001:00111620       ?CalcPseudoDistToClosestHead@Aud3DObject@@AAEMPAPAVMatrix34@@PAVVector3@@H@Z 00512620
 0001:001116A0       ?CalcPseudoDistToHead@Aud3DObject@@AAEMPAVMatrix34@@PAVVector3@@@Z 005126A0
 0001:00111700       ??0AudCreature@@QAE@XZ     00512700
 0001:00111710       ??0AudCreature@@QAE@PAV0@@Z 00512710
 0001:00111840       ??1AudCreature@@QAE@XZ     00512840
 0001:001118C0       ?SetAud3DObjectPtr@AudCreature@@QAEXPAVAud3DObject@@@Z 005128C0
 0001:00111900       ?PlayAvoidance@AudCreature@@QAEXM@Z 00512900
 0001:00111940       ?IsPlaying@AudCreature@@QAE_NXZ 00512940
 0001:00111990       ?PlayImpact@AudCreature@@QAEXM@Z 00512990
 0001:001119B0       ?UpdateAttenuation@AudCreature@@QAEXMMM@Z 005129B0
 0001:00111A60       ?Load@AudCreature@@SAHPAPAV1@PAD1PAH@Z 00512A60
 0001:00111B00       ?AddToHash@AudCreature@@SAXPADH@Z 00512B00
 0001:00111B20       ?ReadCSV@AudCreature@@AAEHPAVStream@@@Z 00512B20
 0001:00111D90       ?AssignSounds@AudCreature@@QAEXH@Z 00512D90
 0001:00111DD0       ?UnAssignSounds@AudCreature@@QAEXXZ 00512DD0
 0001:00111E10       ?EchoOn@AudCreature@@QAEXM@Z 00512E10
 0001:00111E50       ?EchoOff@AudCreature@@QAEXXZ 00512E50
 0001:00111E90       ?Update@AudCreature@@QAEXM@Z 00512E90
 0001:00111ED0       ?UpdateEcho@AudCreature@@QAEXXZ 00512ED0
 0001:00111F10       ??0AudCreatureImpact@@QAE@XZ 00512F10
 0001:00111F40       ??0AudCreatureImpact@@QAE@PAV0@@Z 00512F40
 0001:00112030       ??1AudCreatureImpact@@QAE@XZ 00513030
 0001:00112090       ?SetAud3DObjectPtr@AudCreatureImpact@@QAEXPAVAud3DObject@@@Z 00513090
 0001:001120A0       ?SamplePlaying@AudCreatureImpact@@QAE_NXZ 005130A0
 0001:001120C0       ?ParseCSVBuffer@AudCreatureImpact@@QAEHPAVStream@@@Z 005130C0
 0001:001122D0       ?AssignSounds@AudCreatureImpact@@QAEXH@Z 005132D0
 0001:00112320       ?UnAssignSounds@AudCreatureImpact@@QAEXXZ 00513320
 0001:00112350       ?QueuePlay@AudCreatureImpact@@QAEXM@Z 00513350
 0001:001123D0       ?Play@AudCreatureImpact@@AAEXXZ 005133D0
 0001:00112460       ?UpdateAttenuation@AudCreatureImpact@@QAEXMM@Z 00513460
 0001:001124D0       ?EchoOn@AudCreatureImpact@@QAEXM@Z 005134D0
 0001:00112530       ?EchoOff@AudCreatureImpact@@QAEXXZ 00513530
 0001:00112560       ?UpdateEcho@AudCreatureImpact@@QAEXXZ 00513560
 0001:00112590       ?Update@AudCreatureImpact@@QAEXXZ 00513590
 0001:001125D0       ?UpdateStatics@AudCreatureImpact@@SAXXZ 005135D0
 0001:00112710       ??0Aud3DAmbObjContainer@@QAE@XZ 00513710
 0001:00112720       ??1Aud3DAmbObjContainer@@QAE@XZ 00513720
 0001:00112780       ?FileValid@Aud3DAmbObjContainer@@AAE_NPAD@Z 00513780
 0001:001127C0       ?Init@Aud3DAmbObjContainer@@QAE_NPAD@Z 005137C0
 0001:001128A0       ?CreateAmbientObject@Aud3DAmbObjContainer@@AAEXPAD@Z 005138A0
 0001:00112970       ?Update@Aud3DAmbObjContainer@@QAEXM@Z 00513970
 0001:001129A0       ??0Aud3DSampleWrapper@@QAE@PADHK@Z 005139A0
 0001:00112AE0       ??0Aud3DSampleWrapper@@QAE@HHK@Z 00513AE0
 0001:00112BB0       ??1Aud3DSampleWrapper@@QAE@XZ 00513BB0
 0001:00112C20       ?SetSampleName@Aud3DSampleWrapper@@QAEXPAD@Z 00513C20
 0001:00112C40       ?Load@Aud3DSampleWrapper@@QAEXPADH@Z 00513C40
 0001:00112CA0       ?GetSoundPtr@Aud3DSampleWrapper@@QAEPAVAudSoundBase@@F@Z 00513CA0
 0001:00112CC0       ?Update@Aud3DSampleWrapper@@QAEXXZ 00513CC0
 0001:00112CF0       ??0AudSpeechData@@QAE@PADMM_N00@Z 00513CF0
 0001:00112DB0       ??1AudSpeechData@@QAE@XZ   00513DB0
 0001:00112E20       ?LoadOneShots@AudSpeechData@@AAEXPAD0@Z 00513E20
 0001:00112F70       ?SetVolume@AudSpeechData@@QAEXM@Z 00513F70
 0001:00112FB0       ?GetName@AudSpeechData@@QAEPADH@Z 00513FB0
 0001:00112FF0       ?GetOneShot@AudSpeechData@@QAEPAVAudSoundBase@@H@Z 00513FF0
 0001:00113010       ?GetRandomName@AudSpeechData@@QAEPADXZ 00514010
 0001:001130B0       ?GetRandomOneShot@AudSpeechData@@QAEPAVAudSoundBase@@XZ 005140B0
 0001:00113120       ??0AudImpactData@@QAE@XZ   00514120
 0001:00113130       ??0AudImpactData@@QAE@PAV0@@Z 00514130
 0001:00113180       ??1AudImpactData@@UAE@XZ   00514180
 0001:001131A0       ?ReadCSV@AudImpactData@@QAE_NPAVStream@@H@Z 005141A0
 0001:001133A0       ?AssignSounds@AudImpactData@@QAEXH@Z 005143A0
 0001:00113410       ?UnAssignSounds@AudImpactData@@QAEXXZ 00514410
 0001:00113430       ?UpdateAttenuation@AudImpactData@@QAEXMM@Z 00514430
 0001:00113470       ?UpdateAttenuation@AudImpactData@@AAEXPAUtagImpactSampleWrapper@@MM@Z 00514470
 0001:001134C0       ?Play@AudImpactData@@QAEXM@Z 005144C0
 0001:00113520       ?PlaySample@AudImpactData@@AAEXPAUtagImpactSampleWrapper@@M@Z 00514520
 0001:001135A0       ?Play@AudImpactData@@QAEXMMM@Z 005145A0
 0001:00113610       ?PlaySample@AudImpactData@@AAEXPAUtagImpactSampleWrapper@@MMM@Z 00514610
 0001:001136B0       ?SetPan@AudImpactData@@QAEXM@Z 005146B0
 0001:00113810       ??0AudCreatureAvoid@@QAE@XZ 00514810
 0001:00113850       ??0AudCreatureAvoid@@QAE@PAV0@@Z 00514850
 0001:00113960       ??1AudCreatureAvoid@@QAE@XZ 00514960
 0001:001139C0       ?ParseCSVBuffer@AudCreatureAvoid@@QAEHPAVStream@@@Z 005149C0
 0001:00113BF0       ?AssignSounds@AudCreatureAvoid@@QAEXH@Z 00514BF0
 0001:00113C40       ?UnAssignSounds@AudCreatureAvoid@@QAEXXZ 00514C40
 0001:00113C70       ?InSpeedRange@AudCreatureAvoid@@AAE_NM@Z 00514C70
 0001:00113CA0       ?SetAud3DObjectPtr@AudCreatureAvoid@@QAEXPAVAud3DObject@@@Z 00514CA0
 0001:00113CB0       ?QueuePlay@AudCreatureAvoid@@QAEXXZ 00514CB0
 0001:00113D10       ?SamplePlaying@AudCreatureAvoid@@QAE_NXZ 00514D10
 0001:00113D30       ?Play@AudCreatureAvoid@@AAEXXZ 00514D30
 0001:00113DA0       ?UpdateAttenuation@AudCreatureAvoid@@QAEXMM@Z 00514DA0
 0001:00113E10       ?EchoOn@AudCreatureAvoid@@QAEXM@Z 00514E10
 0001:00113E70       ?EchoOff@AudCreatureAvoid@@QAEXXZ 00514E70
 0001:00113EA0       ?UpdateEcho@AudCreatureAvoid@@QAEXXZ 00514EA0
 0001:00113ED0       ?Update@AudCreatureAvoid@@QAEXM@Z 00514ED0
 0001:00113F50       ?IsEligible@AudCreatureAvoid@@QAE_NXZ 00514F50
 0001:001140A0       ??0Aud3DAmbientObject@@QAE@XZ 005150A0
 0001:001140E0       ??1Aud3DAmbientObject@@UAE@XZ 005150E0
 0001:00114180       ?Init@Aud3DAmbientObject@@QAEXPAVVector3@@PAD@Z 00515180
 0001:001141B0       ?Reset@Aud3DAmbientObject@@QAEXXZ 005151B0
 0001:001141C0       ?UpdateAudio@Aud3DAmbientObject@@UAEXXZ 005151C0
 0001:00114250       ?UpdateAudio@Aud3DAmbientObject@@QAEHM@Z 00515250
 0001:001142B0       ?UpdateSoundData@Aud3DAmbientObject@@AAEXXZ 005152B0
 0001:00114350       ?UpdateDoppler@Aud3DAmbientObject@@QAEXPAUtagAud3DAmbientSoundData@@@Z 00515350
 0001:001143B0       ?UpdateLoop@Aud3DAmbientObject@@AAEXPAUtagAud3DAmbientSoundData@@@Z 005153B0
 0001:00114400       ?UpdateOneShot@Aud3DAmbientObject@@AAEXPAUtagAud3DAmbientSoundData@@@Z 00515400
 0001:00114460       ?PendOneShot@Aud3DAmbientObject@@AAEXPAUtagAud3DAmbientSoundData@@@Z 00515460
 0001:001144B0       ?PlayOneShot@Aud3DAmbientObject@@QAEXH@Z 005154B0
 0001:001144D0       ?PlayOneShot@Aud3DAmbientObject@@AAEXPAUtagAud3DAmbientSoundData@@@Z 005154D0
 0001:001145A0       ?ActivateSound@Aud3DAmbientObject@@QAEXH@Z 005155A0
 0001:001145C0       ?DeactivateSound@Aud3DAmbientObject@@QAEXH@Z 005155C0
 0001:00114600       ?GetSoundDataPtr@Aud3DAmbientObject@@QAEPAUtagAud3DAmbientSoundData@@H@Z 00515600
 0001:00114610       ?GetSoundIndex@Aud3DAmbientObject@@QAEHPAD@Z 00515610
 0001:00114690       ?AssignSounds@Aud3DAmbientObject@@UAEXXZ 00515690
 0001:001146A0       ?AssignSounds@Aud3DAmbientObject@@AAEXPAPAUtagAud3DAmbientSoundData@@H@Z 005156A0
 0001:001146E0       ?UnAssignSounds@Aud3DAmbientObject@@UAEXH@Z 005156E0
 0001:00114710       ?UnAssignSounds@Aud3DAmbientObject@@AAEXPAPAUtagAud3DAmbientSoundData@@H@Z 00515710
 0001:00114750       ?Load@Aud3DAmbientObject@@QAEXPAD@Z 00515750
 0001:00114870       ?ReadSoundData@Aud3DAmbientObject@@AAE_NPAVStream@@@Z 00515870
 0001:00114A60       ?SetSoundData@Aud3DAmbientObject@@AAEXPAUtagAud3DAmbientSoundData@@0PAD@Z 00515A60
 0001:00114AD0       ?EchoOn@Aud3DAmbientObject@@AAEXXZ 00515AD0
 0001:00114AF0       ?EchoOn@Aud3DAmbientObject@@AAEXPAPAUtagAud3DAmbientSoundData@@H@Z 00515AF0
 0001:00114B50       ?EchoOff@Aud3DAmbientObject@@AAEXXZ 00515B50
 0001:00114B70       ?EchoOff@Aud3DAmbientObject@@AAEXPAPAUtagAud3DAmbientSoundData@@H@Z 00515B70
 0001:00114BA0       ?UpdateEcho@Aud3DAmbientObject@@AAEXXZ 00515BA0
 0001:00114BB0       ?UpdateEcho@Aud3DAmbientObject@@AAEXPAPAUtagAud3DAmbientSoundData@@H@Z 00515BB0
 0001:00114BE0       ?Update@Aud3DAmbientObject@@QAEXM@Z 00515BE0
 0001:00114D40       ??0DMusicObject@@QAE@H@Z   00515D40
 0001:00114DF0       ??1DMusicObject@@QAE@XZ    00515DF0
 0001:00114F00       ?CleanUpSegmentWrappers@DMusicObject@@QAEXXZ 00515F00
 0001:00114F60       ?Init@DMusicObject@@QAEHPAUIDirectSound@@KHKK@Z 00515F60
 0001:00115050       ?InitPerformance@DMusicObject@@AAEHPAUIDirectSound@@@Z 00516050
 0001:00115120       ?InitNotificationThread@DMusicObject@@AAEHXZ 00516120
 0001:00115220       ?InitLoader@DMusicObject@@AAEHXZ 00516220
 0001:001152B0       ?IsPlaying@DMusicObject@@QAEHXZ 005162B0
 0001:001152D0       ?HandleNotifications@DMusicObject@@QAEXXZ 005162D0
 0001:00115300       ?InitPort@DMusicObject@@AAEHPAUIDirectSound@@KHKK@Z 00516300
 0001:001154B0       ?AssignPChannelBlocks@DMusicObject@@AAEHK@Z 005164B0
 0001:00115510       ?FindBestPort@DMusicObject@@QAEHAAU_DMUS_PORTCAPS@@@Z 00516510
 0001:00115520       ?RatePort@DMusicObject@@AAEHAAU_DMUS_PORTCAPS@@@Z 00516520
 0001:00115530       ?GetNumPorts@DMusicObject@@QAEHXZ 00516530
 0001:00115540       ?FindMSSoftWareSynth@DMusicObject@@QAEHAAU_DMUS_PORTCAPS@@@Z 00516540
 0001:00115610       ?SetSearchDirectory@DMusicObject@@QAEHPAD@Z 00516610
 0001:00115680       ?ScanDirectory@DMusicObject@@QAEHXZ 00516680
 0001:00115750       ?OpenSegmentFile@DMusicObject@@QAEHPADH_N@Z 00516750
 0001:00115860       ?PlaySegment@DMusicObject@@QAEHK@Z 00516860
 0001:001158A0       ?PlayMotif@DMusicObject@@QAEHHK@Z 005168A0
 0001:00115900       ?StopSegment@DMusicObject@@QAEHH@Z 00516900
 0001:00115970       ?LoadMotif@DMusicObject@@QAEHPAD0H@Z 00516970
 0001:00115BB0       ?LoadBand@DMusicObject@@QAEHPADHH@Z 00516BB0
 0001:00115CD0       ?AllocateMotifs@DMusicObject@@QAEXH@Z 00516CD0
 0001:00115D60       ?PlayBand@DMusicObject@@QAEHHH@Z 00516D60
 0001:00115DE0       ?CreateComposer@DMusicObject@@QAEHXZ 00516DE0
 0001:00115E20       ?SegmentSwitch@DMusicObject@@QAEHH@Z 00516E20
 0001:00115E90       ?SegmentSwitch@DMusicObject@@QAEHHGK@Z 00516E90
 0001:00115FB0       ?ScaleMasterVolume@DMusicObject@@QAEHJ@Z 00516FB0
 0001:00115FF0       ?SetGrooveLevel@DMusicObject@@AAEHEE@Z 00516FF0
 0001:00116020       ?ScaleMasterTempo@DMusicObject@@QAEHM@Z 00517020
 0001:00116060       ?ThreadProc@@YGKPAX@Z      00517060
 0001:001160A0       ?Activate@DMusicObject@@QAEHH@Z 005170A0
 0001:001160E0       ?GetDMusicWaveBuffer@DMusicObject@@QAEPAVDMusicWaveBuffer@@XZ 005170E0
 0001:001160F0       ?ErrorDisplay@@YAXPAD0J@Z  005170F0
 0001:00116390       ??_ESegmentWrapper@@QAEPAXI@Z 00517390
 0001:001163F0       ??0DMusicManager@@QAE@XZ   005173F0
 0001:00116400       ??1DMusicManager@@QAE@XZ   00517400
 0001:00116420       ?Init@DMusicManager@@QAEHPAUIDirectSound@@HKHKK@Z 00517420
 0001:001164B0       ?Activate@DMusicManager@@QAEXH@Z 005174B0
 0001:001164D0       ?GetDMusicObjectPtr@DMusicManager@@QAEPAVDMusicObject@@XZ 005174D0
 0001:001164E0       ?Update@DMusicManager@@QAEXXZ 005174E0
 0001:001164F0       ?SetVolume@DMusicManager@@QAEXM@Z 005174F0
 0001:00116520       ?GetVolume@DMusicManager@@QAEMXZ 00517520
 0001:00116540       ?SetPan@DMusicManager@@QAEXM@Z 00517540
 0001:00116570       ?SetPerformancePtr@SegmentWrapper@@SAXPAUIDirectMusicPerformance@@@Z 00517570
 0001:00116580       ?SetLoaderPtr@SegmentWrapper@@SAXPAUIDirectMusicLoader@@@Z 00517580
 0001:00116590       ??0SegmentWrapper@@QAE@XZ  00517590
 0001:001165B0       ??1SegmentWrapper@@QAE@XZ  005175B0
 0001:001165C0       ?OpenSegmentFile@SegmentWrapper@@QAE_NPAD_N@Z 005175C0
 0001:00116750       ?LoadSegmentBands@SegmentWrapper@@QAE_NXZ 00517750
 0001:001167F0       ?UnloadSegmentBands@SegmentWrapper@@QAE_NXZ 005177F0
 0001:00116890       ?Stop@SegmentWrapper@@QAE_NXZ 00517890
 0001:001168C0       ?LoadBand@SegmentWrapper@@QAE_NPAD@Z 005178C0
 0001:001169A0       ?PlayBand@SegmentWrapper@@QAE_NXZ 005179A0
 0001:00116A00       ?IsPlaying@SegmentWrapper@@QAE_NXZ 00517A00
 0001:00116A40       ?Play@SegmentWrapper@@QAE_NKK@Z 00517A40
 0001:00116AE0       ?SetGrooveLevel@SegmentWrapper@@QAE_NEE@Z 00517AE0
 0001:00116B40       ?CleanUp@SegmentWrapper@@QAEXXZ 00517B40
 0001:00116C00       ?setUnicodeMode@@YAXXZ     00517C00
 0001:00116C40       ??0CLoader@@QAE@XZ         00517C40
 0001:00116C70       ??1CLoader@@QAE@XZ         00517C70
 0001:00116CC0       ?Init@CLoader@@QAEJXZ      00517CC0
 0001:00116E10       ?QueryInterface@CLoader@@UAGJABU_GUID@@PAPAX@Z 00517E10
 0001:00116E70       ?AddRef@CLoader@@UAGKXZ    00517E70
 0001:00116E90       ?AddRefP@CLoader@@QAEKXZ   00517E90
 0001:00116EA0       ?Release@CLoader@@UAGKXZ   00517EA0
 0001:00116F00       ?ReleaseP@CLoader@@QAEKXZ  00517F00
 0001:00116F40       ?GetObjectA@CLoader@@UAGJPAU_DMUS_OBJECTDESC@@ABU_GUID@@PAPAX@Z 00517F40
 0001:001172A0       ?LoadFromFile@CLoader@@AAEJPAU_DMUS_OBJECTDESC@@PAPAUIDirectMusicObject@@@Z 005182A0
 0001:001173F0       ?LoadFromMemory@CLoader@@AAEJPAU_DMUS_OBJECTDESC@@PAPAUIDirectMusicObject@@@Z 005183F0
 0001:001174E0       ?SetObject@CLoader@@UAGJPAU_DMUS_OBJECTDESC@@@Z 005184E0
 0001:00117510       ?SetSearchDirectory@CLoader@@UAGJABU_GUID@@PAGH@Z 00518510
 0001:00117530       ?ScanDirectory@CLoader@@UAGJABU_GUID@@PAG1@Z 00518530
 0001:00117540       ?CacheObject@CLoader@@UAGJPAUIDirectMusicObject@@@Z 00518540
 0001:00117550       ?ReleaseObject@CLoader@@UAGJPAUIDirectMusicObject@@@Z 00518550
 0001:00117560       ?ClearCache@CLoader@@UAGJABU_GUID@@@Z 00518560
 0001:00117570       ?EnableCache@CLoader@@UAGJABU_GUID@@H@Z 00518570
 0001:00117580       ?EnumObject@CLoader@@UAGJABU_GUID@@KPAU_DMUS_OBJECTDESC@@@Z 00518580
 0001:00117590       ?AddCFileStreamToList@CLoader@@QAEXPAVCFileStream@@@Z 00518590
 0001:001175E0       ?DestroyCFileStreamList@CLoader@@QAEXXZ 005185E0
 0001:00117740       ??0DMusicWaveBuffer@@QAE@XZ 00518740
 0001:00117760       ??1DMusicWaveBuffer@@QAE@XZ 00518760
 0001:00117770       ?Create@DMusicWaveBuffer@@QAEHPAUIDirectMusicPort@@PAUIDirectSound@@@Z 00518770
 0001:00117930       ?SetVolume@DMusicWaveBuffer@@QAEXM@Z 00518930
 0001:001179E0       ?SetPan@DMusicWaveBuffer@@QAEXM@Z 005189E0
 0001:00117A40       ??0CFileStream@@QAE@PAVCLoader@@@Z 00518A40
 0001:00117A80       ??1CFileStream@@QAE@XZ     00518A80
 0001:00117AB0       ?Open@CFileStream@@QAEJPAGK@Z 00518AB0
 0001:00117B80       ?Close@CFileStream@@QAEJXZ 00518B80
 0001:00117BA0       ?QueryInterface@CFileStream@@UAGJABU_GUID@@PAPAX@Z 00518BA0
 0001:00117C40       ?GetLoader@CFileStream@@UAGJPAPAUIDirectMusicLoader@@@Z 00518C40
 0001:00117C80       ?AddRef@CFileStream@@UAGKXZ 00518C80
 0001:00117CA0       ?Release@CFileStream@@UAGKXZ 00518CA0
 0001:00117CE0       ?Read@CFileStream@@UAGJPAXKPAK@Z 00518CE0
 0001:00117D20       ?Write@CFileStream@@UAGJPBXKPAK@Z 00518D20
 0001:00117D60       ?Seek@CFileStream@@UAGJT_LARGE_INTEGER@@KPAT_ULARGE_INTEGER@@@Z 00518D60
 0001:00117DD0       ?SetSize@CFileStream@@UAGJT_ULARGE_INTEGER@@@Z 00518DD0
 0001:00117DE0       ?CopyTo@CFileStream@@UAGJPAUIStream@@T_ULARGE_INTEGER@@PAT3@2@Z 00518DE0
 0001:00117DF0       ?Commit@CFileStream@@UAGJK@Z 00518DF0
 0001:00117E00       ?Revert@CFileStream@@UAGJXZ 00518E00
 0001:00117E10       ?LockRegion@CFileStream@@UAGJT_ULARGE_INTEGER@@0K@Z 00518E10
 0001:00117E20       ?UnlockRegion@CFileStream@@UAGJT_ULARGE_INTEGER@@0K@Z 00518E20
 0001:00117E30       ?Stat@CFileStream@@UAGJPAUtagSTATSTG@@K@Z 00518E30
 0001:00117E40       ?Clone@CFileStream@@UAGJPAPAUIStream@@@Z 00518E40
 0001:00117E50       ?GetNextPtr@CFileStream@@QAEPAV1@XZ 00518E50
 0001:00117E60       ?SetNextPtr@CFileStream@@QAEXPAV1@@Z 00518E60
 0001:00117E70       ?QueryInterface@CFileStream@@W3AGJABU_GUID@@PAPAX@Z 00518E70
 0001:00117E80       ?AddRef@CFileStream@@W3AGKXZ 00518E80
 0001:00117E90       ?Release@CFileStream@@W3AGKXZ 00518E90
 0001:00117EA0       ??0CMemStream@@QAE@PAVCLoader@@@Z 00518EA0
 0001:00117EF0       ??1CMemStream@@QAE@XZ      00518EF0
 0001:00117F20       ?Open@CMemStream@@QAEJPAE_J@Z 00518F20
 0001:00117F80       ?Close@CMemStream@@QAEJXZ  00518F80
 0001:00117F90       ?QueryInterface@CMemStream@@UAGJABU_GUID@@PAPAX@Z 00518F90
 0001:00118030       ?GetLoader@CMemStream@@UAGJPAPAUIDirectMusicLoader@@@Z 00519030
 0001:00118070       ?AddRef@CMemStream@@UAGKXZ 00519070
 0001:00118090       ?Release@CMemStream@@UAGKXZ 00519090
 0001:001180D0       ?Read@CMemStream@@UAGJPAXKPAK@Z 005190D0
 0001:00118150       ?Write@CMemStream@@UAGJPBXKPAK@Z 00519150
 0001:00118160       ?Seek@CMemStream@@UAGJT_LARGE_INTEGER@@KPAT_ULARGE_INTEGER@@@Z 00519160
 0001:001181E0       ?SetSize@CMemStream@@UAGJT_ULARGE_INTEGER@@@Z 005191E0
 0001:001181F0       ?CopyTo@CMemStream@@UAGJPAUIStream@@T_ULARGE_INTEGER@@PAT3@2@Z 005191F0
 0001:00118200       ?Commit@CMemStream@@UAGJK@Z 00519200
 0001:00118210       ?Revert@CMemStream@@UAGJXZ 00519210
 0001:00118220       ?LockRegion@CMemStream@@UAGJT_ULARGE_INTEGER@@0K@Z 00519220
 0001:00118230       ?UnlockRegion@CMemStream@@UAGJT_ULARGE_INTEGER@@0K@Z 00519230
 0001:00118240       ?Stat@CMemStream@@UAGJPAUtagSTATSTG@@K@Z 00519240
 0001:00118250       ?Clone@CMemStream@@UAGJPAPAUIStream@@@Z 00519250
 0001:00118260       ?QueryInterface@CMemStream@@W3AGJABU_GUID@@PAPAX@Z 00519260
 0001:00118270       ?AddRef@CMemStream@@W3AGKXZ 00519270
 0001:00118280       ?Release@CMemStream@@W3AGKXZ 00519280
 0001:00118290       ??0AudManager@@QAE@XZ      00519290
 0001:001182D0       ??1AudManager@@UAE@XZ      005192D0
 0001:00118350       ?Init@AudManager@@QAEXHHHPADFF@Z 00519350
 0001:00118470       ?MinInstall@AudManager@@QAE_NXZ 00519470
 0001:001184F0       ?InitSpeech@AudManager@@QAEXHHPAD@Z 005194F0
 0001:00118570       ?GetSpeechContainerPtr@AudManager@@QAEPAVmmSpeechContainer@@XZ 00519570
 0001:00118580       ?GetRaceSpeechPtr@AudManager@@QAEPAVmmRaceSpeech@@XZ 00519580
 0001:001185A0       ?GetCCSpeechPtr@AudManager@@QAEPAVmmCCSpeech@@XZ 005195A0
 0001:001185C0       ?GetCNRSpeechPtr@AudManager@@QAEPAVmmCCSpeech@@XZ 005195C0
 0001:001185E0       ?SharingSamples@AudManager@@QAEFXZ 005195E0
 0001:001185F0       ?SetSampleSharing@AudManager@@QAEXF@Z 005195F0
 0001:00118610       ?AssignWaveBalance@AudManager@@QAEXM@Z 00519610
 0001:00118630       ?GetSamplesPerSecond@AudManager@@QAEKXZ 00519630
 0001:00118640       ?SetBitDepthAndSampleRate@AudManager@@QAEXHK@Z 00519640
 0001:001186D0       ?DeviceValid@AudManager@@QAE_NXZ 005196D0
 0001:001186F0       ?GetDeviceNames@AudManager@@QAEPAPADXZ 005196F0
 0001:00118710       ?GetNumDevices@AudManager@@QAEHXZ 00519710
 0001:00118730       ?GetActiveDeviceName@AudManager@@QAEPADXZ 00519730
 0001:00118750       ?Supports16Bit@AudManager@@QAEFXZ 00519750
 0001:00118770       ?GetMaxBitDepth@AudManager@@QAEKXZ 00519770
 0001:00118780       ?GetNum3DHalBufs@AudManager@@QAEKXZ 00519780
 0001:00118790       ?GetMixerPtr@AudManager@@QAEPAVMixerCTL@@XZ 00519790
 0001:001187D0       ?AssignWaveVolume@AudManager@@QAEXM@Z 005197D0
 0001:00118830       ?SetAudHeadPtr@AudManager@@QAEXPAVAudHead@@@Z 00519830
 0001:00118850       ?Enable@AudManager@@QAEXPADFF@Z 00519850
 0001:00118860       ?Disable@AudManager@@QAEXFF@Z 00519860
 0001:00118870       ?SetNumChannels@AudManager@@QAEXH@Z 00519870
 0001:00118880       ?AssignCDBalance@AudManager@@QAEXM@Z 00519880
 0001:001188A0       ?CDIsEnabled@AudManager@@QAE_NXZ 005198A0
 0001:001188C0       ?EnableCD@AudManager@@QAE_NXZ 005198C0
 0001:001188F0       ?CDMusicOn@AudManager@@QAE_NXZ 005198F0
 0001:00118900       ?CDIsPlaying@AudManager@@QAE_NXZ 00519900
 0001:00118920       ?GetCDTrackNum@AudManager@@QAEHXZ 00519920
 0001:00118940       ?StopCD@AudManager@@QAEXXZ 00519940
 0001:00118960       ?PlayCDTrack@AudManager@@QAEHHH@Z 00519960
 0001:00118990       ?PlayCDTrack@AudManager@@QAEHHEEEH@Z 00519990
 0001:001189D0       ?GetCDPosition@AudManager@@QAEKPAE000@Z 005199D0
 0001:00118A10       ?GetNumCDTracks@AudManager@@QAEHXZ 00519A10
 0001:00118A30       ?AssignCDVolume@AudManager@@QAEXM@Z 00519A30
 0001:00118A50       ?CheckCDFile@AudManager@@QAEEPAD@Z 00519A50
 0001:00118B10       ?SetCDPlayMode@AudManager@@QAEXE@Z 00519B10
 0001:00118B30       ?SetHwnd@AudManager@@QAEXPAUHWND__@@@Z 00519B30
 0001:00118B50       ?AudMinimizeApp@@YAXXZ     00519B50
 0001:00118B90       ?AudRestoreApp@@YAXXZ      00519B90
 0001:00118BD0       ?EAXEnabled@AudManager@@QAEIXZ 00519BD0
 0001:00118BE0       ?DSound3DEnabled@AudManager@@QAEIXZ 00519BE0
 0001:00118BF0       ?CreateListenerSoundObj@AudManager@@AAEIXZ 00519BF0
 0001:00118C00       ?GetListenerEAXObj@AudManager@@AAEPAVCReverb@@XZ 00519C00
 0001:00118C10       ?SetEAXPreset@AudManager@@QAEHKMMM@Z 00519C10
 0001:00118C20       ?SetEAXPreset@AudManager@@QAEHPAUEAX_REVERBPROPERTIES@@@Z 00519C20
 0001:00118C30       ?GetEAXAll@AudManager@@QAEXPAUEAX_REVERBPROPERTIES@@@Z 00519C30
 0001:00118C40       ?SetEAXEnvironmet@AudManager@@QAEHK@Z 00519C40
 0001:00118C50       ?GetEAXEnvironmet@AudManager@@QAEKXZ 00519C50
 0001:00118C60       ?SetEAXReverbVolume@AudManager@@QAEHM@Z 00519C60
 0001:00118C70       ?GetEAXReverbVolume@AudManager@@QAEMXZ 00519C70
 0001:00118C80       ?SetEAXDecayTime@AudManager@@QAEHM@Z 00519C80
 0001:00118C90       ?GetEAXDecayTime@AudManager@@QAEMXZ 00519C90
 0001:00118CA0       ?SetEAXDamping@AudManager@@QAEHM@Z 00519CA0
 0001:00118CB0       ?GetEAXDamping@AudManager@@QAEMXZ 00519CB0
 0001:00118CC0       ?GetIDirectSoundInterfacePtr@AudManager@@QAEPAUIDirectSound@@XZ 00519CC0
 0001:00118CE0       ?Log@AudManager@@QAEMMM@Z  00519CE0
 0001:00118D00       ?Update@AudManager@@UAEXXZ 00519D00
 0001:00118E80       ??_GAudManager@@UAEPAXI@Z  00519E80
 0001:00118EB0       ??0MMDMusicManager@@QAE@XZ 00519EB0
 0001:00118EE0       ??1MMDMusicManager@@QAE@XZ 00519EE0
 0001:00118F60       ?Init@MMDMusicManager@@QAEXHK@Z 00519F60
 0001:00118FE0       ?Update@MMDMusicManager@@QAEXXZ 00519FE0
 0001:00118FF0       ?UpdateSeconds@MMDMusicManager@@QAEXXZ 00519FF0
 0001:00119020       ?UpdateAmbientSFX@MMDMusicManager@@QAEXXZ 0051A020
 0001:00119070       ?UpdateMusic@MMDMusicManager@@QAEXMH_N@Z 0051A070
 0001:001190F0       ?UpdateSpeedEvents@MMDMusicManager@@QAEXXZ 0051A0F0
 0001:00119170       ?CreateSpeedRanges@MMDMusicManager@@QAEXH@Z 0051A170
 0001:001191A0       ?SetSpeedEventRange@MMDMusicManager@@QAEXMMEH@Z 0051A1A0
 0001:001191D0       ?MatchMusicToPlayerSpeed@MMDMusicManager@@QAEXM@Z 0051A1D0
 0001:001192C0       ?Reset@MMDMusicManager@@QAEXXZ 0051A2C0
 0001:001192D0       ?EchoOn@MMDMusicManager@@QAEXMM@Z 0051A2D0
 0001:001193A0       ?EchoOff@MMDMusicManager@@QAEXXZ 0051A3A0
 0001:001194E0       ??0mmRaceSpeech@@QAE@XZ    0051A4E0
 0001:00119580       ??1mmRaceSpeech@@QAE@XZ    0051A580
 0001:00119590       ?PlayPreRace@mmRaceSpeech@@QAEXXZ 0051A590
 0001:00119660       ?PlayUnlockRace@mmRaceSpeech@@QAEXXZ 0051A660
 0001:001196C0       ?PlayUnlockVehicle@mmRaceSpeech@@QAEXXZ 0051A6C0
 0001:00119720       ?PlayUnlockTexture@mmRaceSpeech@@QAEXXZ 0051A720
 0001:00119750       ?PlayFinalCheckPoint@mmRaceSpeech@@QAEXXZ 0051A750
 0001:00119780       ?PlayFinalLap@mmRaceSpeech@@QAEXXZ 0051A780
 0001:001197A0       ?PlayDamagePenalty@mmRaceSpeech@@QAEXXZ 0051A7A0
 0001:001197D0       ?PlayRaceProgress@mmRaceSpeech@@QAEXXZ 0051A7D0
 0001:00119800       ?PlayResults@mmRaceSpeech@@QAEXHH@Z 0051A800
 0001:00119840       ?PlayResultsPoor@mmRaceSpeech@@QAEXXZ 0051A840
 0001:00119890       ?PlayResultsWin@mmRaceSpeech@@QAEXXZ 0051A890
 0001:001198E0       ?PlayResultsMid@mmRaceSpeech@@QAEXXZ 0051A8E0
 0001:00119930       ?LoadCityInfo@mmRaceSpeech@@QAE_NPAD@Z 0051A930
 0001:00119B80       ?LoadVehicleUnlock@mmRaceSpeech@@QAE_NPAD@Z 0051AB80
 0001:00119BC0       ?LoadTextureUnlock@mmRaceSpeech@@QAE_NPAD@Z 0051ABC0
 0001:00119C00       ?LoadPreRace@mmRaceSpeech@@QAE_NPAD@Z 0051AC00
 0001:00119C40       ?LoadResults@mmRaceSpeech@@QAE_NPAD@Z 0051AC40
 0001:00119C80       ?LoadGroup@mmRaceSpeech@@QAE_NPADH@Z 0051AC80
 0001:00119F10       ?CheckRaceLoadSanity@mmRaceSpeech@@AAEXMH@Z 0051AF10
 0001:00119F20       ?SetReadState@mmRaceSpeech@@AAE_NPADMPAH@Z 0051AF20
 0001:0011A300       ?locstrnicmp@mmRaceSpeech@@AAEHPAD0@Z 0051B300
 0001:0011A450       ??0mmSpeechContainer@@QAE@HHPAD@Z 0051B450
 0001:0011A4C0       ??1mmSpeechContainer@@QAE@XZ 0051B4C0
 0001:0011A510       ?InitCNR@mmSpeechContainer@@AAEXPAD@Z 0051B510
 0001:0011A5C0       ?InitRace@mmSpeechContainer@@AAEXHHPAD@Z 0051B5C0
 0001:0011A6A0       ?InitCC@mmSpeechContainer@@AAEXHPAD@Z 0051B6A0
 0001:0011A7A0       ?Stop@mmSpeechContainer@@QAEXXZ 0051B7A0
 0001:0011A7B0       ?Update@mmSpeechContainer@@QAEXXZ 0051B7B0
 0001:0011A7E0       ?GetRaceSpeechPtr@mmSpeechContainer@@QAEPAVmmRaceSpeech@@XZ 0051B7E0
 0001:0011A7F0       ?GetCCSpeechPtr@mmSpeechContainer@@QAEPAVmmCCSpeech@@XZ 0051B7F0
 0001:0011A800       ?GetCNRSpeechPtr@mmSpeechContainer@@QAEPAVmmCNRSpeech@@XZ 0051B800
 0001:0011A810       ??0mmCCSpeech@@QAE@XZ      0051B810
 0001:0011A860       ??1mmCCSpeech@@UAE@XZ      0051B860
 0001:0011A900       ?PlayPreRace@mmCCSpeech@@QAEXXZ 0051B900
 0001:0011A950       ?PlayUnlock@mmCCSpeech@@QAEXXZ 0051B950
 0001:0011A970       ?PlayCheckPoint@mmCCSpeech@@QAEXHM@Z 0051B970
 0001:0011A9B0       ?PlayResults@mmCCSpeech@@QAEXH@Z 0051B9B0
 0001:0011A9D0       ?PlayResultsPoor@mmCCSpeech@@QAEXXZ 0051B9D0
 0001:0011A9F0       ?PlayResultsWin@mmCCSpeech@@QAEXXZ 0051B9F0
 0001:0011AA10       ?SetSubPath@mmCCSpeech@@QAE_NPAD@Z 0051BA10
 0001:0011AAC0       ?LoadUnlock@mmCCSpeech@@QAE_NPAD@Z 0051BAC0
 0001:0011AB00       ?LoadPreRace@mmCCSpeech@@QAE_NPAD@Z 0051BB00
 0001:0011AB40       ?LoadResults@mmCCSpeech@@QAE_NPAD@Z 0051BB40
 0001:0011AB80       ?LoadGroup@mmCCSpeech@@QAE_NPADH@Z 0051BB80
 0001:0011ADB0       ?LoadCheckPointIndexInfo@mmCCSpeech@@QAE_NPAD@Z 0051BDB0
 0001:0011AF40       ?CheckRaceLoadSanity@mmCCSpeech@@AAEXMH@Z 0051BF40
 0001:0011AF50       ?SetReadState@mmCCSpeech@@AAE_NPADMPAH@Z 0051BF50
 0001:0011B0D0       ?locstrnicmp@mmCCSpeech@@AAEHPAD0@Z 0051C0D0
 0001:0011B100       ?Set@VolumeDW@@QAEXMM@Z    0051C100
 0001:0011B1C0       ?Value@VolumeDW@@QAEKXZ    0051C1C0
 0001:0011B1F0       ?Init@MixerCTL@@QAEKXZ     0051C1F0
 0001:0011B230       ??1MixerCTL@@UAE@XZ        0051C230
 0001:0011B240       ?AssignWaveBalance@MixerCTL@@QAEXM@Z 0051C240
 0001:0011B290       ?AssignCDBalance@MixerCTL@@QAEXM@Z 0051C290
 0001:0011B2E0       ?RefreshAll@MixerCTL@@QAEXK@Z 0051C2E0
 0001:0011B2F0       ?GetWaveBalance@MixerCTL@@QAEMXZ 0051C2F0
 0001:0011B300       ?GetWaveVolume@MixerCTL@@QAEMXZ 0051C300
 0001:0011B310       ?AssignWaveVolume@MixerCTL@@QAEXM@Z 0051C310
 0001:0011B330       ?AssignCDVolume@MixerCTL@@QAEXM@Z 0051C330
 0001:0011B350       ?GetCDBalance@MixerCTL@@QAEMXZ 0051C350
 0001:0011B360       ?GetCDVolume@MixerCTL@@QAEMXZ 0051C360
 0001:0011B370       ?AssignMixerVolume@MixerCTL@@QAEKMK@Z 0051C370
 0001:0011B5C0       ?AssignMixerBalance@MixerCTL@@QAEKMK@Z 0051C5C0
 0001:0011B870       ?GetMixerBalance@MixerCTL@@QAEMK@Z 0051C870
 0001:0011BAE0       ?SetDeviceNum@MixerCTL@@QAEXI@Z 0051CAE0
 0001:0011BB00       ?GetErrorMessage@MixerCTL@@AAEPADK@Z 0051CB00
 0001:0011BBA0       ?WindowProc@MixerCTL@@AAEJPAUHWND__@@IIJ@Z 0051CBA0
 0001:0011BBB0       ??_GMixerCTL@@UAEPAXI@Z    0051CBB0
 0001:0011BBE0       ??0mmDirSnd@@QAE@XZ        0051CBE0
 0001:0011BC00       ??1mmDirSnd@@QAE@XZ        0051CC00
 0001:0011BC10       ?DeInit@mmDirSnd@@QAEXFF@Z 0051CC10
 0001:0011BC50       ?Init@mmDirSnd@@SAPAV1@KEHHPADFF@Z 0051CC50
 0001:0011BD90       ?InitPrimarySoundBuffer@mmDirSnd@@UAEHKEPAD@Z 0051CD90
 0001:0011BE60       ?EAXEnabled@mmDirSnd@@QAEIXZ 0051CE60
 0001:0011BE70       ?DSound3DEnabled@mmDirSnd@@QAEIXZ 0051CE70
 0001:0011BE80       ??0CDMan@@QAE@XZ           0051CE80
 0001:0011BEC0       ??1CDMan@@UAE@XZ           0051CEC0
 0001:0011BF00       ?Init@CDMan@@QAEKF@Z       0051CF00
 0001:0011BFC0       ?PlayTrack@CDMan@@QAEKEE@Z 0051CFC0
 0001:0011C0B0       ?ResumePlay@CDMan@@QAEKXZ  0051D0B0
 0001:0011C0D0       ?PlayTrack@CDMan@@QAEKEEEEE@Z 0051D0D0
 0001:0011C1E0       ?Stop@CDMan@@QAEKXZ        0051D1E0
 0001:0011C220       ?SeekTrack@CDMan@@QAEKE@Z  0051D220
 0001:0011C290       ?GetPosition@CDMan@@QAEKPAE000@Z 0051D290
 0001:0011C310       ?WindowProc@CDMan@@EAEJPAUHWND__@@IIJ@Z 0051D310
 0001:0011C380       ?GetNumTracks@CDMan@@QAEFXZ 0051D380
 0001:0011C3E0       ??_GCDMan@@UAEPAXI@Z       0051D3E0
 0001:0011C410       ??0camPovCS@@QAE@XZ        0051D410
 0001:0011C520       ??1camPovCS@@UAE@XZ        0051D520
 0001:0011C530       ?MakeActive@camPovCS@@UAEXXZ 0051D530
 0001:0011C540       ?Reset@camPovCS@@UAEXXZ    0051D540
 0001:0011C570       ?Update@camPovCS@@UAEXXZ   0051D570
 0001:0011C590       ?UpdateInput@camPovCS@@UAEXXZ 0051D590
 0001:0011C5A0       ?UpdatePOV@camPovCS@@AAEXXZ 0051D5A0
 0001:0011C690       ?FileIO@camPovCS@@UAEXAAVdatParser@@@Z 0051D690
 0001:0011C710       ?AfterLoad@camPovCS@@UAEXXZ 0051D710
 0001:0011C720       ??_GcamPovCS@@UAEPAXI@Z    0051D720
 0001:0011C750       ?SetST@camBaseCS@@UAEXPAM@Z 0051D750
 0001:0011C760       ?GetClassName@camPovCS@@UAEPADXZ 0051D760
 0001:0011C770       ??0camTrackCS@@QAE@XZ      0051D770
 0001:0011CA80       ??1camTrackCS@@UAE@XZ      0051DA80
 0001:0011CAE0       ?MakeActive@camTrackCS@@UAEXXZ 0051DAE0
 0001:0011CAF0       ?AfterLoad@camTrackCS@@UAEXXZ 0051DAF0
 0001:0011CB00       ?Reset@camTrackCS@@UAEXXZ  0051DB00
 0001:0011CB50       ?Update@camTrackCS@@UAEXXZ 0051DB50
 0001:0011CC60       ?UpdateInput@camTrackCS@@UAEXXZ 0051DC60
 0001:0011CC70       ?UpdateCar@camTrackCS@@AAEXXZ 0051DC70
 0001:0011CEE0       ?UpdateHill@camTrackCS@@AAEXXZ 0051DEE0
 0001:0011D400       ?UpdateTrack@camTrackCS@@AAEXXZ 0051E400
 0001:0011DB30       ?UpdateSwing@camTrackCS@@AAEXXZ 0051EB30
 0001:0011DB40       ?PreApproach@camTrackCS@@AAEXXZ 0051EB40
 0001:0011DCC0       ?MinMax@camTrackCS@@AAEXVMatrix34@@@Z 0051ECC0
 0001:0011DED0       ?Collide@camTrackCS@@AAEXVVector3@@@Z 0051EED0
 0001:0011E920       ?SwingToRear@camTrackCS@@QAEXXZ 0051F920
 0001:0011E980       ?Front@camTrackCS@@AAEXM@Z 0051F980
 0001:0011EA00       ?Rear@camTrackCS@@AAEXM@Z  0051FA00
 0001:0011EA80       ?FileIO@camTrackCS@@UAEXAAVdatParser@@@Z 0051FA80
 0001:0011ED20       ??_GcamTrackCS@@UAEPAXI@Z  0051FD20
 0001:0011ED50       ??1Spline@@UAE@XZ          0051FD50
 0001:0011ED60       ?GetClassName@camTrackCS@@UAEPADXZ 0051FD60
 0001:0011ED70       ??0camViewCS@@QAE@XZ       0051FD70
 0001:0011EE20       ??1camViewCS@@UAE@XZ       0051FE20
 0001:0011EE30       ?Instance@camViewCS@@SAPAV1@AAVvehCar@@@Z 0051FE30
 0001:0011EE90       ?SetCam@camViewCS@@QAEXPAVcamCarCS@@@Z 0051FE90
 0001:0011EF30       ?NewCam@camViewCS@@QAEHPAVcamCarCS@@HMVdatCallback@@@Z 0051FF30
 0001:0011EFC0       ?Update@camViewCS@@UAEXXZ  0051FFC0
 0001:0011EFF0       ?Init@camViewCS@@QAEXPAVvehCar@@@Z 0051FFF0
 0001:0011F010       ?Reset@camViewCS@@UAEXXZ   00520010
 0001:0011F080       ?ForceMatrixDelta@camViewCS@@QAEXABVMatrix34@@@Z 00520080
 0001:0011F0A0       ?ForceMatrixDelta@camViewCS@@QAEXABVVector3@@@Z 005200A0
 0001:0011F0C0       ?OneShot@camViewCS@@QAEXXZ 005200C0
 0001:0011F0D0       ?FileIO@camViewCS@@UAEXAAVdatParser@@@Z 005200D0
 0001:0011F0E0       ??_GcamViewCS@@UAEPAXI@Z   005200E0
 0001:0011F110       ??0camPostCS@@QAE@XZ       00520110
 0001:0011F160       ?Init@camPostCS@@QAEXPAVvehCar@@@Z 00520160
 0001:0011F1A0       ?Reset@camPostCS@@UAEXXZ   005201A0
 0001:0011F1B0       ?MakeActive@camPostCS@@UAEXXZ 005201B0
 0001:0011F210       ?Update@camPostCS@@UAEXXZ  00520210
 0001:0011F340       ?FileIO@camPostCS@@UAEXAAVdatParser@@@Z 00520340
 0001:0011F3E0       ??_GcamPostCS@@UAEPAXI@Z   005203E0
 0001:0011F410       ?UpdateInput@camBaseCS@@UAEXXZ 00520410
 0001:0011F420       ?GetClassName@camPostCS@@UAEPADXZ 00520420
 0001:0011F430       ??0camPreCS@@QAE@XZ        00520430
 0001:0011F480       ?Init@camPreCS@@QAEXPAVvehCar@@@Z 00520480
 0001:0011F4C0       ?Reset@camPreCS@@UAEXXZ    005204C0
 0001:0011F4D0       ?MakeActive@camPreCS@@UAEXXZ 005204D0
 0001:0011F4F0       ?Update@camPreCS@@UAEXXZ   005204F0
 0001:0011F550       ?FileIO@camPreCS@@UAEXAAVdatParser@@@Z 00520550
 0001:0011F5D0       ??_GcamPreCS@@UAEPAXI@Z    005205D0
 0001:0011F600       ?GetClassName@camPreCS@@UAEPADXZ 00520600
 0001:0011F610       ??0camPointCS@@QAE@XZ      00520610
 0001:0011F690       ?Reset@camPointCS@@UAEXXZ  00520690
 0001:0011F6A0       ?MakeActive@camPointCS@@UAEXXZ 005206A0
 0001:0011F6B0       ?SetPos@camPointCS@@QAEXAAVVector3@@@Z 005206B0
 0001:0011F6F0       ?SetMaxDist@camPointCS@@QAEXM@Z 005206F0
 0001:0011F710       ?SetMinDist@camPointCS@@QAEXM@Z 00520710
 0001:0011F730       ?SetAppRate@camPointCS@@QAEXM@Z 00520730
 0001:0011F740       ?SetVel@camPointCS@@QAEXAAVVector3@@@Z 00520740
 0001:0011F760       ?GetPos@camPointCS@@QAE?AVVector3@@XZ 00520760
 0001:0011F790       ?Update@camPointCS@@UAEXXZ 00520790
 0001:0011F9F0       ??_GcamPointCS@@UAEPAXI@Z  005209F0
 0001:0011FA20       ?GetClassName@camPointCS@@UAEPADXZ 00520A20
 0001:0011FA30       ??0camAICS@@QAE@XZ         00520A30
 0001:0011FA70       ?Init@camAICS@@QAEXPAVvehCar@@@Z 00520A70
 0001:0011FAB0       ?Reset@camAICS@@UAEXXZ     00520AB0
 0001:0011FAC0       ?SetPosition@camAICS@@QAEXAAVVector3@@@Z 00520AC0
 0001:0011FAE0       ?SetMatrix@camAICS@@QAEXPAVMatrix34@@@Z 00520AE0
 0001:0011FBA0       ?MakeActive@camAICS@@UAEXXZ 00520BA0
 0001:0011FC50       ?Update@camAICS@@UAEXXZ    00520C50
 0001:0011FF80       ??_GcamAICS@@UAEPAXI@Z     00520F80
 0001:0011FFB0       ??0camPolarCS@@QAE@XZ      00520FB0
 0001:00120010       ?Reset@camPolarCS@@UAEXXZ  00521010
 0001:00120020       ?MakeActive@camPolarCS@@UAEXXZ 00521020
 0001:00120030       ?Update@camPolarCS@@UAEXXZ 00521030
 0001:00120380       ?FileIO@camPolarCS@@UAEXAAVdatParser@@@Z 00521380
 0001:00120430       ??_GcamPolarCS@@UAEPAXI@Z  00521430
 0001:00120460       ?GetClassName@camPolarCS@@UAEPADXZ 00521460
 0001:00120470       ??0camCarCS@@QAE@XZ        00521470
 0001:00120490       ??1camCarCS@@UAE@XZ        00521490
 0001:001204A0       ?Init@camCarCS@@QAEXPAVvehCar@@PAD@Z 005214A0
 0001:001204E0       ?FileIO@camCarCS@@UAEXAAVdatParser@@@Z 005214E0
 0001:001204F0       ??_GcamCarCS@@UAEPAXI@Z    005214F0
 0001:00120520       ?MakeActive@camBaseCS@@UAEXXZ 00521520
 0001:00120530       ??0camTransitionCS@@QAE@XZ 00521530
 0001:001205C0       ??1camTransitionCS@@UAE@XZ 005215C0
 0001:001205D0       ?Init@camTransitionCS@@QAEXPAVvehCar@@@Z 005215D0
 0001:00120600       ?Reset@camTransitionCS@@UAEXXZ 00521600
 0001:00120610       ?Update@camTransitionCS@@UAEXXZ 00521610
 0001:00120B90       ?ForceMatrixDelta@camTransitionCS@@UAEXABVVector3@@@Z 00521B90
 0001:00120BC0       ?NewTransition@camTransitionCS@@QAEXPAVcamCarCS@@0@Z 00521BC0
 0001:00120BF0       ?NextTransition@camTransitionCS@@QAEXPAVcamCarCS@@@Z 00521BF0
 0001:00120C30       ?StartTransition@camTransitionCS@@QAEXXZ 00521C30
 0001:00120CA0       ?StartNextTransition@camTransitionCS@@QAEXXZ 00521CA0
 0001:00120CE0       ?ReverseTransition@camTransitionCS@@QAEXXZ 00521CE0
 0001:00120D30       ??_GcamTransitionCS@@UAEPAXI@Z 00521D30
 0001:00120D60       ??0camBaseCS@@QAE@XZ       00521D60
 0001:00120DF0       ??1camBaseCS@@UAE@XZ       00521DF0
 0001:00120E00       ?GetDirName@camBaseCS@@UAEPBDXZ 00521E00
 0001:00120E10       ?IsViewCSInTransition@camBaseCS@@QAEHXZ 00521E10
 0001:00120E30       ?UpdateView@camBaseCS@@QAEXXZ 00521E30
 0001:00120E60       ?ForceMatrixDelta@camBaseCS@@UAEXABVVector3@@@Z 00521E60
 0001:00120EA0       ?FileIO@camBaseCS@@UAEXAAVdatParser@@@Z 00521EA0
 0001:00120F30       ?AfterLoad@camBaseCS@@UAEXXZ 00521F30
 0001:00120F40       ??_GcamBaseCS@@UAEPAXI@Z   00521F40
 0001:00120F70       ??0camAppCS@@QAE@XZ        00521F70
 0001:00121050       ??1camAppCS@@UAE@XZ        00522050
 0001:00121060       ?ApproachIt@camAppCS@@IAEXXZ 00522060
 0001:00121090       ?UpdateApproach@camAppCS@@AAEXXZ 00522090
 0001:00121650       ?UpdateMaxDist@camAppCS@@AAEXXZ 00522650
 0001:00121880       ?DApproach@camAppCS@@AAEHAAMMMM0M@Z 00522880
 0001:001219D0       ?FileIO@camAppCS@@UAEXAAVdatParser@@@Z 005229D0
 0001:00121B50       ??_GcamAppCS@@UAEPAXI@Z    00522B50
 0001:00121B80       ?IsEqual@Vector3@@QBE_NABV1@@Z 00522B80
 0001:00121BC0       ??0Spline@@QAE@XZ          00522BC0
 0001:00121BF0       ?Init@Spline@@QAEXPAMH@Z   00522BF0
 0001:00121D00       ?InRange@Spline@@QAEHXZ    00522D00
 0001:00121D50       ?CalcCoeff@Spline@@QAEXXZ  00522D50
 0001:00121E60       ?SetValue@Spline@@QAEXPAM@Z 00522E60
 0001:00121ED0       ?SetGoal@Spline@@QAEXPAMM@Z 00522ED0
 0001:00121FB0       ?Solve@Spline@@QAEXM@Z     00522FB0
 0001:001220E0       ?Print@Spline@@QAEXH@Z     005230E0
 0001:001221E0       ?FixTimeStop@Spline@@QAEXXZ 005231E0
 0001:00122210       ?Update@Spline@@UAEXXZ     00523210
 0001:00122260       ??_GSpline@@UAEPAXI@Z      00523260
 0001:00122310       ?SetDefaults@mmStatePack@@QAEXPAD0@Z 00523310
 0001:00122590       ?ParseStateArgs@mmStatePack@@QAE_NXZ 00523590
 0001:001225A0       ??0NetStartArray@@QAE@XZ   005235A0
 0001:001225B0       ??1NetStartArray@@QAE@XZ   005235B0
 0001:001225C0       ?Clear@NetStartArray@@QAEXXZ 005235C0
 0001:001225D0       ?GetIndex@NetStartArray@@QAEHK@Z 005235D0
 0001:001225F0       ?ClearIndex@NetStartArray@@QAEXK@Z 005235F0
 0001:00122610       ?AssignOpenIndex@NetStartArray@@QAEHK@Z 00523610
 0001:00122650       ?Init@NetStartArray@@QAEXPAK@Z 00523650
 0001:001227B0       ??1mmStatePack@@QAE@XZ     005237B0
 0001:00122800       ??0mmStatePack@@QAE@XZ     00523800
 0001:00122850       ??1mmPlayerData@@UAE@XZ    00523850
 0001:001228B0       ??_GmmPlayerData@@UAEPAXI@Z 005238B0
 0001:001228E0       ??0mmRewardList@@QAE@XZ    005238E0
 0001:001228F0       ??1mmRewardList@@QAE@XZ    005238F0
 0001:00122930       ?Init@mmRewardList@@QAEXH@Z 00523930
 0001:001229B0       ?Load@mmRewardList@@QAE_NPAD00@Z 005239B0
 0001:00122C90       ?GetRecord@mmRewardList@@QAEPAVmmRewardRecord@@H@Z 00523C90
 0001:00122CA0       ?UnlockPlayerRewards@mmRewardList@@SAXPAD@Z 00523CA0
 0001:00122E70       ?CheckReward@mmRewardList@@SA_NPADHPAVmmRewardRecord@@@Z 00523E70
 0001:001230D0       ??_EmmRewardRecord@@QAEPAXI@Z 005240D0
 0001:00123140       ??0mmRewardRecord@@QAE@XZ  00524140
 0001:00123160       ??0mmCityList@@QAE@XZ      00524160
 0001:00123180       ??1mmCityList@@UAE@XZ      00524180
 0001:001231E0       ?Init@mmCityList@@QAEXH@Z  005241E0
 0001:001231F0       ?GetCityInfo@mmCityList@@QAEPAVmmCityInfo@@H@Z 005241F0
 0001:00123220       ?GetCityInfo@mmCityList@@QAEPAVmmCityInfo@@PAD@Z 00524220
 0001:00123270       ?GetCityID@mmCityList@@QAEHPAD@Z 00524270
 0001:001232C0       ?SetCurrentCity@mmCityList@@QAEXPAD@Z 005242C0
 0001:001232F0       ?SetCurrentCity@mmCityList@@QAEXH@Z 005242F0
 0001:00123320       ?GetCurrentCity@mmCityList@@QAEPAVmmCityInfo@@XZ 00524320
 0001:00123330       ?Load@mmCityList@@QAEXPAD@Z 00524330
 0001:00123420       ?Print@mmCityList@@QAEXXZ  00524420
 0001:00123460       ?isCityInfoFile@@YA_NPBD@Z 00524460
 0001:001234C0       ?LoadCityCB@@YAXPBD_N@Z    005244C0
 0001:001234F0       ?LoadAll@mmCityList@@QAEXXZ 005244F0
 0001:00123520       ??_EmmCityList@@UAEPAXI@Z  00524520
 0001:00123550       ??0mmVehList@@QAE@XZ       00524550
 0001:00123570       ??1mmVehList@@UAE@XZ       00524570
 0001:001235D0       ?Init@mmVehList@@QAEXH@Z   005245D0
 0001:001235E0       ?GetVehicleInfo@mmVehList@@QAEPAVmmVehInfo@@H@Z 005245E0
 0001:00123610       ?GetVehicleInfo@mmVehList@@QAEPAVmmVehInfo@@PAD@Z 00524610
 0001:00123690       ?SetDefaultVehicle@mmVehList@@QAEXPAD@Z 00524690
 0001:001236B0       ?GetVehicleID@mmVehList@@QAEHPAD@Z 005246B0
 0001:00123720       ?Load@mmVehList@@QAEXPAD@Z 00524720
 0001:00123810       ?Print@mmVehList@@QAEXXZ   00524810
 0001:00123860       ?isVehInfoFile@@YA_NPBD@Z  00524860
 0001:001238D0       ?LoadVehListCB@@YAXPBD_N@Z 005248D0
 0001:00123950       ?LoadAll@mmVehList@@QAEXXZ 00524950
 0001:00123A00       ??_EmmVehList@@UAEPAXI@Z   00524A00
 0001:00123A30       ??0mmMiscData@@QAE@XZ      00524A30
 0001:00123AA0       ??1mmMiscData@@UAE@XZ      00524AA0
 0001:00123B00       ?Reset@mmMiscData@@QAEXXZ  00524B00
 0001:00123B20       ?Open@mmMiscData@@QAEHPAD@Z 00524B20
 0001:00123C90       ?Close@mmMiscData@@QAEHXZ  00524C90
 0001:00123CC0       ?Init@mmMiscData@@QAEHPADHHH@Z 00524CC0
 0001:00123EF0       ?GetFileOffset@mmMiscData@@AAEJHHHH@Z 00524EF0
 0001:00123F90       ?GetRecord@mmMiscData@@QAE?AVmmRecord@@HHHH@Z 00524F90
 0001:00124120       ?NewRecord@mmMiscData@@QAEHHPADMH0HH@Z 00525120
 0001:00124450       ??_GmmMiscData@@UAEPAXI@Z  00525450
 0001:00124480       ??_GmmRecord@@UAEPAXI@Z    00525480
 0001:001244B0       ??0mmPlayerConfig@@QAE@XZ  005254B0
 0001:00124560       ??1mmPlayerConfig@@UAE@XZ  00525560
 0001:001245D0       ??4mmPlayerConfig@@QAEXAAV0@@Z 005255D0
 0001:00124750       ?Load@mmPlayerConfig@@QAEHPAD@Z 00525750
 0001:001247B0       ?LoadBinary@mmPlayerConfig@@QAEHPAD@Z 005257B0
 0001:00124A30       ?SaveBinary@mmPlayerConfig@@QAEHPAD@Z 00525A30
 0001:00124C70       ?SetDefaults@mmPlayerConfig@@QAEXXZ 00525C70
 0001:00124C80       ?Save@mmPlayerConfig@@QAEHPADH@Z 00525C80
 0001:00124D20       ?SetAudio@mmPlayerConfig@@QAEXXZ 00525D20
 0001:00124E20       ?SetControls@mmPlayerConfig@@QAEXXZ 00525E20
 0001:00124F10       ?GetCustom@mmPlayerConfig@@QAEXXZ 00525F10
 0001:00124F40       ?SetCustom@mmPlayerConfig@@QAEXXZ 00525F40
 0001:00124F70       ??0mmGfxCFG@@QAE@XZ        00525F70
 0001:00124FB0       ?Get@mmGfxCFG@@QAEXXZ      00525FB0
 0001:00125020       ?Set@mmGfxCFG@@QAEXXZ      00526020
 0001:00125090       ?GetGraphics@mmPlayerConfig@@QAEXXZ 00526090
 0001:001250A0       ?SetGraphics@mmPlayerConfig@@QAEXXZ 005260A0
 0001:001250B0       ?GetAudio@mmPlayerConfig@@QAEXXZ 005260B0
 0001:00125120       ?GetControls@mmPlayerConfig@@QAEXXZ 00526120
 0001:00125200       ?GetViewSettings@mmPlayerConfig@@QAEXXZ 00526200
 0001:00125220       ?SetViewSettings@mmPlayerConfig@@QAEXXZ 00526220
 0001:00125240       ?DefaultAudio@mmPlayerConfig@@QAEXXZ 00526240
 0001:001252F0       ?DefaultControls@mmPlayerConfig@@QAEXXZ 005262F0
 0001:00125350       ?DefaultViewSettings@mmPlayerConfig@@QAEXXZ 00526350
 0001:00125390       ?Reset@mmPlayerConfig@@QAEXXZ 00526390
 0001:001253A0       ?DefaultGraphics@mmPlayerConfig@@QAEXXZ 005263A0
 0001:001254D0       ??_GmmPlayerConfig@@UAEPAXI@Z 005264D0
 0001:00125520       ??0mmPlayerDirectory@@QAE@XZ 00526520
 0001:00125560       ??1mmPlayerDirectory@@UAE@XZ 00526560
 0001:001255D0       ?NewDirectory@mmPlayerDirectory@@QAEXH@Z 005265D0
 0001:00125610       ?SetPlayer@mmPlayerDirectory@@QAEXHPAD0@Z 00526610
 0001:00125640       ?SetLastPlayer@mmPlayerDirectory@@QAEXPAD@Z 00526640
 0001:00125690       ?GetPlayer@mmPlayerDirectory@@QAEPADH@Z 00526690
 0001:001256C0       ?GetNumPlayers@mmPlayerDirectory@@QAEHXZ 005266C0
 0001:001256D0       ?GetLastPlayer@mmPlayerDirectory@@QAEPADXZ 005266D0
 0001:00125700       ?AddPlayer@mmPlayerDirectory@@QAEHPAD@Z 00526700
 0001:00125830       ?CreatePlayer@mmPlayerDirectory@@AAEXPAD0@Z 00526830
 0001:00125930       ?FindPlayer@mmPlayerDirectory@@QAEHPAD@Z 00526930
 0001:001259A0       ?GetFileName@mmPlayerDirectory@@QAEPADPAD@Z 005269A0
 0001:00125A30       ?GetPlayerName@mmPlayerDirectory@@QAEPADPAD@Z 00526A30
 0001:00125AC0       ?GetFileName@mmPlayerDirectory@@QAEPADH@Z 00526AC0
 0001:00125AF0       ?MakeFileName@mmPlayerDirectory@@AAEPADXZ 00526AF0
 0001:00125BB0       ?RemovePlayer@mmPlayerDirectory@@QAEHPAD@Z 00526BB0
 0001:00125CA0       ?Load@mmPlayerDirectory@@QAEHPAD@Z 00526CA0
 0001:00125CD0       ?Save@mmPlayerDirectory@@QAEHPADH@Z 00526CD0
 0001:00125D70       ?SaveBinary@mmPlayerDirectory@@QAEHPAD@Z 00526D70
 0001:00125E70       ?LoadBinary@mmPlayerDirectory@@QAEHPAD@Z 00526E70
 0001:00125FB0       ??_GmmPlayerDirectory@@UAEPAXI@Z 00526FB0
 0001:00125FE0       ??0mmPlayerData@@QAE@XZ    00526FE0
 0001:001260C0       ??4mmPlayerData@@QAEXAAV0@@Z 005270C0
 0001:001261B0       ?OpenCityRecord@mmPlayerData@@QAEHPAD@Z 005271B0
 0001:00126220       ?CloseCityRecord@mmPlayerData@@QAEHXZ 00527220
 0001:00126230       ?GetCheckpointProgress@mmPlayerData@@QAEHPADH@Z 00527230
 0001:00126250       ?GetTagID@mmPlayerData@@QAEMXZ 00527250
 0001:00126260       ?SetTagID@mmPlayerData@@QAEXM@Z 00527260
 0001:00126270       ?GetProgress@mmPlayerData@@QAEHPADH@Z 00527270
 0001:001262A0       ?GetPassedMask@mmPlayerData@@QAEHPADH@Z 005272A0
 0001:00126370       ?GetNumPassed@mmPlayerData@@QAEHPADH@Z 00527370
 0001:00126440       ?GetTotalPassed@mmPlayerData@@QAEHPAD@Z 00527440
 0001:00126530       ?GetScore@mmPlayerData@@QAEHPADH@Z 00527530
 0001:00126710       ?GetTotalScore@mmPlayerData@@QAEHPAD@Z 00527710
 0001:00126890       ?ResolveCheckpointProgress@mmPlayerData@@QAEHPAD@Z 00527890
 0001:001269D0       ?ResolveCrashProgress@mmPlayerData@@QAEHPAD@Z 005279D0
 0001:00126B30       ?RegisterFinish@mmPlayerData@@QAEHVmmPlayerRecord@@HH@Z 00527B30
 0001:00126BB0       ?Reset@mmPlayerData@@QAEXXZ 00527BB0
 0001:00126C30       ?SetCity@mmPlayerData@@QAEXPAD@Z 00527C30
 0001:00126C70       ?GetCity@mmPlayerData@@QAEPADXZ 00527C70
 0001:00126C80       ?SetName@mmPlayerData@@QAEXPAD@Z 00527C80
 0001:00126CC0       ?GetName@mmPlayerData@@QAEPADXZ 00527CC0
 0001:00126CD0       ?SetNetName@mmPlayerData@@QAEXPAD@Z 00527CD0
 0001:00126D10       ?GetNetName@mmPlayerData@@QAEPADXZ 00527D10
 0001:00126D20       ?SetFileName@mmPlayerData@@QAEXPAD@Z 00527D20
 0001:00126D60       ?GetFileName@mmPlayerData@@QAEPADXZ 00527D60
 0001:00126D70       ?Load@mmPlayerData@@QAEHPAD@Z 00527D70
 0001:00126DA0       ?Save@mmPlayerData@@QAEHPADH@Z 00527DA0
 0001:00126E40       ?ComputeCRC@mmPlayerData@@QAEIXZ 00527E40
 0001:00126EF0       ?LoadBinary@mmPlayerData@@QAEHPAD@Z 00527EF0
 0001:001270B0       ?SaveBinary@mmPlayerData@@QAEHPAD@Z 005280B0
 0001:00127220       ??1mmPlayerCityRecord@@UAE@XZ 00528220
 0001:00127230       ??0mmInfoBase@@QAE@XZ      00528230
 0001:00127260       ?Load@mmInfoBase@@QAEHPAD@Z 00528260
 0001:00127310       ?Save@mmInfoBase@@QAEHPAD@Z 00528310
 0001:001273C0       ?SetIOPath@mmInfoBase@@QAEXPAD@Z 005283C0
 0001:001273E0       ??0mmRecord@@QAE@XZ        005283E0
 0001:00127430       ??1mmRecord@@UAE@XZ        00528430
 0001:00127440       ?Reset@mmRecord@@QAEXXZ    00528440
 0001:00127480       ?GetTime@mmRecord@@QAEMXZ  00528480
 0001:00127490       ?GetCarName@mmRecord@@QAEPADXZ 00528490
 0001:001274A0       ?GetName@mmRecord@@QAEPADXZ 005284A0
 0001:001274B0       ?GetPassed@mmRecord@@QAEHXZ 005284B0
 0001:001274C0       ?GetScore@mmRecord@@QAEHXZ 005284C0
 0001:001274D0       ?SetTime@mmRecord@@QAEXM@Z 005284D0
 0001:001274E0       ?SetCarName@mmRecord@@QAEXPAD@Z 005284E0
 0001:00127500       ?SetName@mmRecord@@QAEXPAD@Z 00528500
 0001:00127540       ?SetPassed@mmRecord@@QAEXH@Z 00528540
 0001:00127560       ?SetScore@mmRecord@@QAEXH@Z 00528560
 0001:00127570       ??4mmRecord@@QAEXAAV0@@Z   00528570
 0001:00127600       ?SaveBinary@mmRecord@@QAEHPAVStream@@@Z 00528600
 0001:00127680       ?LoadBinary@mmRecord@@QAEHPAVStream@@@Z 00528680
 0001:00127700       ?ComputeCRC@mmRecord@@QAEIXZ 00528700
 0001:00127750       ??0mmPlayerRecord@@QAE@XZ  00528750
 0001:001277A0       ??1mmPlayerRecord@@UAE@XZ  005287A0
 0001:001277B0       ?Reset@mmPlayerRecord@@QAEXXZ 005287B0
 0001:001277E0       ??4mmPlayerRecord@@QAEXAAV0@@Z 005287E0
 0001:00127830       ??8mmPlayerRecord@@QAEHABV0@@Z 00528830
 0001:001278C0       ?ComputeCRC@mmPlayerRecord@@QAEIXZ 005288C0
 0001:00127910       ?SaveBinary@mmPlayerRecord@@QAEHPAVStream@@@Z 00528910
 0001:00127990       ?LoadBinary@mmPlayerRecord@@QAEHPAVStream@@@Z 00528990
 0001:00127A10       ??0mmPlayerCityRecord@@QAE@XZ 00528A10
 0001:00127A60       ?Reset@mmPlayerCityRecord@@QAEXXZ 00528A60
 0001:00127A70       ?ComputeCRC@mmPlayerCityRecord@@QAEIXZ 00528A70
 0001:00127B10       ?InitCityRecord@mmPlayerCityRecord@@QAEXPADMHHHH@Z 00528B10
 0001:00127DB0       ?Open@mmPlayerCityRecord@@QAEHPADM@Z 00528DB0
 0001:00127FA0       ?GetRecord@mmPlayerCityRecord@@QAEHAAVmmPlayerRecord@@HH@Z 00528FA0
 0001:001280C0       ?NewRecord@mmPlayerCityRecord@@QAEHVmmPlayerRecord@@HH@Z 005290C0
 0001:00128360       ?Close@mmPlayerCityRecord@@QAEHXZ 00529360
 0001:00128490       ?GetNumPassed@mmPlayerCityRecord@@QAEHH@Z 00529490
 0001:00128580       ?GetNumRaces@mmPlayerCityRecord@@QAEHH@Z 00529580
 0001:001285E0       ?GetPassedMask@mmPlayerCityRecord@@QAEKH@Z 005295E0
 0001:00128640       ?GetFileOffset@mmPlayerCityRecord@@AAEJHH@Z 00529640
 0001:001286F0       ??_GmmPlayerCityRecord@@UAEPAXI@Z 005296F0
 0001:00128720       ??0mmVehInfo@@QAE@XZ       00529720
 0001:00128770       ??1mmVehInfo@@UAE@XZ       00529770
 0001:00128780       ?mygetstring@@YAXPAU_iobuf@@PAD@Z 00529780
 0001:001287B0       ?Load@mmVehInfo@@QAEHPAD@Z 005297B0
 0001:00128A00       ?HasColorVariations@mmVehInfo@@QAEHXZ 00529A00
 0001:00128A20       ?Print@mmVehInfo@@QAEXXZ   00529A20
 0001:00128AA0       ?GetTuningCRC@mmVehInfo@@QAEKXZ 00529AA0
 0001:00128AB0       ?ComputeTuningCRC@mmVehInfo@@QAEXXZ 00529AB0
 0001:00128B50       ??_GmmVehInfo@@UAEPAXI@Z   00529B50
 0001:00128B80       ??0mmRaceData@@QAE@XZ      00529B80
 0001:00128B90       ??1mmRaceData@@QAE@XZ      00529B90
 0001:00128BA0       ?Load@mmRaceData@@QAEHPAD0@Z 00529BA0
 0001:00128EB0       ?GetNumRaces@mmRaceData@@QAEHXZ 00529EB0
 0001:00128EC0       ?GetRaceName@mmRaceData@@QAEPADH@Z 00529EC0
 0001:00128ED0       ?GetCarType@mmRaceData@@QAEHHW4dgSkillLevel@@@Z 00529ED0
 0001:00128F00       ?GetNumLaps@mmRaceData@@QAEHHW4dgSkillLevel@@@Z 00529F00
 0001:00128F30       ?GetTimeLimit@mmRaceData@@QAEMHW4dgSkillLevel@@@Z 00529F30
 0001:00128F60       ?GetNumOpponents@mmRaceData@@QAEHHW4dgSkillLevel@@@Z 00529F60
 0001:00128F90       ?GetNumCops@mmRaceData@@QAEHHW4dgSkillLevel@@@Z 00529F90
 0001:00128FC0       ?GetTimeOfDay@mmRaceData@@QAEHHW4dgSkillLevel@@@Z 00529FC0
 0001:00128FF0       ?GetWeather@mmRaceData@@QAEHHW4dgSkillLevel@@@Z 00529FF0
 0001:00129020       ?GetPedDensity@mmRaceData@@QAEMHW4dgSkillLevel@@@Z 0052A020
 0001:00129050       ?GetAmbientDensity@mmRaceData@@QAEMHW4dgSkillLevel@@@Z 0052A050
 0001:00129080       ?GetDifficulty@mmRaceData@@QAEMHW4dgSkillLevel@@@Z 0052A080
 0001:001290B0       ??0mmPositions@@QAE@XZ     0052A0B0
 0001:001290C0       ??1mmPositions@@QAE@XZ     0052A0C0
 0001:001290E0       ?Init@mmPositions@@QAEXH@Z 0052A0E0
 0001:00129110       ?Load@mmPositions@@QAEHPAD@Z 0052A110
 0001:00129300       ?GetCount@mmPositions@@QAEHXZ 0052A300
 0001:00129310       ?GetVector4@mmPositions@@QAEAAVVector4@@H@Z 0052A310
 0001:00129340       ?GetFrameRate@mmPositions@@QAEHH@Z 0052A340
 0001:00129370       ?Dump@mmPositions@@QAEHPAD@Z 0052A370
 0001:00129380       ?Recall@mmPositions@@QAEHHPAVMatrix34@@PAHPAD@Z 0052A380
 0001:00129410       ?Register@mmPositions@@QAEHAAVVector4@@HHHHPAD@Z 0052A410
 0001:00129540       ??0mmCityInfo@@QAE@XZ      0052A540
 0001:00129560       ??1mmCityInfo@@UAE@XZ      0052A560
 0001:00129570       ?Load@mmCityInfo@@QAEHPAD@Z 0052A570
 0001:001298C0       ??_GmmCityInfo@@UAEPAXI@Z  0052A8C0
 0001:001298F0       ?UpdateCrc@@YAKPAEI@Z      0052A8F0
 0001:00129950       ?testsuperq@@YAXXZ         0052A950
 0001:00129990       ??0mmInput@@QAE@XZ         0052A990
 0001:00129B90       ??1mmInput@@UAE@XZ         0052AB90
 0001:00129CB0       ?AttachToPipe@mmInput@@QAEHXZ 0052ACB0
 0001:0012A170       ?Reset@mmInput@@UAEXXZ     0052B170
 0001:0012A1B0       ?IOInit@mmInput@@QAEXHPAULocString@@J@Z 0052B1B0
 0001:0012A1E0       ?AutoSetup@mmInput@@QAEXXZ 0052B1E0
 0001:0012A200       ?SaveCB@mmInput@@QAEXXZ    0052B200
 0001:0012A240       ?RestoreDefaultConfig@mmInput@@QAEXH@Z 0052B240
 0001:0012A290       ?SetDefaultConfig@mmInput@@QAEXH@Z 0052B290
 0001:0012B380       ?Init@mmInput@@QAEXH@Z     0052C380
 0001:0012B570       ?FlagIODevChanged@mmInput@@QAEXXZ 0052C570
 0001:0012B590       ?ReturnStateCaptured@mmInput@@QAEHXZ 0052C590
 0001:0012B5B0       ?CaptureState@mmInput@@QAEXH@Z 0052C5B0
 0001:0012B5E0       ?BuildCaptureIO@mmInput@@QAEHHPAVmmIO@@TeqEvent@@@Z 0052C5E0
 0001:0012B7A0       ?ForceAssignment@mmInput@@QAEXPAVmmIO@@@Z 0052C7A0
 0001:0012B7C0       ?SanityCheck@mmInput@@QAEHPAVmmIO@@HH@Z 0052C7C0
 0001:0012B830       ?IsAlreadyAssigned@mmInput@@QAEHPAVmmIO@@HHH@Z 0052C830
 0001:0012B920       ?AssignIO@mmInput@@QAEXPAVmmIO@@HH@Z 0052C920
 0001:0012B9B0       ?Update@mmInput@@UAEXXZ    0052C9B0
 0001:0012BA80       ?PollStates@mmInput@@QAEHXZ 0052CA80
 0001:0012BB40       ?PollSuperQ@mmInput@@QAEHXZ 0052CB40
 0001:0012BB90       ?Flush@mmInput@@QAEXXZ     0052CB90
 0001:0012BBF0       ?ClearEventHitFlags@mmInput@@QAEXXZ 0052CBF0
 0001:0012BC10       ?ProcessMouseEvents@mmInput@@AAEXXZ 0052CC10
 0001:0012BC70       ?ProcessKeyboardEvents@mmInput@@AAEXXZ 0052CC70
 0001:0012BCC0       ?GetBufferedKeyboardData@mmInput@@AAEXXZ 0052CCC0
 0001:0012BCE0       ?GetNextKeyboardEvent@mmInput@@AAEHPATeqEvent@@@Z 0052CCE0
 0001:0012BD30       ?ProcessEvents@mmInput@@AAEXXZ 0052CD30
 0001:0012BD50       ?ProcessStates@mmInput@@AAE_JXZ 0052CD50
 0001:0012BE30       ?ScanState@mmInput@@AAE_JPAVmmIO@@@Z 0052CE30
 0001:0012BFE0       ?EventToButton@mmInput@@AAEHH@Z 0052CFE0
 0001:0012C010       ?ProcessJoyEvents@mmInput@@AAEXXZ 0052D010
 0001:0012C520       ?ScanForEvent@mmInput@@AAE_JPATeqEvent@@@Z 0052D520
 0001:0012C5E0       ?PutEventInQueue@mmInput@@AAEX_J@Z 0052D5E0
 0001:0012C610       ?PollContinuous@mmInput@@AAEXPAVmmIO@@@Z 0052D610
 0001:0012C950       ?GetThrottle@mmInput@@QAEMXZ 0052D950
 0001:0012C970       ?GetThrottleVal@mmInput@@QAEMXZ 0052D970
 0001:0012C9E0       ?GetBrakes@mmInput@@QAEMXZ 0052D9E0
 0001:0012CA00       ?GetBrakesVal@mmInput@@QAEMXZ 0052DA00
 0001:0012CA70       ?GetHandBrake@mmInput@@QAEMXZ 0052DA70
 0001:0012CAF0       ?FilterDiscreteSteering@mmInput@@AAEMM@Z 0052DAF0
 0001:0012CC80       ?FilterGamepadSteering@mmInput@@QAEMXZ 0052DC80
 0001:0012CE90       ?GetSteering@mmInput@@QAEMP6AMM@Z@Z 0052DE90
 0001:0012CF60       ?GetCamPan@mmInput@@QAEMXZ 0052DF60
 0001:0012D0A0       ?DeviceConnected@mmInput@@QAEHXZ 0052E0A0
 0001:0012D0C0       ?JoystickConnected@mmInput@@QAEHXZ 0052E0C0
 0001:0012D0D0       ?GamepadConnected@mmInput@@QAEHXZ 0052E0D0
 0001:0012D0E0       ?WheelConnected@mmInput@@QAEHXZ 0052E0E0
 0001:0012D0F0       ?SetDeadZone@mmInput@@QAEXM@Z 0052E0F0
 0001:0012D120       ?JoystickHasCoolie@mmInput@@QAEHXZ 0052E120
 0001:0012D140       ?JoystickHasThrottle@mmInput@@QAEHXZ 0052E140
 0001:0012D160       ?WheelHas3Axis@mmInput@@QAEHXZ 0052E160
 0001:0012D1A0       ?DoingFF@mmInput@@QAEHXZ   0052E1A0
 0001:0012D1D0       ?StopAllFF@mmInput@@QAEXXZ 0052E1D0
 0001:0012D1E0       ?SetForceFeedbackScale@mmInput@@QAEXM@Z 0052E1E0
 0001:0012D230       ?SetRoadForceScale@mmInput@@QAEXM@Z 0052E230
 0001:0012D280       ?ToggleFFEnabled@mmInput@@QAEHH@Z 0052E280
 0001:0012D2B0       ?FFPlay@mmInput@@QAEHH@Z   0052E2B0
 0001:0012D2E0       ?FFStop@mmInput@@QAEHH@Z   0052E2E0
 0001:0012D310       ?FFIsPlaying@mmInput@@QAEHH@Z 0052E310
 0001:0012D340       ?FFSetValues@mmInput@@QAEHHMM@Z 0052E340
 0001:0012D380       ?PopEvent@mmInput@@QAEHPAH@Z 0052E380
 0001:0012D3B0       ?LoadConfig@mmInput@@QAEHPAVStream@@@Z 0052E3B0
 0001:0012D440       ?BinaryLoadConfig@mmInput@@QAEHPAVStream@@@Z 0052E440
 0001:0012D500       ?SaveConfig@mmInput@@QAEHPAVStream@@@Z 0052E500
 0001:0012D580       ?BinarySaveConfig@mmInput@@QAEHPAVStream@@@Z 0052E580
 0001:0012D610       ?PrintIODev@mmInput@@QAEXXZ 0052E610
 0001:0012D6E0       ?SaveCodeConfig@mmInput@@QAEHPAVStream@@@Z 0052E6E0
 0001:0012DDC0       ??_GmmInput@@UAEPAXI@Z     0052EDC0
 0001:0012DDF0       ??_EmmIO@@QAEPAXI@Z        0052EDF0
 0001:0012DE50       ??_EmmIODev@@UAEPAXI@Z     0052EE50
 0001:0012DEB0       ??0mmIO@@QAE@XZ            0052EEB0
 0001:0012DED0       ??1mmIO@@QAE@XZ            0052EED0
 0001:0012DEE0       ?Clear@mmIO@@QAEXXZ        0052EEE0
 0001:0012DF00       ?Init@mmIO@@QAEXPADHJ@Z    0052EF00
 0001:0012DF60       ?InitDev@mmIO@@QAEXH_JHHH@Z 0052EF60
 0001:0012E010       ?Assign@mmIO@@QAEXHH@Z     0052F010
 0001:0012E070       ??8mmIO@@QAEHPATeqEvent@@@Z 0052F070
 0001:0012E0C0       ?GetDescription@mmIO@@QAEXPAD@Z 0052F0C0
 0001:0012E110       ?Write@mmIO@@QAEHPAVStream@@@Z 0052F110
 0001:0012E150       ?Read@mmIO@@QAEHPAVStream@@@Z 0052F150
 0001:0012E220       ?CompareComponent@mmIO@@QAEHH@Z 0052F220
 0001:0012E2F0       ?ForceSettingAcrossConfigs@mmIO@@QAEXH@Z 0052F2F0
 0001:0012E3C0       ??0mmIODev@@QAE@XZ         0052F3C0
 0001:0012E400       ??1mmIODev@@UAE@XZ         0052F400
 0001:0012E410       ?Init@mmIODev@@QAEXH_J@Z   0052F410
 0001:0012E440       ?Assign@mmIODev@@QAEXHHH@Z 0052F440
 0001:0012E570       ??8mmIODev@@QAEHPATeqEvent@@@Z 0052F570
 0001:0012E5D0       ?ConvertDItoString@@YAHHPADH@Z 0052F5D0
 0001:0012E630       ?GetDescription@mmIODev@@QAEXPAD@Z 0052F630
 0001:0012E8F0       ?GetComponentType@mmIODev@@QAEHHH@Z 0052F8F0
 0001:0012E950       ?SanityCheckioType@mmIODev@@QAEHHHH@Z 0052F950
 0001:0012E9D0       ?Print@mmIODev@@QAEXH@Z    0052F9D0
 0001:0012EAA0       ?Write@mmIODev@@QAEHPAVStream@@@Z 0052FAA0
 0001:0012EAF0       ?WriteBinary@mmIODev@@QAEHPAVStream@@@Z 0052FAF0
 0001:0012EB40       ?Read@mmIODev@@QAEHPAVStream@@@Z 0052FB40
 0001:0012EB90       ?ReadBinary@mmIODev@@QAEHPAVStream@@@Z 0052FB90
 0001:0012EBE0       ??_GmmIODev@@UAEPAXI@Z     0052FBE0
 0001:0012EC10       ?inputEnumDeviceProc@@YGHPAUDIDEVICEINSTANCEA@@PAX@Z 0052FC10
 0001:0012EC40       ??0mmJoyMan@@QAE@XZ        0052FC40
 0001:0012EC50       ??1mmJoyMan@@QAE@XZ        0052FC50
 0001:0012EC90       ?Init@mmJoyMan@@QAEHPAUHINSTANCE__@@PAUHWND__@@@Z 0052FC90
 0001:0012EDF0       ?ButtonToBit@mmJoyMan@@QAEHH@Z 0052FDF0
 0001:0012EE20       ?QJoystick@mmJoyMan@@QAEHXZ 0052FE20
 0001:0012EE30       ?Update@mmJoyMan@@QAEXXZ   0052FE30
 0001:0012EE60       ?GetJoyAxis@mmJoyMan@@QAEMHH@Z 0052FE60
 0001:0012EEA0       ?GetJoyButton@mmJoyMan@@QAEHHH@Z 0052FEA0
 0001:0012EEF0       ?PollJoyButtons@mmJoyMan@@QAEHXZ 0052FEF0
 0001:0012EF50       ?PollJoyAxes@mmJoyMan@@QAEHXZ 0052FF50
 0001:0012EF90       ?SetCapture@mmJoyMan@@QAEXH@Z 0052FF90
 0001:0012F000       ?GetOneButton@mmJoyMan@@QAEHJ@Z 00530000
 0001:0012F030       ?GetFFEffect@mmJoyMan@@QAEPAVmmEffectFF@@H@Z 00530030
 0001:0012F060       ?ToggleEnabled@mmJoyMan@@QAEHH@Z 00530060
 0001:0012F0A0       ?FFPlay@mmJoyMan@@QAEHH@Z  005300A0
 0001:0012F0D0       ?FFStop@mmJoyMan@@QAEHH@Z  005300D0
 0001:0012F100       ?FFIsPlaying@mmJoyMan@@QAEHH@Z 00530100
 0001:0012F130       ?FFSetValues@mmJoyMan@@QAEHHMM@Z 00530130
 0001:0012F170       ?StopAllFF@mmJoyMan@@QAEXXZ 00530170
 0001:0012F190       ?HasCoolie@mmJoyMan@@QAEHXZ 00530190
 0001:0012F1B0       ?HasThrottle@mmJoyMan@@QAEHXZ 005301B0
 0001:0012F1D0       ??_EmmJoystick@@QAEPAXI@Z  005301D0
 0001:0012F230       ??0mmJaxis@@QAE@XZ         00530230
 0001:0012F250       ??1mmJaxis@@QAE@XZ         00530250
 0001:0012F260       ?SetRange@mmJaxis@@QAEXMM@Z 00530260
 0001:0012F280       ?Normalize@mmJaxis@@QAEXM@Z 00530280
 0001:0012F2A0       ?NormalizePOV@mmJaxis@@QAEXK@Z 005302A0
 0001:0012F2E0       ?Capture@mmJaxis@@QAEHXZ   005302E0
 0001:0012F310       ?ResetCapture@mmJaxis@@QAEXXZ 00530310
 0001:0012F330       ??0mmJoystick@@QAE@XZ      00530330
 0001:0012F3B0       ??1mmJoystick@@QAE@XZ      005303B0
 0001:0012F4B0       ?Init@mmJoystick@@QAEHPAUIDirectInputDevice2A@@PAUHWND__@@@Z 005304B0
 0001:0012F5C0       ?inputPrepareDevice@mmJoystick@@QAEHXZ 005305C0
 0001:0012F770       ?SetDeadZone@mmJoystick@@QAEHM@Z 00530770
 0001:0012F810       ?DisableAutoCenter@mmJoystick@@QAEHXZ 00530810
 0001:0012F860       ?Poll@mmJoystick@@QAEKXZ   00530860
 0001:0012F970       ?GetAxis@mmJoystick@@QAEMH@Z 00530970
 0001:0012FA70       ?GetButton@mmJoystick@@QAEMH@Z 00530A70
 0001:0012FAA0       ?Update@mmJoystick@@QAEXXZ 00530AA0
 0001:0012FB30       ?ResetAxisCapture@mmJoystick@@QAEXXZ 00530B30
 0001:0012FBB0       ?InputCreateEffect@mmJoystick@@QAEXXZ 00530BB0
 0001:0012FCE0       ?InputInitEffect@mmJoystick@@QAEXXZ 00530CE0
 0001:0012FD20       ?InputStopEffect@mmJoystick@@QAEXXZ 00530D20
 0001:0012FD60       ?SetShake@mmJoystick@@QAEHKK@Z 00530D60
 0001:0012FD90       ?PlayShake@mmJoystick@@QAEHXZ 00530D90
 0001:0012FDB0       ?StopShake@mmJoystick@@QAEHXZ 00530DB0
 0001:0012FDD0       ?PlayCollision@mmJoystick@@QAEHXZ 00530DD0
 0001:0012FDF0       ?SetSteer@mmJoystick@@QAEHJ@Z 00530DF0
 0001:0012FE10       ?PlaySteer@mmJoystick@@QAEHXZ 00530E10
 0001:0012FE30       ?StopSteer@mmJoystick@@QAEHXZ 00530E30
 0001:0012FE50       ?SetFriction@mmJoystick@@QAEHJ@Z 00530E50
 0001:0012FE70       ?PlayFriction@mmJoystick@@QAEHXZ 00530E70
 0001:0012FE90       ?StopFriction@mmJoystick@@QAEHXZ 00530E90
 0001:0012FEB0       ?GetFFEffect@mmJoystick@@QAEPAVmmEffectFF@@H@Z 00530EB0
 0001:0012FF00       ?GetNumButtons@mmJoystick@@QAEHXZ 00530F00
 0001:0012FF10       ?PrintDeviceCaps@mmJoystick@@QAEXXZ 00530F10
 0001:001300E0       ?DecodeDIErrorMFlag@@YAXJ@Z 005310E0
 0001:001304A0       ?AngelReadKeyString@@YAPAULocString@@I@Z 005314A0
 0001:001304E0       ?inputEnumEffectTypeProc@@YGHPBUDIEFFECTINFOA@@PAX@Z 005314E0
 0001:00130540       ??0mmEffectFF@@QAE@XZ      00531540
 0001:001305B0       ??1mmEffectFF@@QAE@XZ      005315B0
 0001:001305D0       ?Play@mmEffectFF@@UAEHXZ   005315D0
 0001:001305E0       ?Stop@mmEffectFF@@UAEHXZ   005315E0
 0001:001305F0       ?SetValues@mmEffectFF@@UAEHMM@Z 005315F0
 0001:00130600       ?Init@mmCollideFF@@UAEHPAUIDirectInputDevice2A@@@Z 00531600
 0001:001307B0       ?SetValues@mmCollideFF@@UAEHMM@Z 005317B0
 0001:001307E0       ?Assign@mmCollideFF@@QAEHJJ@Z 005317E0
 0001:001308E0       ?Play@mmCollideFF@@UAEHXZ  005318E0
 0001:00130930       ?Stop@mmCollideFF@@UAEHXZ  00531930
 0001:00130940       ?Init@mmRoadFF@@UAEHPAUIDirectInputDevice2A@@@Z 00531940
 0001:00130A40       ?SetValues@mmRoadFF@@UAEHMM@Z 00531A40
 0001:00130A70       ?Assign@mmRoadFF@@QAEHJJ@Z 00531A70
 0001:00130B60       ?Play@mmRoadFF@@UAEHXZ     00531B60
 0001:00130BD0       ?Stop@mmRoadFF@@UAEHXZ     00531BD0
 0001:00130C20       ?Init@mmFrictionFF@@UAEHPAUIDirectInputDevice2A@@@Z 00531C20
 0001:00130D30       ?SetValues@mmFrictionFF@@UAEHMM@Z 00531D30
 0001:00130D60       ?Assign@mmFrictionFF@@QAEHJ@Z 00531D60
 0001:00130E20       ?Play@mmFrictionFF@@UAEHXZ 00531E20
 0001:00130E80       ?Stop@mmFrictionFF@@UAEHXZ 00531E80
 0001:00130EC0       ?Init@mmSpringFF@@UAEHPAUIDirectInputDevice2A@@@Z 00531EC0
 0001:00130FC0       ?SetValues@mmSpringFF@@UAEHMM@Z 00531FC0
 0001:00130FF0       ?Assign@mmSpringFF@@QAEHJ@Z 00531FF0
 0001:001310E0       ?Play@mmSpringFF@@UAEHXZ   005320E0
 0001:00131150       ?Stop@mmSpringFF@@UAEHXZ   00532150
 0001:00131190       ?ddGDIFlip@@YAXXZ          00532190
 0001:001311A0       ??0mmText@@QAE@XZ          005321A0
 0001:001311B0       ??1mmText@@QAE@XZ          005321B0
 0001:001311C0       ?CreateLocFont@mmText@@SAPAXPBULocString@@H@Z 005321C0
 0001:00131280       ?CreateFont@mmText@@SAPAXPBDH@Z 00532280
 0001:001312B0       ?DeleteFont@mmText@@SAXPAX@Z 005322B0
 0001:001312C0       ?GetDC@mmText@@SAPAXPAVgfxBitmap@@@Z 005322C0
 0001:001312F0       ?ReleaseDC@mmText@@SAXXZ   005322F0
 0001:00131310       ?CreateFitBitmap@mmText@@SAPAVgfxBitmap@@PBDPBXHH@Z 00532310
 0001:001314F0       ?Draw@mmText@@QAEXPAVgfxBitmap@@MMPBDPBX@Z 005324F0
 0001:00131580       ?Draw2@mmText@@QAEXPAVgfxBitmap@@MMPBDPBXI@Z 00532580
 0001:00131670       ??0mmTextNode@@QAE@XZ      00532670
 0001:001316C0       ??1mmTextNode@@UAE@XZ      005326C0
 0001:00131750       ?Init@mmTextNode@@QAEXHHHHHH@Z 00532750
 0001:00131840       ?Init@mmTextNode@@QAEXMMMMHH@Z 00532840
 0001:00131970       ?SetBGColor@mmTextNode@@QAEXAAVVector4@@@Z 00532970
 0001:001319E0       ?SetFGColor@mmTextNode@@QAEXAAVVector4@@@Z 005329E0
 0001:00131A40       ?SetHlColor@mmTextNode@@QAEXAAVVector4@@@Z 00532A40
 0001:00131AA0       ?GetFGColor@mmTextNode@@QAEIXZ 00532AA0
 0001:00131AB0       ?SetEffects@mmTextNode@@QAEXHH@Z 00532AB0
 0001:00131AE0       ?GetEffects@mmTextNode@@QAEHH@Z 00532AE0
 0001:00131B10       ?GetTextDimensions@mmTextNode@@QAEXPBXPBULocString@@AAM2@Z 00532B10
 0001:00131C20       ?SetTextPosition@mmTextNode@@QAEXHMM@Z 00532C20
 0001:00131C70       ?AddText@mmTextNode@@QAEHPBXPBULocString@@HMM@Z 00532C70
 0001:00131D50       ?SetString@mmTextNode@@QAEXHPBULocString@@@Z 00532D50
 0001:00131DB0       ?SetPosition@mmTextNode@@QAEXHMM@Z 00532DB0
 0001:00131E20       ?Printf@mmTextNode@@QAAXPBDZZ 00532E20
 0001:00131E50       ?Update@mmTextNode@@UAEXXZ 00532E50
 0001:00131E80       ?RenderText@mmTextNode@@QAEXPAVgfxBitmap@@PAUmmTextData@@HI@Z 00532E80
 0001:00132170       ?Cull@mmTextNode@@UAEXXZ   00533170
 0001:00132280       ??_GmmTextNode@@UAEPAXI@Z  00533280
 0001:001322B0       ??0mmNumberFont@@QAE@PAD@Z 005332B0
 0001:001322E0       ??1mmNumberFont@@QAE@XZ    005332E0
 0001:00132340       ?LoadFont@mmNumberFont@@QAEXPADHI@Z 00533340
 0001:001323B0       ?LoadLocFont@mmNumberFont@@QAEXPADPAULocString@@HI@Z 005333B0
 0001:00132420       ??0mmNumber@@QAE@XZ        00533420
 0001:00132440       ??1mmNumber@@UAE@XZ        00533440
 0001:00132450       ?Init@mmNumber@@QAEXPAVmmNumberFont@@MM@Z 00533450
 0001:00132470       ?SetString@mmNumber@@QAEXPAD@Z 00533470
 0001:001324A0       ?Printf@mmNumber@@QAAXPBDZZ 005334A0
 0001:001324C0       ?Update@mmNumber@@UAEXXZ   005334C0
 0001:001324E0       ?Cull@mmNumber@@UAEXXZ     005334E0
 0001:001325C0       nullsub_259                005335C0
 0001:001325D0       ??_GmmNumber@@UAEPAXI@Z    005335D0
 0001:00132600       ??0asMeshSetForm@@QAE@XZ   00533600
 0001:00132660       ?SetShape@asMeshSetForm@@QAEXPAD0_NPAVVector3@@@Z 00533660
 0001:00132770       ?SetZRead@asMeshSetForm@@QAEX_N@Z 00533770
 0001:00132790       ?SetZWrite@asMeshSetForm@@QAEX_N@Z 00533790
 0001:001327B0       ?EnableLighting@asMeshSetForm@@QAEX_N@Z 005337B0
 0001:001327D0       ?EnableAlpha@asMeshSetForm@@QAEX_N@Z 005337D0
 0001:001327F0       ?Update@asMeshSetForm@@UAEXXZ 005337F0
 0001:00132810       ?Cull@asMeshSetForm@@UAEXXZ 00533810
 0001:001329A0       ??_EasMeshSetForm@@UAEPAXI@Z 005339A0
 0001:001329D0       ??1asMeshSetForm@@UAE@XZ   005339D0
 0001:001329E0       ??0mmVehicleForm@@QAE@XZ   005339E0
 0001:00132AA0       ??1mmVehicleForm@@UAE@XZ   00533AA0
 0001:00132B50       ?LoadAllModLOD@mmVehicleForm@@AAEXPAD@Z 00533B50
 0001:00132BF0       ?SetShape@mmVehicleForm@@QAEXPAD00PAVVector3@@@Z 00533BF0
 0001:00133040       ?Update@mmVehicleForm@@UAEXXZ 00534040
 0001:00133070       ?Cull@mmVehicleForm@@UAEXXZ 00534070
 0001:001333E0       nullsub_56                 005343E0
 0001:001333F0       ??_GmmVehicleForm@@UAEPAXI@Z 005343F0
 0001:00133450       ?Init@mmMouseSteerBar@@QAEXMMPAM@Z 00534450
 0001:001334D0       ?Update@mmMouseSteerBar@@UAEXXZ 005344D0
 0001:00133500       ?Cull@mmMouseSteerBar@@UAEXXZ 00534500
 0001:00133580       ??_GmmMouseSteerBar@@UAEPAXI@Z 00534580
 0001:001335B0       ??0mmDamage@@QAE@XZ        005345B0
 0001:001335C0       ??1mmDamage@@QAE@XZ        005345C0
 0001:001335D0       ?Init@mmDamage@@QAEXPAVmodStatic@@@Z 005345D0
 0001:001335E0       ?Reset@mmDamage@@QAEXH@Z   005345E0
 0001:001335F0       ?Apply@mmDamage@@QAEXAAVVector3@@M@Z 005345F0
 0001:00133600       ?GetLocTime@@YAPADM@Z      00534600
 0001:001336B0       ?MyLoadStringA@@YGHPAUHINSTANCE__@@IPADH@Z 005346B0
 0001:00133790       ?AngelReadString@@YAPAULocString@@I@Z 00534790
 0001:00133850       ?Path@aiMap@@QAEPAVaiPath@@H@Z 00534850
 0001:00133880       ?Intersection@aiMap@@QAEPAVaiIntersection@@H@Z 00534880
 0001:001338B0       ?Vehicle@aiMap@@QAEPAVaiVehicleAmbient@@H@Z 005348B0
 0001:001338F0       ?Police@aiMap@@QAEPAVaiPoliceOfficer@@H@Z 005348F0
 0001:00133940       ?Opponent@aiMap@@QAEPAVaiRouteRacer@@H@Z 00534940
 0001:00133990       ?CTFOpponent@aiMap@@QAEPAVaiCTFRacer@@H@Z 00534990
 0001:001339E0       ?Hookman@aiMap@@QAEPAVmcHookman@@H@Z 005349E0
 0001:00133A30       ?CableCar@aiMap@@QAEPAVaiCableCar@@H@Z 00534A30
 0001:00133A70       ?Subway@aiMap@@QAEPAVaiSubway@@H@Z 00534A70
 0001:00133AB0       ?Pedestrian@aiMap@@QAEPAVaiPedestrian@@H@Z 00534AB0
 0001:00133AF0       ?Player@aiMap@@QAEPAVaiVehiclePlayer@@H@Z 00534AF0
 0001:00133B30       ??0aiMap@@QAE@XZ           00534B30
 0001:00133BB0       ??1aiMap@@UAE@XZ           00534BB0
 0001:00133C10       ?Clean@aiMap@@QAEXXZ       00534C10
 0001:00133F60       ?InitRouting@aiMap@@QAEXXZ 00534F60
 0001:00133FC0       ?Init@aiMap@@QAEXPAD00ABUdgStatePack@@HPAPAVvehCar@@_N@Z 00534FC0
 0001:00134DF0       ?SaveBinary@aiMap@@QAEXPAD0@Z 00535DF0
 0001:00134EE0       ?ReadBinary@aiMap@@QAEXPAD0@Z 00535EE0
 0001:001354A0       ?MapRoadToRooms@aiMap@@AAEXPAVaiPath@@W4aiMapCompTypes@@@Z 005364A0
 0001:00135A30       ?Reset@aiMap@@UAEXXZ       00536A30
 0001:00135E50       ?Update@aiMap@@UAEXXZ      00536E50
 0001:00136410       ?StopRoadTraffic@aiMap@@AAEX_N@Z 00537410
 0001:001364E0       ?UpdatePaused@aiMap@@UAEXXZ 005374E0
 0001:001364F0       ?Cull@aiMap@@UAEXXZ        005374F0
 0001:00136500       ?DrawNextVisibleAmbient@aiMap@@QAEXXZ 00537500
 0001:00136510       ?DrawX@aiMap@@QAEXAAVVector3@@@Z 00537510
 0001:00136520       ?AllwaysGreen@aiMap@@QAEXXZ 00537520
 0001:00136560       ?AllwaysRed@aiMap@@QAEXXZ  00537560
 0001:001365A0       ?DrawAppRoads@aiMap@@QAEXXZ 005375A0
 0001:001365C0       ?DrawMap@aiMap@@QAEXXZ     005375C0
 0001:001365E0       ?DrawPathIds@aiMap@@QAEXXZ 005375E0
 0001:00136600       ?MapComponentType@aiMap@@QAEHHPAH@Z 00537600
 0001:00136680       ?MapComponent@aiMap@@QAEHABVVector3@@PAF1F@Z 00537680
 0001:001367B0       ?PositionToAIMapComp@aiMap@@QAEHABVVector3@@PAF11F@Z 005377B0
 0001:00136AA0       ?MapComponent@aiMap@@QAEHABVVector3@@PAF1FF@Z 00537AA0
 0001:00136C70       ?CoreMapComponent@aiMap@@QAEHABVVector3@@PAF1FF@Z 00537C70
 0001:00136E00       ?DetermineRoadPosInfo@aiMap@@QAEHABVMatrix34@@PAVaiRailSet@@PAFPAM23HH@Z 00537E00
 0001:00136F30       ?FindAmbAppRoad@aiMap@@QAEHH@Z 00537F30
 0001:00136F60       ?FindPedAppRoad@aiMap@@QAEHH@Z 00537F60
 0001:00136F90       ?PredictIntersectionPath@aiMap@@QAEPAVaiPath@@HABVMatrix34@@HPA_N@Z 00537F90
 0001:00137280       ?GetPathFromID@aiMap@@QAEPAVaiPath@@H@Z 00538280
 0001:001372C0       ?PredictAmbIntersectionPath@aiMap@@QAEPAVaiPath@@HABVMatrix34@@@Z 005382C0
 0001:00137530       ?PredictAmbFreewayIntersectionPath@aiMap@@QAEPAVaiPath@@HABVMatrix34@@@Z 00538530
 0001:00137840       ?Dump@aiMap@@QAEXXZ        00538840
 0001:00137960       ?NumCars@aiMap@@AAEHHMM@Z  00538960
 0001:00137990       ?FindRoad@aiMap@@AAEHPAVCArrayList@@H@Z 00538990
 0001:001379D0       ?FindInt@aiMap@@AAEHPAFHH@Z 005389D0
 0001:00137A10       ?ChooseNextRandomLink@aiMap@@QAEHPAVaiRailSet@@@Z 00538A10
 0001:00137BD0       ?ChooseNextLeftStraightLink@aiMap@@QAEHPAVaiRailSet@@@Z 00538BD0
 0001:00137EC0       ?ChooseNextRightLink@aiMap@@QAEHPAVaiRailSet@@@Z 00538EC0
 0001:00137FA0       ?ChooseNextRightStraightLink@aiMap@@QAEHPAVaiRailSet@@@Z 00538FA0
 0001:001382B0       ?ChooseNextStraightLink@aiMap@@QAEHPAVaiRailSet@@@Z 005392B0
 0001:001386A0       ?ChooseStraightLinkAt4Way@aiMap@@QAEHPAVaiRailSet@@@Z 005396A0
 0001:00138750       ?ChooseNextLaneLink@aiMap@@QAEHPAVaiRailSet@@@Z 00539750
 0001:00138870       ?ChooseNextFreewayLink@aiMap@@QAEHPAVaiRailSet@@@Z 00539870
 0001:001389A0       ?ChooseNextRightStraightFreewayLink@aiMap@@QAEHPAVaiRailSet@@@Z 005399A0
 0001:00138A20       ?AdjustPedestrians@aiMap@@AAEXHHH@Z 00539A20
 0001:00138CF0       ?ClearPeds@aiMap@@QAEXPAVaiPath@@@Z 00539CF0
 0001:00138D30       ?AddPedestrian@aiMap@@QAEXPAVaiPedestrian@@@Z 00539D30
 0001:00138D70       ?RemovePedestrian@aiMap@@QAEXPAVaiPedestrian@@@Z 00539D70
 0001:00138DD0       ?AdjustAmbients@aiMap@@AAEXHHH@Z 00539DD0
 0001:001395B0       ?AddAmbient@aiMap@@QAEXPAVaiVehicleSpline@@@Z 0053A5B0
 0001:00139600       ?RemoveAmbient@aiMap@@QAEXPAVaiVehicleSpline@@@Z 0053A600
 0001:00139680       ?DetRdSegBetweenInts@aiMap@@QAEPAVaiPath@@PAVaiIntersection@@0PA_N@Z 0053A680
 0001:00139730       ?DetRdSegBetweenInts@aiMap@@QAEPAVaiPath@@HH@Z 0053A730
 0001:00139760       ?GoodRoadForCopStartPos@aiMap@@QAEHH@Z 0053A760
 0001:001397A0       ?CalcRoute@aiMap@@QAEXABVMatrix34@@ABVVector3@@1PAF2FF_N@Z 0053A7A0
 0001:0013A560       ?AddRoutingNode@aiMap@@QAEXH@Z 0053B560
 0001:0013A5D0       ?RemoveRoutingNode@aiMap@@QAEXH@Z 0053B5D0
 0001:0013A640       ?AddPlayer@aiMap@@QAEHPAVvehCar@@@Z 0053B640
 0001:0013A700       ?RemovePlayer@aiMap@@QAEHPAVvehCar@@@Z 0053B700
 0001:0013A7B0       ?SetWaypoints@aiMap@@QAEXPAVVector4@@HH@Z 0053B7B0
 0001:0013A860       ?DrawFinalCheckPoint@aiMap@@QAEXXZ 0053B860
 0001:0013A870       ?TestProbes@aiMap@@QAEXH@Z 0053B870
 0001:0013AC70       ??_GaiMap@@UAEPAXI@Z       0053BC70
 0001:0013ACA0       ??_EaiVehicleAmbient@@QAEPAXI@Z 0053BCA0
 0001:0013AD00       ??_EaiPoliceOfficer@@QAEPAXI@Z 0053BD00
 0001:0013AD60       ??_EaiRouteRacer@@QAEPAXI@Z 0053BD60
 0001:0013ADC0       ??_EaiPedestrian@@QAEPAXI@Z 0053BDC0
 0001:0013AE20       ??_EmcHookman@@QAEPAXI@Z   0053BE20
 0001:0013AE80       ??_ECArrayList@@QAEPAXI@Z  0053BE80
 0001:0013AEE0       ??_EaiSubway@@QAEPAXI@Z    0053BEE0
 0001:0013AF40       ??_EaiCableCar@@QAEPAXI@Z  0053BF40
 0001:0013AFA0       ??_EaiCTFRacer@@UAEPAXI@Z  0053BFA0
 0001:0013B000       ?Road@aiIntersection@@QAEPAVaiPath@@H@Z 0053C000
 0001:0013B030       ??0CArrayList@@QAE@XZ      0053C030
 0001:0013B040       ??0aiTrafficLightSet@@QAE@PAVaiIntersection@@@Z 0053C040
 0001:0013B180       ?SetFourWay@aiTrafficLightSet@@QAEXXZ 0053C180
 0001:0013B440       ??1aiTrafficLightSet@@UAE@XZ 0053C440
 0001:0013B460       ?Reset@aiTrafficLightSet@@UAEXXZ 0053C460
 0001:0013B4B0       ?Update@aiTrafficLightSet@@UAEXXZ 0053C4B0
 0001:0013B6F0       ?Init@aiTrafficLightInstance@@UAEHPADAAVVector3@@1H0@Z 0053C6F0
 0001:0013B960       ?Draw@aiTrafficLightInstance@@UAEXH@Z 0053C960
 0001:0013BA70       ?DrawGlow@aiTrafficLightInstance@@UAEXXZ 0053CA70
 0001:0013BD20       ??_GaiTrafficLightSet@@UAEPAXI@Z 0053CD20
 0001:0013BD50       ?SizeOf@aiTrafficLightInstance@@UAEIXZ 0053CD50
 0001:0013BD60       ??0aiPedAudio@@QAE@XZ      0053CD60
 0001:0013BD80       ??1aiPedAudio@@UAE@XZ      0053CD80
 0001:0013BD90       ?LoadFemaleVoices@aiPedAudio@@QAE_NPAD_N@Z 0053CD90
 0001:0013BE00       ?LoadMaleVoices@aiPedAudio@@QAE_NPAD_N@Z 0053CE00
 0001:0013BE70       ?SetCSVCatString@aiPedAudio@@SAXPAD@Z 0053CE70
 0001:0013BEA0       ?LoadNumFemaleChoices@aiPedAudio@@SAXPAD@Z 0053CEA0
 0001:0013BEE0       ?LoadNumMaleChoices@aiPedAudio@@SAXPAD@Z 0053CEE0
 0001:0013C040       ??0aiRouteRacer@@QAE@XZ    0053D040
 0001:0013C050       ??1aiRouteRacer@@QAE@XZ    0053D050
 0001:0013C060       ?Init@aiRouteRacer@@QAEXHPAD@Z 0053D060
 0001:0013C390       ?Reset@aiRouteRacer@@QAEXXZ 0053D390
 0001:0013C3B0       ?Update@aiRouteRacer@@QAEXXZ 0053D3B0
 0001:0013C4B0       ?DriveRoute@aiRouteRacer@@AAEXXZ 0053D4B0
 0001:0013C6B0       ?Disabled@aiRouteRacer@@AAEXXZ 0053D6B0
 0001:0013C6E0       ?Finished@aiRouteRacer@@QAEHXZ 0053D6E0
 0001:0013C900       ?DrawRouteThroughTraffic@aiRouteRacer@@QAEXXZ 0053D900
 0001:0013C910       ??0aiPoliceOfficer@@QAE@XZ 0053D910
 0001:0013C920       ??1aiPoliceOfficer@@QAE@XZ 0053D920
 0001:0013C930       ?Init@aiPoliceOfficer@@QAEXH@Z 0053D930
 0001:0013CAA0       ?Reset@aiPoliceOfficer@@QAEXXZ 0053DAA0
 0001:0013CBF0       ?StartSiren@aiPoliceOfficer@@QAEXXZ 0053DBF0
 0001:0013CC40       ?StopSiren@aiPoliceOfficer@@QAEXXZ 0053DC40
 0001:0013CC70       ?Update@aiPoliceOfficer@@QAEXXZ 0053DC70
 0001:0013CFD0       ?DetectPerpetrator@aiPoliceOfficer@@AAEXXZ 0053DFD0
 0001:0013D2A0       ?Fov@aiPoliceOfficer@@AAEHPAVvehCar@@@Z 0053E2A0
 0001:0013D360       ?Speeding@aiPoliceOfficer@@AAEHPAVvehCar@@@Z 0053E360
 0001:0013D370       ?Collision@aiPoliceOfficer@@AAEHPAVvehCar@@@Z 0053E370
 0001:0013D390       ?HitMe@aiPoliceOfficer@@AAEHPAVvehCar@@@Z 0053E390
 0001:0013D3B0       ?Stopped@aiPoliceOfficer@@AAEHPAVvehCar@@@Z 0053E3B0
 0001:0013D3E0       ?IsPerpACop@aiPoliceOfficer@@AAEHPAVvehCar@@@Z 0053E3E0
 0001:0013D3F0       ?OffRoad@aiPoliceOfficer@@AAEHPAVvehCar@@@Z 0053E3F0
 0001:0013D400       ?InPersuit@aiPoliceOfficer@@QAEHXZ 0053E400
 0001:0013D410       ?FollowPerpetrator@aiPoliceOfficer@@AAEXXZ 0053E410
 0001:0013D580       ?ApprehendPerpetrator@aiPoliceOfficer@@AAEXXZ 0053E580
 0001:0013D700       ?Barricade@aiPoliceOfficer@@AAEXXZ 0053E700
 0001:0013D710       ?Push@aiPoliceOfficer@@AAEXXZ 0053E710
 0001:0013DA60       ?Block@aiPoliceOfficer@@AAEXXZ 0053EA60
 0001:0013E170       ?PerpEscapes@aiPoliceOfficer@@QAEX_N@Z 0053F170
 0001:0013E1E0       ?DrawId@aiPoliceOfficer@@QAEXXZ 0053F1E0
 0001:0013E1F0       ?DrawRouteThroughTraffic@aiPoliceOfficer@@QAEXXZ 0053F1F0
 0001:0013E320       ??0aiVehiclePlayer@@QAE@XZ 0053F320
 0001:0013E340       ??1aiVehiclePlayer@@QAE@XZ 0053F340
 0001:0013E350       ?Attach@aiVehiclePlayer@@QAEXPAVvehCar@@@Z 0053F350
 0001:0013E360       ?Reset@aiVehiclePlayer@@UAEXXZ 0053F360
 0001:0013E420       ?Update@aiVehiclePlayer@@UAEXXZ 0053F420
 0001:0013E540       ?CurrentRoadIdx@aiVehiclePlayer@@UAEHPAPAVaiPath@@QA_NPAH@Z 0053F540
 0001:0013E5B0       ?CurrentRdVert@aiVehiclePlayer@@UAEHXZ 0053F5B0
 0001:0013E5C0       ?DrawId@aiVehiclePlayer@@UAEXXZ 0053F5C0
 0001:0013E5D0       ?InAccident@aiObstacle@@UAEHXZ 0053F5D0
 0001:0013E5E0       ?BreakThreshold@aiObstacle@@UAEMXZ 0053F5E0
 0001:0013E5F0       ?Drivable@aiObstacle@@UAEHXZ 0053F5F0
 0001:0013E600       ?Type@aiVehiclePlayer@@UAEHXZ 0053F600
 0001:0013E610       ?Speed@aiVehiclePlayer@@UAEMXZ 0053F610
 0001:0013E620       ?Position@aiVehiclePlayer@@UAEXAAVVector3@@@Z 0053F620
 0001:0013E650       ?GetMatrix@aiVehiclePlayer@@UAEAAVMatrix34@@XZ 0053F650
 0001:0013E660       ?FrontBumperDistance@aiVehiclePlayer@@UAEMXZ 0053F660
 0001:0013E680       ?BackBumperDistance@aiVehiclePlayer@@UAEMXZ 0053F680
 0001:0013E6A0       ?LSideDistance@aiVehiclePlayer@@UAEMXZ 0053F6A0
 0001:0013E6C0       ?RSideDistance@aiVehiclePlayer@@UAEMXZ 0053F6C0
 0001:0013E6E0       ?CurrentLane@aiVehiclePlayer@@UAEHXZ 0053F6E0
 0001:0013E6F0       ?CurrentRoadId@aiVehiclePlayer@@UAEHXZ 0053F6F0
 0001:0013E700       ??0aiCableCar@@QAE@XZ      0053F700
 0001:0013E780       ??1aiCableCar@@QAE@XZ      0053F780
 0001:0013E7E0       ?Init@aiCableCar@@QAEXPADHHF@Z 0053F7E0
 0001:0013E990       ?Reset@aiCableCar@@UAEXXZ  0053F990
 0001:0013EBD0       ?Update@aiCableCar@@UAEXXZ 0053FBD0
 0001:0013ECD0       ?DetermineNextLink@aiCableCar@@AAE_NPAVaiPath@@PAPAV2@FPAF@Z 0053FCD0
 0001:0013EF50       ?SolvePositionAndOrientation@aiCableCar@@AAEXXZ 0053FF50
 0001:0013F580       ?SolveVelocity@aiCableCar@@AAEXXZ 00540580
 0001:0013F7B0       ?CheckForObstacles@aiCableCar@@AAE_NPAM@Z 005407B0
 0001:0013FA20       ?OkayToEnterIntersection@aiCableCar@@AAE_NM@Z 00540A20
 0001:0013FB90       ?DistanceToIntersection@aiCableCar@@AAEMXZ 00540B90
 0001:0013FBF0       ?SolveRailType@aiCableCar@@AAEXXZ 00540BF0
 0001:001400E0       ?CurrentRoadIdx@aiCableCar@@UAEHPAPAVaiPath@@QA_NPAH@Z 005410E0
 0001:001401F0       ?CurrentRdVert@aiCableCar@@UAEHXZ 005411F0
 0001:00140210       ?UpdateObstacleMap@aiCableCar@@AAEXXZ 00541210
 0001:001404D0       ?DetermineSister@aiCableCar@@QAEXXZ 005414D0
 0001:001405A0       ?DrawId@aiCableCar@@UAEXXZ 005415A0
 0001:001405B0       ?GetMatrix@aiCableCarInstance@@UAEABVMatrix34@@AAV2@@Z 005415B0
 0001:001405C0       ?SetMatrix@aiCableCarInstance@@UAEXABVMatrix34@@@Z 005415C0
 0001:001405E0       ?GetVelocity@aiCableCarInstance@@UAEABVVector3@@XZ 005415E0
 0001:00140650       ?GetPosition@aiCableCarInstance@@UAEABVVector3@@XZ 00541650
 0001:00140660       ?SizeOf@aiCableCarInstance@@UAEIXZ 00541660
 0001:00140670       ?ImpactCB@aiCableCarInstance@@UAEXPAVdgHitBangerInstance@@@Z 00541670
 0001:00140680       ?Draw@aiCableCarInstance@@UAEXH@Z 00541680
 0001:00140770       ??LVector3@@QBE?AV0@ABV0@@Z 00541770
 0001:001407D0       ?Type@aiCableCar@@UAEHXZ   005417D0
 0001:001407E0       ?Speed@aiCableCar@@UAEMXZ  005417E0
 0001:001407F0       ?CurrentLane@aiCableCar@@UAEHXZ 005417F0
 0001:00140800       ?FrontBumperDistance@aiCableCar@@UAEMXZ 00541800
 0001:00140810       ?BackBumperDistance@aiCableCar@@UAEMXZ 00541810
 0001:00140820       ?LSideDistance@aiCableCar@@UAEMXZ 00541820
 0001:00140830       ?RSideDistance@aiCableCar@@UAEMXZ 00541830
 0001:00140840       ?Position@aiCableCar@@UAEXAAVVector3@@@Z 00541840
 0001:00140860       ?GetMatrix@aiCableCar@@UAEAAVMatrix34@@XZ 00541860
 0001:00140870       ?CurrentRoadId@aiCableCar@@UAEHXZ 00541870
 0001:00140880       ??0dgUnhitBangerInstance@@QAE@XZ 00541880
 0001:001408A0       ??1dgUnhitYBangerInstance@@QAE@XZ 005418A0
 0001:001408B0       ??1dgUnhitBangerInstance@@QAE@XZ 005418B0
 0001:001408C0       nullsub_245                005418C0
 0001:001408D0       ??0aiSubway@@QAE@XZ        005418D0
 0001:001409F0       ??1aiSubway@@QAE@XZ        005419F0
 0001:00140A80       ?Init@aiSubway@@QAEXPADHHHHHPAV1@1@Z 00541A80
 0001:00140C50       ?Reset@aiSubway@@UAEXXZ    00541C50
 0001:00140F60       ?Update@aiSubway@@UAEXXZ   00541F60
 0001:00141060       ?DetermineNextLink@aiSubway@@AAE_NPAVaiPath@@PAPAV2@@Z 00542060
 0001:00141160       ?SolvePositionAndOrientation@aiSubway@@AAEXXZ 00542160
 0001:001417B0       ?SolveVelocity@aiSubway@@AAEXXZ 005427B0
 0001:001419A0       ?ReverseDirection@aiSubway@@AAEXXZ 005429A0
 0001:00141A20       ?OkayToEnterIntersection@aiSubway@@AAE_NM@Z 00542A20
 0001:00141AF0       ?DistanceToIntersection@aiSubway@@AAEMXZ 00542AF0
 0001:00141B90       ?SolveRailType@aiSubway@@AAEXXZ 00542B90
 0001:001424F0       ?CurrentRoadIdx@aiSubway@@UAEHPAPAVaiPath@@QA_NPAH@Z 005434F0
 0001:00142600       ?CurrentRdVert@aiSubway@@UAEHXZ 00543600
 0001:00142620       ?UpdateObstacleMap@aiSubway@@AAEXXZ 00543620
 0001:00142850       ?ComputeXZCurve@aiSubway@@AAEXAAVVector3@@000@Z 00543850
 0001:00142A20       ?SolveXZCurve@aiSubway@@AAEXAAVVector3@@0M@Z 00543A20
 0001:00142AD0       ?DrawId@aiSubway@@UAEXXZ   00543AD0
 0001:00142AE0       ?GetMatrix@aiSubwayInstance@@UAEABVMatrix34@@AAV2@@Z 00543AE0
 0001:00142AF0       ?SetMatrix@aiSubwayInstance@@UAEXABVMatrix34@@@Z 00543AF0
 0001:00142B10       ?GetVelocity@aiSubwayInstance@@UAEABVVector3@@XZ 00543B10
 0001:00142B70       ?GetPosition@aiSubwayInstance@@UAEABVVector3@@XZ 00543B70
 0001:00142B80       ?SizeOf@aiSubwayInstance@@UAEIXZ 00543B80
 0001:00142B90       ?ImpactCB@aiSubwayInstance@@UAEXPAVdgHitBangerInstance@@@Z 00543B90
 0001:00142BA0       ?Draw@aiSubwayInstance@@UAEXH@Z 00543BA0
 0001:00142C90       ?Type@aiSubway@@UAEHXZ     00543C90
 0001:00142CA0       ?Speed@aiSubway@@UAEMXZ    00543CA0
 0001:00142CB0       ?CurrentLane@aiSubway@@UAEHXZ 00543CB0
 0001:00142CC0       ?FrontBumperDistance@aiSubway@@UAEMXZ 00543CC0
 0001:00142CD0       ?BackBumperDistance@aiSubway@@UAEMXZ 00543CD0
 0001:00142CE0       ?LSideDistance@aiSubway@@UAEMXZ 00543CE0
 0001:00142CF0       ?RSideDistance@aiSubway@@UAEMXZ 00543CF0
 0001:00142D00       ?Position@aiSubway@@UAEXAAVVector3@@@Z 00543D00
 0001:00142D20       ?GetMatrix@aiSubway@@UAEAAVMatrix34@@XZ 00543D20
 0001:00142D30       ?CurrentRoadId@aiSubway@@UAEHXZ 00543D30
 0001:00142D40       ??1CArrayList@@QAE@XZ      00543D40
 0001:00142D50       ?Append@CArrayList@@QAEXH@Z 00543D50
 0001:00142DB0       ?SaveBinary@CArrayList@@QAEXPAVStream@@@Z 00543DB0
 0001:00142DE0       ?ReadBinary@CArrayList@@QAEXPAVStream@@@Z 00543DE0
 0001:00142E40       ??0aiPath@@QAE@H@Z         00543E40
 0001:00142EE0       ??1aiPath@@QAE@XZ          00543EE0
 0001:00142EF0       ?Reset@aiPath@@QAEXXZ      00543EF0
 0001:00142F90       ?ResetObstacles@aiPath@@QAEXXZ 00543F90
 0001:00142FC0       ?UpdateAmbients@aiPath@@QAEXXZ 00543FC0
 0001:00143150       ?UpdatePedestrians@aiPath@@QAEXXZ 00544150
 0001:00143220       ?ResetVehicleReactTicks@aiPath@@QAEXH@Z 00544220
 0001:00143290       ?SidewalkSubSectionLength@aiPath@@QAEMHHF@Z 00544290
 0001:00143300       ?SidewalkVertice@aiPath@@QAEAAVVector3@@HF@Z 00544300
 0001:00143350       ?SaveBinary@aiPath@@QAEXPAVStream@@@Z 00544350
 0001:00143770       ?ReadBinary@aiPath@@QAEXPAVStream@@@Z 00544770
 0001:00144230       ?ReadShortcut@aiPath@@QAEXPAVStream@@H@Z 00545230
 0001:00144D00       ?ReverseDirection@aiPath@@QAEXXZ 00545D00
 0001:001450A0       ?SetCullroom@aiPath@@QAEXXZ 005460A0
 0001:001451D0       ?AddBangersToObsMap@aiPath@@QAEXXZ 005461D0
 0001:00145380       ?InitRoadTurns@aiPath@@QAEXXZ 00546380
 0001:00145BE0       ?CalcRoadTurns@aiPath@@QAEXAAVVector3@@_N@Z 00546BE0
 0001:00146060       ?AddVehicle@aiPath@@QAEXPAVaiObstacle@@HH@Z 00547060
 0001:001460B0       ?RemoveVehicle@aiPath@@QAEXPAVaiObstacle@@HH@Z 005470B0
 0001:00146140       ?AddBanger@aiPath@@QAEXPAVaiObstacle@@HH@Z 00547140
 0001:00146190       ?RemoveBanger@aiPath@@QAEXPAVaiObstacle@@HH@Z 00547190
 0001:00146220       ?AddPedestrian@aiPath@@QAEXPAVaiObstacle@@HH@Z 00547220
 0001:00146270       ?RemovePedestrian@aiPath@@QAEXPAVaiObstacle@@HH@Z 00547270
 0001:00146300       ?AllwaysStop@aiPath@@QAEXH@Z 00547300
 0001:00146320       ?AllwaysGo@aiPath@@QAEXH@Z 00547320
 0001:00146340       ?CenterLength@aiPath@@QAEMHH@Z 00547340
 0001:00146360       ?SubSectionLength@aiPath@@QAEMHHH@Z 00547360
 0001:001463A0       ?GetHeading@aiPath@@QAEMMHH@Z 005473A0
 0001:001464E0       ?SubSectionDist@aiPath@@QAEMMHH@Z 005474E0
 0001:001465D0       ?CenterIndex@aiPath@@QAEHM@Z 005475D0
 0001:00146660       ?Position@aiPath@@QAEXMAAVVector3@@HH@Z 00547660
 0001:00146670       ?CenterPosition@aiPath@@QAEXMAAVVector3@@@Z 00547670
 0001:00146740       ?Index@aiPath@@QAEHMHH@Z   00547740
 0001:00146820       ?Index@aiPath@@QAEHABVVector3@@@Z 00547820
 0001:00146900       ?Lane@aiPath@@QAEHAAVVector3@@H@Z 00547900
 0001:00146A50       ?RemAmbPlayer@aiPath@@QAEDH@Z 00547A50
 0001:00146AB0       ?AddAmbPlayer@aiPath@@QAEDH@Z 00547AB0
 0001:00146B10       ?RemPedPlayer@aiPath@@QAEDH@Z 00547B10
 0001:00146B70       ?AddPedPlayer@aiPath@@QAEDH@Z 00547B70
 0001:00146BD0       ?ClearPeds@aiPath@@QAEXXZ  00547BD0
 0001:00146C00       ?ClearAmbients@aiPath@@QAEXXZ 00547C00
 0001:00146DC0       ?DetermineRoadPosInfo@aiPath@@QAEXABVMatrix34@@PAFPAM121@Z 00547DC0
 0001:00146FA0       ?RoadDistance@aiPath@@QAEXABVVector3@@PAFPAMF2H@Z 00547FA0
 0001:00147100       ?IsSharpTurn@aiPath@@QAEHH_N@Z 00548100
 0001:00147160       ?SharpTurnVertIndex@aiPath@@QAEHH_N@Z 00548160
 0001:001471A0       ?SharpTurnSetback@aiPath@@QAEMH_N@Z 005481A0
 0001:001471D0       ?SharpTurnAngle@aiPath@@QAEMH_N@Z 005481D0
 0001:00147200       ?SharpTurnDir@aiPath@@QAEMH_N@Z 00548200
 0001:00147230       ?SharpTurnRadius@aiPath@@QAEMH_N@Z 00548230
 0001:00147260       ?SharpTurnCenter@aiPath@@QAEAAVVector3@@H_N@Z 00548260
 0001:00147290       ?SharpTurnIntersection@aiPath@@QAEAAVVector3@@H_N@Z 00548290
 0001:001472C0       ?SharpTurnStartDir@aiPath@@QAEAAVVector3@@H_N@Z 005482C0
 0001:001472F0       ?SharpTurnEndDir@aiPath@@QAEAAVVector3@@H_N@Z 005482F0
 0001:00147320       ?Direction@aiPath@@QAE_NABVMatrix34@@@Z 00548320
 0001:00147370       ?IsPosOnRoad@aiPath@@QAEHABVVector3@@MPAM@Z 00548370
 0001:001475E0       ?RoadVertice@aiPath@@QAEHABVVector3@@H@Z 005485E0
 0001:00147780       ?RoadVertice@aiPath@@QAEHABVVector3@@HH@Z 00548780
 0001:00147850       ?CenterDist@aiPath@@QAEMABVVector3@@@Z 00548850
 0001:00147900       ?CenterDistance@aiPath@@QAEHABVVector3@@PAFPAM2@Z 00548900
 0001:00147A30       ?SubSectionPt@aiPath@@QAEXAAVVector3@@HHMH@Z 00548A30
 0001:00147AD0       ?SubSectionDir@aiPath@@QAEXAAVVector3@@HMH@Z 00548AD0
 0001:00147B70       ?IntersectionEntryPt@aiPath@@QAEXAAVVector3@@HMH@Z 00548B70
 0001:00147CC0       ?IntersectionEntryVector@aiPath@@QAEXAAVVector3@@MH@Z 00548CC0
 0001:00147D50       ?IntersectionExitVector@aiPath@@QAEXAAVVector3@@MH@Z 00548D50
 0001:00147DE0       ?NumVehiclesAfterDist@aiPath@@QAEHHMH@Z 00548DE0
 0001:00147E70       ?PopAmbVehicle@aiPath@@QAEXPAVaiVehicleSpline@@HH@Z 00548E70
 0001:00148060       ?PushAmbVehicle@aiPath@@QAEXPAVaiVehicleSpline@@HH@Z 00549060
 0001:001481C0       ?AddAmbVehicle@aiPath@@QAEXPAVaiVehicleSpline@@HMH@Z 005491C0
 0001:00148540       ?RemoveAmbVehicle@aiPath@@QAEHPAVaiVehicleSpline@@HH@Z 00549540
 0001:00148770       ?RoadCapacity@aiPath@@QAEHPAVaiVehicleSpline@@HH@Z 00549770
 0001:001488D0       ?AddPedestrian@aiPath@@QAEXPAVaiPedestrian@@@Z 005498D0
 0001:00148910       ?RemovePedestrian@aiPath@@QAEXPAVaiPedestrian@@@Z 00549910
 0001:00148980       ?HasCableCarLine@aiPath@@QAE_NH@Z 00549980
 0001:001489B0       ?HasSubwayLine@aiPath@@QAE_NH@Z 005499B0
 0001:001489E0       ??0aiIntersection@@QAE@H@Z 005499E0
 0001:00148A00       ??1aiIntersection@@QAE@XZ  00549A00
 0001:00148A40       ?Init@aiIntersection@@QAEXXZ 00549A40
 0001:00148B20       ?Reset@aiIntersection@@QAEXXZ 00549B20
 0001:00148B40       ?AddRoad@aiIntersection@@QAEXPAVaiPath@@@Z 00549B40
 0001:00148BB0       ?SaveBinary@aiIntersection@@QAEXPAVStream@@@Z 00549BB0
 0001:00148C20       ?ReadBinary@aiIntersection@@QAEXPAVStream@@@Z 00549C20
 0001:00148D60       ?NumSources@aiIntersection@@QAEHXZ 00549D60
 0001:00148D90       ?NumSinks@aiIntersection@@QAEHXZ 00549D90
 0001:00148DD0       ?SetFourWay@aiIntersection@@QAEXXZ 00549DD0
 0001:00148DF0       ?Dump@aiIntersection@@QAEXXZ 00549DF0
 0001:00148E40       ?CreateRoadMap@aiIntersection@@QAEXXZ 00549E40
 0001:00149010       ?NumOneWays@aiIntersection@@QAEHXZ 0054A010
 0001:00149030       ?Path@aiIntersection@@QAEPAVaiPath@@H@Z 0054A030
 0001:00149060       ?NumAvailSinks@aiIntersection@@QAEHPAVaiPath@@@Z 0054A060
 0001:001490B0       ?AddVehicle@aiIntersection@@QAEXPAVaiObstacle@@@Z 0054A0B0
 0001:001490D0       ?RemoveVehicle@aiIntersection@@QAEXPAVaiObstacle@@@Z 0054A0D0
 0001:00149110       ?AddBanger@aiIntersection@@QAEXPAVaiObstacle@@@Z 0054A110
 0001:00149130       ?RemoveBanger@aiIntersection@@QAEXPAVaiObstacle@@@Z 0054A130
 0001:00149170       ?AddBangersToObsMap@aiIntersection@@QAEXXZ 0054A170
 0001:00149220       ?IsCableCarStart@aiIntersection@@QAE_NPAHPAF@Z 0054A220
 0001:001492B0       ?IsSubwayStart@aiIntersection@@QAE_NPAH00@Z 0054A2B0
 0001:00149340       ?IsSubwayEnd@aiIntersection@@QAE_NPAH@Z 0054A340
 0001:001493C0       ?AddToStopSignCntl@aiIntersection@@QAEXPAVaiVehicle@@@Z 0054A3C0
 0001:00149400       ?RemoveFromStopSignCntl@aiIntersection@@QAEXPAVaiVehicle@@@Z 0054A400
 0001:00149460       ?RemoveTotalFromStopSignCntl@aiIntersection@@QAEXPAVaiVehicle@@@Z 0054A460
 0001:001494E0       ?StopSignOkayToGo@aiIntersection@@QAE_NPAVaiVehicle@@@Z 0054A4E0
 0001:001495A0       ?StopSources@aiIntersection@@QAEXH@Z 0054A5A0
 0001:00149600       ??0mcHookman@@QAE@XZ       0054A600
 0001:00149610       ??1mcHookman@@QAE@XZ       0054A610
 0001:00149620       ?Init@mcHookman@@QAEXHPAD@Z 0054A620
 0001:001499F0       ?Reset@mcHookman@@QAEXXZ   0054A9F0
 0001:00149A10       ?Update@mcHookman@@QAEXXZ  0054AA10
 0001:00149B40       ?DriveCircuit@mcHookman@@AAEXXZ 0054AB40
 0001:00149C80       ?DriveToHideout@mcHookman@@AAEXXZ 0054AC80
 0001:00149E10       ?ReturnToCircuit@mcHookman@@AAEXXZ 0054AE10
 0001:00149F70       ?DrawRouteThroughTraffic@mcHookman@@QAEXXZ 0054AF70
 0001:00149F80       j_nullsub_246              0054AF80
 0001:00149F90       nullsub_246                0054AF90
 0001:00149FA0       ??0aiPedestrian@@QAE@XZ    0054AFA0
 0001:0014A0C0       ??1aiPedestrian@@QAE@XZ    0054B0C0
 0001:0014A0D0       ?Init@aiPedestrian@@QAEXPADHH@Z 0054B0D0
 0001:0014A4D0       aiPedestrian_IsWoman       0054B4D0
 0001:0014A540       aiPedestrian_AreStringsEqual 0054B540
 0001:0014A5C0       ?Reset@aiPedestrian@@QAEXPAVaiPath@@H@Z 0054B5C0
 0001:0014A9C0       ?Update@aiPedestrian@@QAEXXZ 0054B9C0
 0001:0014AFA0       ?PreCrossStreet@aiPedestrian@@AAEXXZ 0054BFA0
 0001:0014B4F0       ?CrossStreet@aiPedestrian@@AAEXXZ 0054C4F0
 0001:0014B6F0       ?WaitCrossStreet@aiPedestrian@@AAEXXZ 0054C6F0
 0001:0014BCC0       ?Accident@aiPedestrian@@AAEHXZ 0054CCC0
 0001:0014BDB0       ?Wander@aiPedestrian@@AAEXXZ 0054CDB0
 0001:0014C100       ?Anticipate@aiPedestrian@@AAEXXZ 0054D100
 0001:0014C8D0       ?Avoid@aiPedestrian@@AAEXPAM@Z 0054D8D0
 0001:0014D650       ?TimeToCollision@aiPedestrian@@AAEMM@Z 0054E650
 0001:0014D680       ?DetectPlayerForwardCollision@aiPedestrian@@AAEHPAM0@Z 0054E680
 0001:0014D8C0       ?DetectPlayerAnticipate@aiPedestrian@@AAEHPAM0@Z 0054E8C0
 0001:0014DAE0       ?RoadDistance@aiPedestrian@@AAEMXZ 0054EAE0
 0001:0014E1D0       ?SolveRoadSegment@aiPedestrian@@AAEXM@Z 0054F1D0
 0001:0014E310       ?SetNextRoad@aiPedestrian@@AAEPAVaiPath@@XZ 0054F310
 0001:0014E340       ?UpcomingAccident@aiPedestrian@@AAEHXZ 0054F340
 0001:0014E390       ?PickNextRdSeg@aiPedestrian@@AAEPAVaiPath@@XZ 0054F390
 0001:0014E620       ?GetRoadToRight@aiPedestrian@@AAEPAVaiPath@@XZ 0054F620
 0001:0014E6A0       ?GetRoadToLeft@aiPedestrian@@AAEPAVaiPath@@XZ 0054F6A0
 0001:0014E720       ?DetectPlayerCollision@aiPedestrian@@AAEHPAM@Z 0054F720
 0001:0014E800       ?DetectBangerCollision@aiPedestrian@@AAEHPAPAVlvlInstance@@PAM@Z 0054F800
 0001:0014EA00       ?DetectPedCollision@aiPedestrian@@AAEHMPAPAV1@PAM@Z 0054FA00
 0001:0014EDE0       ?AvoidPlayer@aiPedestrian@@AAEXAAVVector3@@M@Z 0054FDE0
 0001:0014EE50       ?AvoidBanger@aiPedestrian@@AAEXPAVlvlInstance@@M@Z 0054FE50
 0001:0014EEC0       ?AvoidPedCollision@aiPedestrian@@AAEXPAV1@M@Z 0054FEC0
 0001:0014EF90       ?AvoidObstacle@aiPedestrian@@AAEXABVVector3@@M@Z 0054FF90
 0001:0014F400       ?SolveTargetPoint@aiPedestrian@@AAEXM@Z 00550400
 0001:0014F4A0       ?CalcCurve@aiPedestrian@@AAEXHHM@Z 005504A0
 0001:0014F9D0       ?ComputeCurve@aiPedestrian@@AAEXAAVVector3@@000@Z 005509D0
 0001:0014FBA0       ?SolvePosition@aiPedestrian@@AAEXAAVVector3@@M@Z 00550BA0
 0001:0014FBF0       ?Reset@aiPedestrian@@QAEXXZ 00550BF0
 0001:0014FC00       ?Stop@aiPedestrian@@QAEXXZ 00550C00
 0001:0014FC20       ?Go@aiPedestrian@@QAEXXZ   00550C20
 0001:0014FC40       ?Dump@aiPedestrian@@QAEXXZ 00550C40
 0001:0014FDE0       ?QuickDump@aiPedestrian@@QAEXXZ 00550DE0
 0001:0014FEA0       ?ReplayDebug@aiPedestrian@@QAEXXZ 00550EA0
 0001:0014FEB0       ?DrawDebug@aiPedestrian@@QAEXXZ 00550EB0
 0001:0014FEC0       ??0aiPoliceForce@@QAE@XZ   00550EC0
 0001:0014FEE0       ??1aiPoliceForce@@QAE@XZ   00550EE0
 0001:0014FEF0       ?Reset@aiPoliceForce@@QAEXXZ 00550EF0
 0001:0014FF30       ?Update@aiPoliceForce@@QAEXXZ 00550F30
 0001:0014FF40       ?Find@aiPoliceForce@@QAEHPAVvehCar@@0@Z 00550F40
 0001:0014FFA0       ?RegisterPerp@aiPoliceForce@@QAEHPAVvehCar@@0@Z 00550FA0
 0001:00150040       ?UnRegisterCop@aiPoliceForce@@QAEHPAVvehCar@@0@Z 00551040
 0001:00150120       ?State@aiPoliceForce@@QAEHPAVvehCar@@0M@Z 00551120
 0001:00150340       ??0aiVehicleAmbient@@QAE@XZ 00551340
 0001:00150370       ??1aiVehicleAmbient@@QAE@XZ 00551370
 0001:00150380       ?Init@aiVehicleAmbient@@QAEXPADH@Z 00551380
 0001:00150520       ?Reset@aiVehicleAmbient@@UAEXXZ 00551520
 0001:00150600       ?Update@aiVehicleAmbient@@UAEXXZ 00551600
 0001:00150950       ?ReplayDebug@aiVehicleAmbient@@UAEXXZ 00551950
 0001:001509C0       ?Impact@aiVehicleAmbient@@UAEXH@Z 005519C0
 0001:00150A60       ?DrawId@aiVehicleAmbient@@UAEXXZ 00551A60
 0001:00150A70       ?DrawBBox@aiVehicleAmbient@@QAEXF@Z 00551A70
 0001:00150A80       ?Dump@aiVehicleAmbient@@QAEXXZ 00551A80
 0001:00150BE0       ?CurrentLane@aiVehicleSpline@@UAEHXZ 00551BE0
 0001:00150BF0       ?CurrentRoadId@aiVehicleSpline@@UAEHXZ 00551BF0
 0001:00150C00       ?FrontBumperDistance@aiVehicleSpline@@UAEMXZ 00551C00
 0001:00150C10       ?BackBumperDistance@aiVehicleSpline@@UAEMXZ 00551C10
 0001:00150C20       ?LSideDistance@aiVehicleSpline@@UAEMXZ 00551C20
 0001:00150C30       ?RSideDistance@aiVehicleSpline@@UAEMXZ 00551C30
 0001:00150C40       ?Position@aiVehicleSpline@@UAEXAAVVector3@@@Z 00551C40
 0001:00150C70       ?Speed@aiVehicleSpline@@UAEMXZ 00551C70
 0001:00150C80       ?GetMatrix@aiVehicleSpline@@UAEAAVMatrix34@@XZ 00551C80
 0001:00150C90       ?GetAudImpactPtr@aiVehicleSpline@@UAEPAVAudImpact@@XZ 00551C90
 0001:00150CA0       ?PlayHorn@aiVehicleSpline@@UAEXMM@Z 00551CA0
 0001:00150CB0       ?StopVoice@aiVehicleSpline@@UAEXXZ 00551CB0
 0001:00150CC0       ?Type@aiVehicleAmbient@@UAEHXZ 00551CC0
 0001:00150D90       ??0aiVehicleInstance@@QAE@PAVaiVehicleSpline@@PAD@Z 00551D90
 0001:00151010       ?InitBreakable@aiVehicleInstance@@AAE_NPBD0H@Z 00552010
 0001:00151100       ?Reset@aiVehicleInstance@@UAEXXZ 00552100
 0001:00151110       ?SetColor@aiVehicleInstance@@QAEXXZ 00552110
 0001:00151160       ?Draw@aiVehicleInstance@@UAEXH@Z 00552160
 0001:00151870       ?DrawPart@aiVehicleInstance@@QAEXAAVmodStatic@@ABVMatrix34@@PAVmodShader@@H@Z 00552870
 0001:00151930       ?DrawGlow@aiVehicleInstance@@UAEXXZ 00552930
 0001:00151CB0       ?DrawReflected@aiVehicleInstance@@UAEXM@Z 00552CB0
 0001:00151CC0       ?DrawShadow@aiVehicleInstance@@UAEXXZ 00552CC0
 0001:00151F30       ?DrawShadowMap@aiVehicleInstance@@UAEXXZ 00552F30
 0001:00151F40       ?GetBound@aiVehicleInstance@@UAEPBVphBound@@H@Z 00552F40
 0001:00151F50       ?GetEntity@aiVehicleInstance@@UAEPAVdgPhysEntity@@XZ 00552F50
 0001:00151F80       ?Detach@aiVehicleInstance@@UAEXXZ 00552F80
 0001:00151FB0       ?AttachEntity@aiVehicleInstance@@UAEPAVdgPhysEntity@@XZ 00552FB0
 0001:00152010       ?SetMatrix@aiVehicleInstance@@UAEXABVMatrix34@@@Z 00553010
 0001:00152020       ?GetMatrix@aiVehicleInstance@@UAEABVMatrix34@@AAV2@@Z 00553020
 0001:00152030       ?GetPosition@aiVehicleInstance@@UAEABVVector3@@XZ 00553030
 0001:00152060       ?SizeOf@aiVehicleInstance@@UAEIXZ 00553060
 0001:00152070       ??0aiVehicleActive@@QAE@XZ 00553070
 0001:001521B0       ??1aiVehicleActive@@UAE@XZ 005531B0
 0001:00152290       ?Reset@aiVehicleActive@@QAEXXZ 00553290
 0001:001522A0       ?Impact@aiVehicleActive@@SAXPAV1@PAUImpactCBData@@@Z 005532A0
 0001:00152430       ?GetInst@aiVehicleActive@@UAEPAVlvlInstance@@XZ 00553430
 0001:00152440       ?Attach@aiVehicleActive@@QAEXPAVaiVehicleInstance@@@Z 00553440
 0001:00152690       ?DetachMe@aiVehicleActive@@UAEXXZ 00553690
 0001:001526B0       ?Detach@aiVehicleActive@@QAEXXZ 005536B0
 0001:00152890       ?Update@aiVehicleActive@@UAEXXZ 00553890
 0001:00152960       ?PostUpdate@aiVehicleActive@@UAEXXZ 00553960
 0001:001529E0       ?BottomedOut@aiVehicleActive@@QAEHXZ 005539E0
 0001:00152A20       ?RequiresTerrainCollision@aiVehicleActive@@UAE_NXZ 00553A20
 0001:00152B20       ?UpdateDamage@aiVehicleActive@@QAEXXZ 00553B20
 0001:00152B30       ??0aiVehicleManager@@QAE@XZ 00553B30
 0001:00152C20       ??1aiVehicleManager@@UAE@XZ 00553C20
 0001:00152CE0       ?Init@aiVehicleManager@@QAEXPAD@Z 00553CE0
 0001:00152D60       ?Reset@aiVehicleManager@@UAEXXZ 00553D60
 0001:00152DC0       ?Attach@aiVehicleManager@@QAEPAVaiVehicleActive@@PAVaiVehicleInstance@@@Z 00553DC0
 0001:00152E30       ?Detach@aiVehicleManager@@QAEXPAVaiVehicleActive@@@Z 00553E30
 0001:00152EA0       ?Update@aiVehicleManager@@UAEXXZ 00553EA0
 0001:00152F80       ?GetData@aiVehicleInstance@@QAEPAVaiVehicleData@@XZ 00553F80
 0001:00152FA0       ?AddVehicleDataEntry@aiVehicleManager@@QAEHPAD@Z 00553FA0
 0001:001531E0       ?SaveEntry@aiVehicleManager@@QAEXXZ 005541E0
 0001:00153330       ??_GaiVehicleActive@@UAEPAXI@Z 00554330
 0001:00153360       ??1vehWheelCheap@@UAE@XZ   00554360
 0001:00153370       ??_GaiVehicleManager@@UAEPAXI@Z 00554370
 0001:001533A0       ??1aiVehicleData@@UAE@XZ   005543A0
 0001:001533B0       ?GetICS@aiVehicleActive@@UAEPAVphInertialCS@@XZ 005543B0
 0001:001533C0       ??0aiCTFRacer@@QAE@XZ      005543C0
 0001:00153410       ??1aiCTFRacer@@UAE@XZ      00554410
 0001:00153470       ?Init@aiCTFRacer@@QAEXHPAD@Z 00554470
 0001:00153510       ?Reset@aiCTFRacer@@QAEXXZ  00554510
 0001:00153550       ?DropFlag@aiCTFRacer@@QAEXHPBM@Z 00554550
 0001:00153580       ?Update@aiCTFRacer@@QAEXXZ 00554580
 0001:00153620       ?ReleaseFlag@aiCTFRacer@@QAEXXZ 00554620
 0001:00153630       ?PickupFlag@aiCTFRacer@@QAEXXZ 00554630
 0001:00153640       ?PreAquireFlag@aiCTFRacer@@AAEXXZ 00554640
 0001:001537E0       ?AquireFlag@aiCTFRacer@@AAEXXZ 005547E0
 0001:00153990       ?PreDeliverFlag@aiCTFRacer@@AAEXXZ 00554990
 0001:00153B00       ?DeliverFlag@aiCTFRacer@@AAEXXZ 00554B00
 0001:00153C00       ?DrawRouteThroughTraffic@aiCTFRacer@@QAEXXZ 00554C00
 0001:00153C10       ??_GaiCTFRacer@@UAEPAXI@Z  00554C10
 0001:00153C40       ??0aiRaceData@@QAE@PAD0PBUdgStatePack@@@Z 00554C40
 0001:00154830       ??1aiRaceData@@UAE@XZ      00555830
 0001:001548D0       ?SaveData@aiRaceData@@QAEXXZ 005558D0
 0001:00154BA0       ??_GaiRaceData@@UAEPAXI@Z  00555BA0
 0001:00154BD0       ??0aiCityData@@QAE@PAD0@Z  00555BD0
 0001:001550E0       ??1aiCityData@@UAE@XZ      005560E0
 0001:001551B0       ??_GaiCityData@@UAEPAXI@Z  005561B0
 0001:001551E0       ??0aiVehicle@@QAE@XZ       005561E0
 0001:001551F0       ??1aiVehicle@@QAE@XZ       005561F0
 0001:00155200       ?Init@aiVehicle@@QAEXH@Z   00556200
 0001:00155210       ?Reset@aiVehicle@@UAEXXZ   00556210
 0001:00155230       ?Update@aiVehicle@@UAEXXZ  00556230
 0001:00155250       ?PreAvoid@aiVehicle@@UAEXABVVector3@@0MAAV2@1@Z 00556250
 0001:00155850       ?IsBlockingTarget@aiVehicle@@UAEMABVVector3@@0MM@Z 00556850
 0001:00155D00       ?ReplayDebug@aiVehicle@@UAEXXZ 00556D00
 0001:00155D30       j_nullsub_247              00556D30
 0001:00155D40       nullsub_247                00556D40
 0001:00155D50       ??0aiRailSet@@QAE@XZ       00556D50
 0001:00155E10       ??1aiRailSet@@QAE@XZ       00556E10
 0001:00155E20       ?Reset@aiRailSet@@QAEXXZ   00556E20
 0001:00155E60       ?CalcRailPosition@aiRailSet@@QAEXAAVVector3@@M@Z 00556E60
 0001:001567A0       ?CalcRailPosOrient@aiRailSet@@QAEXAAVVector3@@0M@Z 005577A0
 0001:00157270       ?SolveTurnType@aiRailSet@@QAEHPAVaiPath@@0@Z 00558270
 0001:001573F0       ?CalcXZPosition@aiRailSet@@QAEXAAVVector3@@0000M@Z 005583F0
 0001:001575E0       ?CalcXZDirection@aiRailSet@@QAEXAAVVector3@@0000M@Z 005585E0
 0001:00157780       ?CalcXZPosOrient@aiRailSet@@QAEXAAVVector3@@00000M@Z 00558780
 0001:00157990       ?ComputeXZCurve@aiRailSet@@QAEXAAVVector3@@000@Z 00558990
 0001:00157B40       ?ComputeXZCurve@aiRailSet@@QAEXAAVVector3@@000AAVVector4@@1@Z 00558B40
 0001:00157D00       ?SolveXZCurve@aiRailSet@@QAEXAAVVector3@@0M@Z 00558D00
 0001:00157D80       ?SolveXZPosition@aiRailSet@@QAEXAAVVector3@@M@Z 00558D80
 0001:00157DC0       ?Dump@aiRailSet@@QAEXXZ    00558DC0
 0001:00157FB0       ?ReplayDebug@aiRailSet@@QAEXXZ 00558FB0
 0001:001582A0       ??0aiVehiclePhysics@@QAE@XZ 005592A0
 0001:00158340       ??0aiRouteNode@@QAE@XZ     00559340
 0001:00158350       ?Reset@aiRouteNode@@QAEXXZ 00559350
 0001:00158380       ??1aiVehiclePhysics@@QAE@XZ 00559380
 0001:001583E0       ?Init@aiVehiclePhysics@@QAEXHPADFH@Z 005593E0
 0001:001587A0       ?Reset@aiVehiclePhysics@@UAEXXZ 005597A0
 0001:001588A0       ?RegisterRoute@aiVehiclePhysics@@QAEXPAFFABVVector3@@1HMM_N22222MMMM@Z 005598A0
 0001:00159570       ?Mirror@aiVehiclePhysics@@QAEXPAVvehCar@@@Z 0055A570
 0001:00159740       ?DestMapComponent@aiVehiclePhysics@@AAEXABVVector3@@PAF1@Z 0055A740
 0001:001598E0       ?CheckForShortcut@aiVehiclePhysics@@AAEXXZ 0055A8E0
 0001:001598F0       ?DriveRoute@aiVehiclePhysics@@QAEXH@Z 0055A8F0
 0001:00159AD0       ?CurrentRoadIdx@aiVehiclePhysics@@UAEHPAPAVaiPath@@QA_NPAH@Z 0055AAD0
 0001:00159B50       ?InitShortcut@aiVehiclePhysics@@AAEXXZ 0055AB50
 0001:00159BE0       ?Shortcut@aiVehiclePhysics@@AAEXXZ 0055ABE0
 0001:00159DA0       ?Stop@aiVehiclePhysics@@AAEXXZ 0055ADA0
 0001:00159E80       ?InitForward@aiVehiclePhysics@@AAEXXZ 0055AE80
 0001:00159F50       ?Forward@aiVehiclePhysics@@AAEXXZ 0055AF50
 0001:0015A400       ?InitBackup@aiVehiclePhysics@@AAEXXZ 0055B400
 0001:0015A460       ?Backup@aiVehiclePhysics@@AAEXXZ 0055B460
 0001:0015A5B0       ?FinishedBackingUp@aiVehiclePhysics@@AAEXXZ 0055B5B0
 0001:0015A660       ?CalcSpeed@aiVehiclePhysics@@AAEXXZ 0055B660
 0001:0015A830       ?CalcRoadSpeed@aiVehiclePhysics@@AAEXXZ 0055B830
 0001:0015B080       ?CheckDistance@aiVehiclePhysics@@AAEMH@Z 0055C080
 0001:0015B0A0       ?SolveRoadTargetPoint@aiVehiclePhysics@@AAEXXZ 0055C0A0
 0001:0015B180       ?SolveShortcutTargetPoint@aiVehiclePhysics@@AAEXXZ 0055C180
 0001:0015B510       ?PlanRoute@aiVehiclePhysics@@AAEHXZ 0055C510
 0001:0015B7A0       ?StopRoadTraffic@aiVehiclePhysics@@QAEX_N@Z 0055C7A0
 0001:0015B860       ?LocateWayPtFromInt@aiVehiclePhysics@@AAEHH@Z 0055C860
 0001:0015BD40       ?LocateWayPtFromRoad@aiVehiclePhysics@@AAEHPAVaiPath@@@Z 0055CD40
 0001:0015C9F0       ?CalcRoute@aiVehiclePhysics@@AAEXXZ 0055D9F0
 0001:0015CBC0       ?DetermineBestRoute@aiVehiclePhysics@@AAEXXZ 0055DBC0
 0001:0015CD10       ?EnumRoutes@aiVehiclePhysics@@AAEXH@Z 0055DD10
 0001:0015D0C0       ?CalcObstacleAvoidPoints@aiVehiclePhysics@@AAEHPAVaiObstacle@@HHPAVVector3@@PAPAV2@PAF3@Z 0055E0C0
 0001:0015D4D0       ?EnumTargets@aiVehiclePhysics@@AAEXAAVVector3@@PAVaiObstacle@@HHHHHHPAV2@PAPAV3@PAF4PAH@Z 0055E4D0
 0001:0015DC50       ?CalcSharpTurnTarget@aiVehiclePhysics@@AAEHAAHHAAVVector3@@@Z 0055EC50
 0001:0015E800       ?SaveTurnTarget@aiVehiclePhysics@@AAEXHH@Z 0055F800
 0001:0015E9B0       ?InitRoadTurns@aiVehiclePhysics@@AAEXXZ 0055F9B0
 0001:0015EB60       ?CalcRoadTurns@aiVehiclePhysics@@AAEXXZ 0055FB60
 0001:0015F0B0       ?CalcTurnIntersection@aiVehiclePhysics@@AAEMH@Z 005600B0
 0001:0015F900       ?CalcCurrentMaxWidthAdjustment@aiVehiclePhysics@@AAEMH@Z 00560900
 0001:0015FB50       ?CalcCurrentRdOffset@aiVehiclePhysics@@AAEMH@Z 00560B50
 0001:0015FDC0       ?CalcNextMaxWidthAdjustment@aiVehiclePhysics@@AAEMH@Z 00560DC0
 0001:00160020       ?CalcNextRdOffset@aiVehiclePhysics@@AAEMH@Z 00561020
 0001:00160290       ?InSharpTurn@aiVehiclePhysics@@AAEHH@Z 00561290
 0001:001606F0       ?SaveTarget@aiVehiclePhysics@@AAEXHAAVVector3@@PAVaiObstacle@@AAFH2@Z 005616F0
 0001:00160950       ?ContinueCheck@aiVehiclePhysics@@AAEXH@Z 00561950
 0001:00160AD0       ?CalcDestinationTarget@aiVehiclePhysics@@AAEXHAAVVector3@@@Z 00561AD0
 0001:001628D0       ?SetTargetPtToDestination@aiVehiclePhysics@@AAEXH@Z 005638D0
 0001:00162B60       ?CalcRoadTarget@aiVehiclePhysics@@AAEXHAAVVector3@@@Z 00563B60
 0001:00166230       ?IsTargetBlocked@aiVehiclePhysics@@AAEPAVaiObstacle@@AAVVector3@@0HHHHMPAH@Z 00567230
 0001:001667C0       ?DrawId@aiVehiclePhysics@@UAEXXZ 005677C0
 0001:001667D0       ?DrawRouteThroughTraffic@aiVehiclePhysics@@QAEXXZ 005677D0
 0001:001667E0       ?DrawTurn@aiVehiclePhysics@@QAEXH@Z 005677E0
 0001:001667F0       ?Dump@aiVehiclePhysics@@QAEXXZ 005677F0
 0001:00166920       ?ReplayDebug@aiRouteNode@@QAEXXZ 00567920
 0001:001669D0       ?ReplayDebug@aiVehiclePhysics@@UAEXXZ 005679D0
 0001:00166B80       ??1aiStuck@@UAE@XZ         00567B80
 0001:00166B90       ?Type@aiVehiclePhysics@@UAEHXZ 00567B90
 0001:00166BA0       ?CurrentLane@aiVehiclePhysics@@UAEHXZ 00567BA0
 0001:00166BB0       ?CurrentRdVert@aiVehiclePhysics@@UAEHXZ 00567BB0
 0001:00166BC0       ?FrontBumperDistance@aiVehiclePhysics@@UAEMXZ 00567BC0
 0001:00166BD0       ?BackBumperDistance@aiVehiclePhysics@@UAEMXZ 00567BD0
 0001:00166BE0       ?LSideDistance@aiVehiclePhysics@@UAEMXZ 00567BE0
 0001:00166BF0       ?RSideDistance@aiVehiclePhysics@@UAEMXZ 00567BF0
 0001:00166C00       ?Speed@aiVehiclePhysics@@UAEMXZ 00567C00
 0001:00166C10       ?Position@aiVehiclePhysics@@UAEXAAVVector3@@@Z 00567C10
 0001:00166C40       ?GetMatrix@aiVehiclePhysics@@UAEAAVMatrix34@@XZ 00567C40
 0001:00166C50       ?CurrentRoadId@aiVehiclePhysics@@UAEHXZ 00567C50
 0001:00166DF0       ??0aiVehicleSpline@@QAE@XZ 00567DF0
 0001:00166EB0       ??1aiVehicleSpline@@QAE@XZ 00567EB0
 0001:00166F30       ?Init@aiVehicleSpline@@QAEXPADH@Z 00567F30
 0001:00167050       ?Reset@aiVehicleSpline@@UAEXXZ 00568050
 0001:00167100       ?Update@aiVehicleSpline@@UAEXXZ 00568100
 0001:00167180       ?ResetReactTicks@aiVehicleSpline@@QAEXXZ 00568180
 0001:001671C0       ?CurrentRoadIdx@aiVehicleSpline@@UAEHPAPAVaiPath@@QA_NPAH@Z 005681C0
 0001:001673F0       ?CurrentRdVert@aiVehicleSpline@@UAEHXZ 005683F0
 0001:00167410       ?UpdateObstacleMap@aiVehicleSpline@@QAEXXZ 00568410
 0001:001686B0       ?DetectPlayerForwardCollision@aiVehicleSpline@@QAEHH@Z 005696B0
 0001:001687B0       ?DetectPlayerTargetPtCollision@aiVehicleSpline@@QAEHH@Z 005697B0
 0001:00168930       ?DetectPlayerCollision@aiVehicleSpline@@QAEHH@Z 00569930
 0001:00168AC0       ?DetectPlayerZoneCollision@aiVehicleSpline@@QAEHH@Z 00569AC0
 0001:00168CB0       ?IsThePlayerInFrontOfMe@aiVehicleSpline@@QAEHH@Z 00569CB0
 0001:00168DD0       ?IsAmbientBlockingPlayer@aiVehicleSpline@@QAEHH@Z 00569DD0
 0001:00168EC0       ?AvoidPlayerCollision@aiVehicleSpline@@QAEXH@Z 00569EC0
 0001:00168F70       ?InAccident@aiVehicleSpline@@UAEHXZ 00569F70
 0001:00168F80       ?WaitTime@aiVehicleSpline@@QAEHXZ 00569F80
 0001:00168FA0       ?TotLength@aiVehicleSpline@@QAEMXZ 00569FA0
 0001:00168FB0       ?Impact@aiVehicleSpline@@UAEXH@Z 00569FB0
 0001:00168FC0       ?DistanceToVehicle@aiVehicleSpline@@QAEMPAV1@@Z 00569FC0
 0001:001692C0       ?DistanceToIntersection@aiVehicleSpline@@QAEMXZ 0056A2C0
 0001:00169360       ?Dump@aiVehicleSpline@@QAEXXZ 0056A360
 0001:001694F0       ?DrawId@aiVehicleSpline@@UAEXXZ 0056A4F0
 0001:00169500       ?ReplayDebug@aiVehicleSpline@@UAEXXZ 0056A500
 0001:00169700       ?Type@aiVehicleSpline@@UAEHXZ 0056A700
 0001:00169710       ??0aiBanger@@QAE@PAVlvlInstance@@HH@Z 0056A710
 0001:00169740       ??1aiBanger@@QAE@XZ        0056A740
 0001:00169750       ?Radius@aiBanger@@QAEMXZ   0056A750
 0001:00169780       ?BreakThreshold@aiBanger@@UAEMXZ 0056A780
 0001:00169790       ?Drivable@aiBanger@@UAEHXZ 0056A790
 0001:001697B0       ?Position@aiBanger@@UAEXAAVVector3@@@Z 0056A7B0
 0001:00169880       ?CurrentRoadIdx@aiBanger@@UAEHPAPAVaiPath@@QA_NPAH@Z 0056A880
 0001:001699D0       ?CurrentRdVert@aiBanger@@UAEHXZ 0056A9D0
 0001:00169A30       ?PreAvoid@aiBanger@@UAEXABVVector3@@0MAAV2@1@Z 0056AA30
 0001:00169B60       ?IsBlockingTarget@aiBanger@@UAEMABVVector3@@0MM@Z 0056AB60
 0001:00169CE0       ?Draw@aiBanger@@QAEXXZ     0056ACE0
 0001:00169CF0       ?Speed@aiBanger@@UAEMXZ    0056ACF0
 0001:00169D00       ??0aiGoalAvoidPlayer@@QAE@PAVaiRailSet@@PAVaiVehicleAmbient@@@Z 0056AD00
 0001:00169D30       ??1aiGoalAvoidPlayer@@QAE@XZ 0056AD30
 0001:00169D40       ?Init@aiGoalAvoidPlayer@@UAEXXZ 0056AD40
 0001:00169D50       ?Reset@aiGoalAvoidPlayer@@UAEXXZ 0056AD50
 0001:00169F50       ?Update@aiGoalAvoidPlayer@@UAEXXZ 0056AF50
 0001:0016A200       ?AvoidPlayer@aiGoalAvoidPlayer@@AAEXXZ 0056B200
 0001:0016A4F0       ?Context@aiGoalAvoidPlayer@@QAEHXZ 0056B4F0
 0001:0016A510       ?Priority@aiGoalAvoidPlayer@@QAEHXZ 0056B510
 0001:0016A520       ?Dump@aiGoalAvoidPlayer@@QAEXXZ 0056B520
 0001:0016A570       ?ReplayDebug@aiGoalAvoidPlayer@@QAEXXZ 0056B570
 0001:0016A6D0       ?Update@aiGoal@@UAEXXZ     0056B6D0
 0001:0016A6E0       ??0aiGoalRegainRail@@QAE@PAVaiRailSet@@PAVaiVehicleAmbient@@@Z 0056B6E0
 0001:0016A710       ??1aiGoalRegainRail@@QAE@XZ 0056B710
 0001:0016A720       ?Init@aiGoalRegainRail@@UAEXXZ 0056B720
 0001:0016A750       ?Reset@aiGoalRegainRail@@UAEXXZ 0056B750
 0001:0016AD80       ?Update@aiGoalRegainRail@@UAEXXZ 0056BD80
 0001:0016AF00       ?Dump@aiGoalRegainRail@@QAEXXZ 0056BF00
 0001:0016AF60       ?ReplayDebug@aiGoalRegainRail@@QAEXXZ 0056BF60
 0001:0016B0C0       ??0aiGoalRandomDrive@@QAE@PAVaiRailSet@@PAVaiVehicleSpline@@@Z 0056C0C0
 0001:0016B180       ??1aiGoalRandomDrive@@QAE@XZ 0056C180
 0001:0016B190       ?Init@aiGoalRandomDrive@@UAEXXZ 0056C190
 0001:0016B1B0       ?Reset@aiGoalRandomDrive@@UAEXXZ 0056C1B0
 0001:0016BBF0       ?Update@aiGoalRandomDrive@@UAEXXZ 0056CBF0
 0001:0016BDC0       ?Context@aiGoalRandomDrive@@QAEHXZ 0056CDC0
 0001:0016BDE0       ?Priority@aiGoalRandomDrive@@QAEHXZ 0056CDE0
 0001:0016BDF0       ?SolveVelocity@aiGoalRandomDrive@@AAEXXZ 0056CDF0
 0001:0016C5F0       ?UpcomingAccident@aiGoalRandomDrive@@AAEHXZ 0056D5F0
 0001:0016C6A0       ?SpeedLimit@aiGoalRandomDrive@@AAEMXZ 0056D6A0
 0001:0016C6F0       ?OkayToEnterIntersection@aiGoalRandomDrive@@AAEHM@Z 0056D6F0
 0001:0016C8A0       ?AnyVehiclesComingThisWay@aiGoalRandomDrive@@AAEHXZ 0056D8A0
 0001:0016CB20       ?AvoidCollision@aiGoalRandomDrive@@AAEXPAVaiVehicleSpline@@M@Z 0056DB20
 0001:0016CD60       ?SolvePosition@aiGoalRandomDrive@@QAEXAAVVector3@@M@Z 0056DD60
 0001:0016CDB0       ?SolveRailType@aiGoalRandomDrive@@AAE_NXZ 0056DDB0
 0001:0016DD50       ?SolveLane@aiGoalRandomDrive@@AAEXXZ 0056ED50
 0001:0016DE60       ?ChangeLanes@aiGoalRandomDrive@@AAEXXZ 0056EE60
 0001:0016E3C0       ?Dump@aiGoalRandomDrive@@QAEXXZ 0056F3C0
 0001:0016E3F0       ?ReplayDebug@aiGoalRandomDrive@@QAEXXZ 0056F3F0
 0001:0016E550       ??0aiGoalCollision@@QAE@PAVaiRailSet@@PAVaiVehicleSpline@@@Z 0056F550
 0001:0016E580       ??1aiGoalCollision@@QAE@XZ 0056F580
 0001:0016E590       ?Init@aiGoalCollision@@UAEXXZ 0056F590
 0001:0016E5A0       ?Reset@aiGoalCollision@@UAEXXZ 0056F5A0
 0001:0016E5B0       ?Update@aiGoalCollision@@UAEXXZ 0056F5B0
 0001:0016E620       ?Context@aiGoalCollision@@QAEHXZ 0056F620
 0001:0016E640       ?Priority@aiGoalCollision@@QAEHXZ 0056F640
 0001:0016E770       ??0aiVehicleData@@QAE@XZ   0056F770
 0001:0016E790       ?SetFricElas@aiVehicleData@@QAEXXZ 0056F790
 0001:0016E7C0       ?FileIO@aiVehicleData@@UAEXAAVdatParser@@@Z 0056F7C0
 0001:0016E910       ??_GaiVehicleData@@UAEPAXI@Z 0056F910
 0001:0016E940       ?GetClassName@aiVehicleData@@UAEPADXZ 0056F940
 0001:0016E950       ?GetDirName@aiVehicleData@@UAEPBDXZ 0056F950
 0001:0016E960       ??0aiStuck@@QAE@XZ         0056F960
 0001:0016E9F0       ?Init@aiStuck@@QAEXPAVvehCar@@@Z 0056F9F0
 0001:0016EA10       ?Impact@aiStuck@@QAEXXZ    0056FA10
 0001:0016EA20       ?Reset@aiStuck@@UAEXXZ     0056FA20
 0001:0016EA30       ?Pegged@aiStuck@@QAEHXZ    0056FA30
 0001:0016EAA0       ?Update@aiStuck@@UAEXXZ    0056FAA0
 0001:0016EC60       ??_GaiStuck@@UAEPAXI@Z     0056FC60
 0001:0016ECD0       ??0asNetwork@@QAE@XZ       0056FCD0
 0001:0016ED70       ??1asNetwork@@QAE@XZ       0056FD70
 0001:0016EDC0       ?Initialize@asNetwork@@QAEHHHH@Z 0056FDC0
 0001:0016EE20       ?InitializeLobby@asNetwork@@QAEHHH@Z 0056FE20
 0001:0016EE90       ?WaitForLobbyConnection@asNetwork@@QAEXH@Z 0056FE90
 0001:0016EEF0       ?JoinLobbySession@asNetwork@@QAEHXZ 0056FEF0
 0001:0016F0E0       ?SendLobbyProperty@asNetwork@@QAEXPAXH@Z 005700E0
 0001:0016F1C0       ?Logout@asNetwork@@QAEXXZ  005701C0
 0001:0016F2C0       ?Deallocate@asNetwork@@QAEXXZ 005702C0
 0001:0016F300       ?CreateInterface@asNetwork@@QAEHXZ 00570300
 0001:0016F320       ?GetNetworkCaps@asNetwork@@QAEHXZ 00570320
 0001:0016F3D0       ?GetProtocols@asNetwork@@QAEXXZ 005703D0
 0001:0016F400       ?SetProtocol@asNetwork@@QAEHHPAUNETCOMMPACK@@@Z 00570400
 0001:0016F760       ?SetProtocol@asNetwork@@QAEHH@Z 00570760
 0001:0016F870       ?Disconnect@asNetwork@@QAEXXZ 00570870
 0001:0016F8C0       ?GetEnumProtocol@asNetwork@@QAEPADH@Z 005708C0
 0001:0016F8F0       ?GetNumProtocols@asNetwork@@QAEHXZ 005708F0
 0001:0016F900       ?CreatePlayer@asNetwork@@QAEHPADPAXH@Z 00570900
 0001:0016F9C0       ?DestroyPlayer@asNetwork@@QAEXXZ 005709C0
 0001:0016FA00       ?BootPlayer@asNetwork@@QAEXH@Z 00570A00
 0001:0016FA30       ?GetPlayers@asNetwork@@QAEHPAU_GUID@@@Z 00570A30
 0001:0016FA60       ?GetEnumPlayer@asNetwork@@QAEPADH@Z 00570A60
 0001:0016FA90       ?GetPlayerID@asNetwork@@QAEKH@Z 00570A90
 0001:0016FAD0       ?GetNumPlayers@asNetwork@@QAEHXZ 00570AD0
 0001:0016FB90       ?GetPlayerName@asNetwork@@QAEPADK@Z 00570B90
 0001:0016FC60       ?GetPlayerName@asNetwork@@QAEHKPAD@Z 00570C60
 0001:0016FD70       ?SetPlayerData@asNetwork@@QAEXKPAXH@Z 00570D70
 0001:0016FE10       ?GetEnumPlayerData@asNetwork@@QAEHHPAXH@Z 00570E10
 0001:0016FEE0       ?GetPlayerData@asNetwork@@QAEHKPAXH@Z 00570EE0
 0001:0016FF90       ?Ping@asNetwork@@QAEKK@Z   00570F90
 0001:00170070       ?CreateSession@asNetwork@@QAEHPAD0HPAUNETSESSION_DESC@@@Z 00571070
 0001:00170170       ?JoinSession@asNetwork@@QAEHPADPAU_GUID@@0@Z 00571170
 0001:00170550       ?CloseSession@asNetwork@@QAEXXZ 00571550
 0001:00170590       ?GetEnumSession@asNetwork@@QAEPADH@Z 00571590
 0001:001705C0       ?GetEnumSessionID@asNetwork@@QAEHH@Z 005715C0
 0001:001705F0       ?GetNumSessions@asNetwork@@QAEHXZ 005715F0
 0001:00170600       ?SealSession@asNetwork@@QAEXXZ 00571600
 0001:00170700       ?UnSealSession@asNetwork@@QAEXXZ 00571700
 0001:00170800       ?GetSessionData@asNetwork@@QAEXPAUNETSESSION_DESC@@@Z 00571800
 0001:001708E0       ?SetSessionData@asNetwork@@QAEXPAUNETSESSION_DESC@@PAD@Z 005718E0
 0001:00170A00       ?GetSessionsSynch@asNetwork@@QAEHH@Z 00571A00
 0001:00170AB0       ?GetSessionsAsynch@asNetwork@@QAEXXZ 00571AB0
 0001:00170B10       ?StopSessionsAsynch@asNetwork@@QAEXXZ 00571B10
 0001:00170B90       ?PollLobby@asNetwork@@QAEHXZ 00571B90
 0001:00170C30       ?Update@asNetwork@@QAEHXZ  00571C30
 0001:00170D50       ?HandleAppMessage@asNetwork@@QAEXPAUNET_TXHEAD@@KK@Z 00571D50
 0001:00170D90       ?HandleSysMessage@asNetwork@@QAEXPAUDPMSG_GENERIC@@@Z 00571D90
 0001:00171090       ?GetMessageQueue@asNetwork@@QAEXKKAAI0H@Z 00572090
 0001:001710E0       ?DumpRxQueueInfo@asNetwork@@QAEXXZ 005720E0
 0001:00171100       ?DumpTxQueueInfo@asNetwork@@QAEXXZ 00572100
 0001:00171120       ?ChatMessage@asNetwork@@QAEXKPAD@Z 00572120
 0001:00171200       ?Send@asNetwork@@QAEHKHPAXKH@Z 00572200
 0001:001713F0       ?GetMyLogicalIndex@asNetwork@@QAEHXZ 005723F0
 0001:00171430       ?GetGameVersion@asNetwork@@QAEHH@Z 00572430
 0001:00171460       ?GetEnumSessionStatus@asNetwork@@QAEHH@Z 00572460
 0001:00171490       ?GetEnumSessionLock@asNetwork@@QAEHH@Z 00572490
 0001:001714C0       ?SetEnumSessionLock@asNetwork@@QAEXHH@Z 005724C0
 0001:001714E0       ?SetTime@asNetwork@@QAEXM@Z 005724E0
 0001:00171500       ?GetTime@asNetwork@@QAEMXZ 00572500
 0001:00171540       ?GetTicks@asNetwork@@QAEMXZ 00572540
 0001:00171580       ?EnumSessionCallback@@YGHPBUDPSESSIONDESC2@@PAKKPAX@Z 00572580
 0001:00171640       ?EnumConnectionsCallback@@YGHPBU_GUID@@PAXKPBUDPNAME@@K1@Z 00572640
 0001:001716D0       ?EnumPlayersCallback@@YGHKKPBUDPNAME@@KPAX@Z 005726D0
 0001:00171730       ?JoinSession@asNetwork@@QAEHHPAD@Z 00572730
 0001:001717B0       ?GetNumModems@asNetwork@@QAEHXZ 005727B0
 0001:001717C0       ?GetEnumModem@asNetwork@@QAEPADH@Z 005727C0
 0001:001717F0       ?QueryModems@asNetwork@@QAEHXZ 005727F0
 0001:00171920       ?EnumModemAddress@@YGHABU_GUID@@KPBXPAX@Z 00572920
 0001:00171990       ??0netScoreInfo@@QAE@XZ    00572990
 0001:001719B0       ??0netZoneScore@@QAE@XZ    005729B0
 0001:001719C0       ??1netZoneScore@@QAE@XZ    005729C0
 0001:001719D0       ?Init@netZoneScore@@QAE_NU_GUID@@PAUIDirectPlayLobby3@@@Z 005729D0
 0001:00171A30       ?SendGameSettings@netZoneScore@@QAEXPAD@Z 00572A30
 0001:00171AA0       ?SendGameStart@netZoneScore@@QAEXXZ 00572AA0
 0001:00171AD0       ?SendGameStartStaging@netZoneScore@@QAEXXZ 00572AD0
 0001:00171B00       ?SendGameEnd@netZoneScore@@QAEXXZ 00572B00
 0001:00171B50       ?InitResults@netZoneScore@@QAEXH_N@Z 00572B50
 0001:00171BE0       ??0asNetObject@@QAE@XZ     00572BE0
 0001:00171C00       ??1asNetObject@@UAE@XZ     00572C00
 0001:00171C10       ?Update@asNetObject@@UAEXXZ 00572C10
 0001:00171C20       ??_GasNetObject@@UAEPAXI@Z 00572C20
 0001:00171C50       ?zipAutoInit@@YAXXZ        00572C50
 0001:00171D20       ?zipMultiAutoInit@@YAXPBD@Z 00572D20
 0001:00171F80       ?Read@zipHandle@@QAEHPAXH@Z 00572F80
 0001:00172080       ?Seek@zipHandle@@QAEHHW4seekWhence@@@Z 00573080
 0001:001721A0       ?zipOpen@zipFile@@SAHPBD_N@Z 005731A0
 0001:001721F0       ?zipCreate@zipFile@@SAHPBD@Z 005731F0
 0001:00172210       ?zipRead@zipFile@@SAHHPAXH@Z 00573210
 0001:00172230       ?zipWrite@zipFile@@SAHHPBXH@Z 00573230
 0001:00172250       ?zipSeek@zipFile@@SAHHHW4seekWhence@@@Z 00573250
 0001:00172270       ?zipClose@zipFile@@SAHH@Z  00573270
 0001:001722A0       ?zipEnumFiles@zipFile@@SAHPBDP6AX0_NPAX@Z2@Z 005732A0
 0001:001722E0       ?zipSize@zipFile@@SAHH@Z   005732E0
 0001:00172300       ??0zipFile@@QAE@XZ         00573300
 0001:00172320       ??1zipFile@@QAE@XZ         00573320
 0001:00172360       ?KillAll@zipFile@@SAXXZ    00573360
 0001:00172390       ?internalSeek@zipFile@@AAEHH@Z 00573390
 0001:00172410       ?internalRead@zipFile@@AAEHPAXH_N@Z 00573410
 0001:00172480       ?Init@zipFile@@QAE_NPBD@Z  00573480
 0001:00172A80       ?Open@zipFile@@QAEHPBD@Z   00573A80
 0001:00172B60       ?EnumFiles@zipFile@@QAEHPBDP6AX0_NPAX@Z2@Z 00573B60
 0001:00172C60       _inflateReset              00573C60
 0001:00172CB0       _inflateEnd                00573CB0
 0001:00172D00       _inflateInit2_             00573D00
 0001:00172E20       _inflateInit_              00573E20
 0001:00172E40       _inflate                   00573E40
 0001:00173270       _inflateSetDictionary      00574270
 0001:00173300       _inflateSync               00574300
 0001:001733E0       _inflateSyncPoint          005743E0
 0001:00173410       _adler32                   00574410
 0001:00173550       _zlibVersion               00574550
 0001:00173560       _zError                    00574560
 0001:00173580       ?zcalloc@@YAPAXPAXII@Z     00574580
 0001:001735A0       ?zcfree@@YAXPAX0@Z         005745A0
 0001:001735C0       ?inflate_blocks_reset@@YAXPAUinflate_blocks_state@@PAUz_stream_s@@PAK@Z 005745C0
 0001:00173640       ?inflate_blocks_new@@YAPAUinflate_blocks_state@@PAUz_stream_s@@P6AKKPBEI@ZI@Z 00574640
 0001:001736F0       ?inflate_blocks@@YAHPAUinflate_blocks_state@@PAUz_stream_s@@H@Z 005746F0
 0001:00174340       ?inflate_blocks_free@@YAHPAUinflate_blocks_state@@PAUz_stream_s@@@Z 00575340
 0001:00174380       ?inflate_set_dictionary@@YAXPAUinflate_blocks_state@@PBEI@Z 00575380
 0001:001743C0       ?inflate_blocks_sync_point@@YAHPAUinflate_blocks_state@@@Z 005753C0
 0001:001743D0       ?inflate_codes_new@@YAPAUinflate_codes_state@@IIPAUinflate_huft_s@@0PAUz_stream_s@@@Z 005753D0
 0001:00174410       ?inflate_codes@@YAHPAUinflate_blocks_state@@PAUz_stream_s@@H@Z 00575410
 0001:00174B30       ?inflate_codes_free@@YAXPAUinflate_codes_state@@PAUz_stream_s@@@Z 00575B30
 0001:00174B50       ?inflate_trees_bits@@YAHPAI0PAPAUinflate_huft_s@@PAU1@PAUz_stream_s@@@Z 00575B50
 0001:00175020       ?inflate_trees_dynamic@@YAHIIPAI00PAPAUinflate_huft_s@@1PAU1@PAUz_stream_s@@@Z 00576020
 0001:001751B0       ?inflate_trees_fixed@@YAHPAI0PAPAUinflate_huft_s@@1PAUz_stream_s@@@Z 005761B0
 0001:001751E0       ?inflate_flush@@YAHPAUinflate_blocks_state@@PAUz_stream_s@@H@Z 005761E0
 0001:00175320       ?inflate_fast@@YAHIIPAUinflate_huft_s@@0PAUinflate_blocks_state@@PAUz_stream_s@@@Z 00576320
 0001:001756A0       ?LogAllocations@memMemoryAllocator@@SAXH@Z 005766A0
 0001:001756B0       ?FindHeap@memMemoryAllocator@@SAPAV1@PAX@Z 005766B0
 0001:001756F0       ??0memMemoryAllocator@@QAE@XZ 005766F0
 0001:00175720       ??1memMemoryAllocator@@QAE@XZ 00576720
 0001:00175730       ?Init@memMemoryAllocator@@QAEXPAXI_N1@Z 00576730
 0001:00175790       ?Kill@memMemoryAllocator@@QAEXXZ 00576790
 0001:001757A0       ?Allocate@memMemoryAllocator@@QAEPAXI_N@Z 005767A0
 0001:00175A20       ?CheckPointer@memMemoryAllocator@@QAEXPAX@Z 00576A20
 0001:00175A80       ?Free@memMemoryAllocator@@QAEXPAX_N@Z 00576A80
 0001:00175BD0       ?Unlink@memMemoryAllocator@@AAEXPAUnode@1@@Z 00576BD0
 0001:00175C30       ?Link@memMemoryAllocator@@AAEXPAUnode@1@@Z 00576C30
 0001:00175C80       ?Reallocate@memMemoryAllocator@@QAEPAXPAXI@Z 00576C80
 0001:00175CE0       ?VerifyBlock@memMemoryAllocator@@AAEXPAX@Z 00576CE0
 0001:00175D10       ?GetStats@memMemoryAllocator@@QAEXPAUmemMemStats@@_N@Z 00576D10
 0001:00175DB0       ?SanityCheck@memMemoryAllocator@@QAEXXZ 00576DB0
 0001:00175F20       ?HeapAssert@@YAHPAXHPADH@Z 00576F20
 0001:00176020       ?CopyHeap@memMemoryAllocator@@QAE_NPAV1@@Z 00577020
 0001:00176070       ?CompareHeap@memMemoryAllocator@@QAEIPAV1@@Z 00577070
 0001:00176170       ?DisplayUsed@memMemoryAllocator@@SAXPBD@Z 00577170
 0001:001761D8       get_heapsize               005771D8
 0001:001761E0       ??0memSafeHeap@@QAE@XZ     005771E0
 0001:001761F1       get_checkalloc             005771F1
 0001:00176200       ??1memSafeHeap@@QAE@XZ     00577200
 0001:00176210       ?Init@memSafeHeap@@QAEXPAVmemMemoryAllocator@@I_N11@Z 00577210
 0001:00176280       ?Restart@memSafeHeap@@QAEXXZ 00577280
 0001:001762B0       ?Kill@memSafeHeap@@QAEXXZ  005772B0
 0001:001762E0       ?Activate@memSafeHeap@@IAEXXZ 005772E0
 0001:00176330       ?Deactivate@memSafeHeap@@IAEXXZ 00577330
 0001:00176360       ??2@YAPAXI@Z               00577360
 0001:00176380       ??3@YAXPAX@Z               00577380
 0001:001763A0       ??_U@YAPAXI@Z              005773A0
 0001:001763C0       ??_V@YAXPAX@Z              005773C0
 0001:00176410       ??0gizBridge@@QAE@XZ       00577410
 0001:00176490       ??1gizBridge@@QAE@XZ       00577490
 0001:001764F0       ?Reset@gizBridge@@UAEXXZ   005774F0
 0001:00176530       ?Init@gizBridge@@QAEXPADABVMatrix34@@@Z 00577530
 0001:00176620       ?Reposition@gizBridge@@AAEXXZ 00577620
 0001:001766D0       ?Update@gizBridge@@QAEXXZ  005776D0
 0001:00176910       ?Trigger@gizBridge@@QAE_NXZ 00577910
 0001:00176940       ?Cull@gizBridge@@QAEXH@Z   00577940
 0001:00176950       ??0gizBridgeMgr@@QAE@XZ    00577950
 0001:001769B0       ??1gizBridgeMgr@@UAE@XZ    005779B0
 0001:00176A40       ?Reset@gizBridgeMgr@@UAEXXZ 00577A40
 0001:00176A70       ?Init@gizBridgeMgr@@QAE_NPAD00@Z 00577A70
 0001:00176F90       ?Update@gizBridgeMgr@@UAEXXZ 00577F90
 0001:00176FF0       ?Cull@gizBridgeMgr@@UAEXXZ 00577FF0
 0001:001770E0       ?CheckProximity@gizBridgeMgr@@AAE_NPAVgizBridge@@@Z 005780E0
 0001:00177160       ?GetBridges@gizBridgeMgr@@QAEPAVgizBridge@@H@Z 00578160
 0001:00177180       ?AddProximityTrigger@gizBridgeMgr@@QAEXPAVVector3@@@Z 00578180
 0001:001771A0       j_??1lvlInstance@@QAE@XZ_2 005781A0
 0001:001771B0       ??_GgizBridgeMgr@@UAEPAXI@Z 005781B0
 0001:001771E0       ??_EgizBridge@@QAEPAXI@Z   005781E0
 0001:00177240       ?Draw@gizBridge@@UAEXH@Z   00578240
 0001:00177250       ?SizeOf@gizBridge@@UAEIXZ  00578250
 0001:00177260       ??0gizSailboat@@QAE@XZ     00578260
 0001:001772B0       ??1gizSailboat@@QAE@XZ     005782B0
 0001:00177320       ?Reset@gizSailboat@@UAEXXZ 00578320
 0001:00177330       ?Init@gizSailboat@@QAEXPADPAVdgPath@@@Z 00578330
 0001:00177410       ?Update@gizSailboat@@QAEXXZ 00578410
 0001:00177490       ?SetSpeed@gizSailboat@@QAEXM@Z 00578490
 0001:001774B0       ??0gizSailboatMgr@@QAE@XZ  005784B0
 0001:00177520       ??1gizSailboatMgr@@UAE@XZ  00578520
 0001:001775C0       ?Reset@gizSailboatMgr@@UAEXXZ 005785C0
 0001:001775F0       ?Init@gizSailboatMgr@@QAE_NPAD00@Z 005785F0
 0001:00177770       ?Update@gizSailboatMgr@@UAEXXZ 00578770
 0001:001777A0       ?ApplyTuning@gizSailboatMgr@@AAEXXZ 005787A0
 0001:00177800       ??_GgizSailboatMgr@@UAEPAXI@Z 00578800
 0001:00177830       ??_EgizSailboat@@QAEPAXI@Z 00578830
 0001:00177890       ?SizeOf@gizSailboat@@UAEIXZ 00578890
 0001:001778A0       ??0gizTrainCar@@QAE@XZ     005788A0
 0001:001778C0       ??1gizTrainCar@@QAE@XZ     005788C0
 0001:00177930       ?Reset@gizTrainCar@@QAEXH@Z 00578930
 0001:00177970       ?Init@gizTrainCar@@QAEXPADPAVdgPath@@M@Z 00578970
 0001:00177A30       ?Update@gizTrainCar@@QAEXM@Z 00578A30
 0001:00177B20       ?IsFirstStop@gizTrainCar@@QAE_NXZ 00578B20
 0001:00177B30       ?IsLastStop@gizTrainCar@@QAE_NXZ 00578B30
 0001:00177B50       ??0gizTrain@@QAE@XZ        00578B50
 0001:00177BC0       ??1gizTrain@@QAE@XZ        00578BC0
 0001:00177C20       ?Reset@gizTrain@@QAEXXZ    00578C20
 0001:00177C60       ?Init@gizTrain@@QAEXPADPAVdgPath@@@Z 00578C60
 0001:00177CC0       ?CalcTrainAccel@gizTrain@@QAEXXZ 00578CC0
 0001:00177CD0       ?Update@gizTrain@@QAEXXZ   00578CD0
 0001:00177EF0       ?InStation@gizTrain@@QAE_NXZ 00578EF0
 0001:00177F10       ??0gizTrainMgr@@QAE@XZ     00578F10
 0001:00177F60       ??1gizTrainMgr@@UAE@XZ     00578F60
 0001:00177FF0       ?Reset@gizTrainMgr@@UAEXXZ 00578FF0
 0001:00178020       ?Init@gizTrainMgr@@QAE_NPAD00@Z 00579020
 0001:00178170       ?Update@gizTrainMgr@@UAEXXZ 00579170
 0001:001781B0       ?ApplyTuning@gizTrainMgr@@AAEXXZ 005791B0
 0001:001781C0       ??_GgizTrainMgr@@UAEPAXI@Z 005791C0
 0001:001781F0       ??_EgizTrain@@QAEPAXI@Z    005791F0
 0001:00178250       ?SizeOf@gizTrainCar@@UAEIXZ 00579250
 0001:00178260       ??0gizFerry@@QAE@XZ        00579260
 0001:001782D0       ??1gizFerry@@QAE@XZ        005792D0
 0001:00178350       ?Reset@gizFerry@@UAEXXZ    00579350
 0001:001783A0       ?Init@gizFerry@@QAEXPADPAVdgPath@@@Z 005793A0
 0001:00178460       ?Update@gizFerry@@QAEXXZ   00579460
 0001:00178520       ?SetSpeed@gizFerry@@QAEXM@Z 00579520
 0001:00178540       ?Cull@gizFerry@@QAEXH@Z    00579540
 0001:00178550       ??0gizFerryMgr@@QAE@XZ     00579550
 0001:001785C0       ??1gizFerryMgr@@UAE@XZ     005795C0
 0001:00178650       ?Reset@gizFerryMgr@@UAEXXZ 00579650
 0001:00178680       ?Init@gizFerryMgr@@QAE_NPAD00@Z 00579680
 0001:001787D0       ?Update@gizFerryMgr@@UAEXXZ 005797D0
 0001:00178820       ?Cull@gizFerryMgr@@UAEXXZ  00579820
 0001:00178910       ?ApplyTuning@gizFerryMgr@@AAEXXZ 00579910
 0001:00178970       ??_GgizFerryMgr@@UAEPAXI@Z 00579970
 0001:001789A0       ??_EgizFerry@@QAEPAXI@Z    005799A0
 0001:00178A00       ?Draw@gizFerry@@UAEXH@Z    00579A00
 0001:00178A10       ?SizeOf@gizFerry@@UAEIXZ   00579A10
 0001:00178A20       ??0gizParkedCarMgr@@QAE@XZ 00579A20
 0001:00178A80       ??1gizParkedCarMgr@@UAE@XZ 00579A80
 0001:00178AE0       ?Reset@gizParkedCarMgr@@UAEXXZ 00579AE0
 0001:00178AF0       ?Init@gizParkedCarMgr@@QAE_NPAD00@Z 00579AF0
 0001:00178BD0       gizParkedCarMgr_EnumeratePath 00579BD0
 0001:00178CB0       ?Update@gizParkedCarMgr@@UAEXXZ 00579CB0
 0001:00178CC0       ?ApplyTuning@gizParkedCarMgr@@AAEXXZ 00579CC0
 0001:00178CD0       ??_GgizParkedCarMgr@@UAEPAXI@Z 00579CD0
 0001:00178D00       ??0mmBridgeAudio@@QAE@XZ   00579D00
 0001:00178D20       ??1mmBridgeAudio@@UAE@XZ   00579D20
 0001:00178D30       ?Activate@mmBridgeAudio@@QAEXH@Z 00579D30
 0001:00178D70       ?Deactivate@mmBridgeAudio@@QAEXH@Z 00579D70
 0001:00178DB0       ??0gizInstance@@QAE@XZ     00579DB0
 0001:00178E10       ??1gizInstance@@QAE@XZ     00579E10
 0001:00178E30       ?GetPosition@gizInstance@@UAEABVVector3@@XZ 00579E30
 0001:00178E40       ?GetMatrix@gizInstance@@UAEABVMatrix34@@AAV2@@Z 00579E40
 0001:00178E60       ?SetMatrix@gizInstance@@UAEXABVMatrix34@@@Z 00579E60
 0001:00178E90       ?Init@gizInstance@@QAEXPADH@Z 00579E90
 0001:00178F30       ?Draw@gizInstance@@UAEXH@Z 00579F30
 0001:00179050       ??0gizPathspline@@QAE@XZ   0057A050
 0001:00179080       ??1gizPathspline@@QAE@XZ   0057A080
 0001:00179090       ?Reset@gizPathspline@@QAEXXZ 0057A090
 0001:001790E0       ?Init@gizPathspline@@QAEXPAVdgPath@@M@Z 0057A0E0
 0001:00179100       ?Compute@gizPathspline@@IAEXAAVVector3@@000@Z 0057A100
 0001:00179370       ?Solve@gizPathspline@@IAEXAAVVector3@@0M@Z 0057A370
 0001:00179410       ?Update@gizPathspline@@QAEXAAVVector3@@0M@Z 0057A410
 0001:00179440       ?UpdateRatio@gizPathspline@@QAEXAAVVector3@@0M@Z 0057A440
 0001:00179520       ?GetCurrRatio@gizPathspline@@QAEMXZ 0057A520
 0001:00179530       ?ComputePath@gizPathspline@@IAEXHHH@Z 0057A530
 0001:001796D0       ?IncrementPath@gizPathspline@@IAEXXZ 0057A6D0
 0001:00179710       ?DecrementPath@gizPathspline@@IAEXXZ 0057A710
 0001:00179750       ?GetNumVertex@gizPathspline@@QAEHXZ 0057A750
 0001:00179760       ?SetSpeed@gizPathspline@@QAEXM@Z 0057A760
 0001:00179780       ?GetVertex@gizPathspline@@QAEAAVVector3@@H@Z 0057A780
 0001:001797A0       ?LookupSequence@pedAnimation@@QAEHPAD@Z 0057A7A0
 0001:00179800       ?Load@pedAnimation@@QAEXPADPAVStream@@@Z 0057A800
 0001:00179B40       ?Init@pedAnimation@@SAXXZ  0057AB40
 0001:00179B60       ?DrawSkeleton@pedAnimation@@QAEXHPAVcrSkeleton@@@Z 0057AB60
 0001:00179DB0       ?Init@pedAnimationInstance@@QAEXPAD@Z 0057ADB0
 0001:00179DE0       ?Load@pedAnimationInstance@@AAEPAVpedAnimation@@PBD@Z 0057ADE0
 0001:0017A270       ?PreUpdate@pedAnimationInstance@@QAEXM@Z 0057B270
 0001:0017A2C0       ?Reset@pedAnimationInstance@@QAEXXZ 0057B2C0
 0001:0017A2F0       ?Update@pedAnimationInstance@@QAEXXZ 0057B2F0
 0001:0017A370       ?Draw@pedAnimationInstance@@QAEX_N@Z 0057B370
 0001:0017A510       ?DrawShadow@pedAnimationInstance@@QAEXXZ 0057B510
 0001:0017A520       ?VerifySeq@pedAnimationInstance@@QAEXH@Z 0057B520
 0001:0017A550       ?Start@pedAnimationInstance@@QAEXH@Z 0057B550
 0001:0017A580       ??0aiPedestrianInstance@@QAE@PAVaiPedestrian@@@Z 0057B580
 0001:0017A5A0       ?GetMatrix@aiPedestrianInstance@@UAEABVMatrix34@@AAV2@@Z 0057B5A0
 0001:0017A5B0       ?SetMatrix@aiPedestrianInstance@@UAEXABVMatrix34@@@Z 0057B5B0
 0001:0017A5C0       ?GetPosition@aiPedestrianInstance@@UAEABVVector3@@XZ 0057B5C0
 0001:0017A5D0       ?ComputeLod@aiPedestrianInstance@@UAEHMM@Z 0057B5D0
 0001:0017A5E0       ?SizeOf@aiPedestrianInstance@@UAEIXZ 0057B5E0
 0001:0017A5F0       ?Draw@aiPedestrianInstance@@UAEXH@Z 0057B5F0
 0001:0017A700       ?DrawShadow@aiPedestrianInstance@@UAEXXZ 0057B700
 0001:0017A710       ?DrawShadowMap@aiPedestrianInstance@@UAEXXZ 0057B710
 0001:0017A720       ?GetEntity@aiPedestrianInstance@@UAEPAVdgPhysEntity@@XZ 0057B720
 0001:0017A730       ?AttachEntity@aiPedestrianInstance@@UAEPAVdgPhysEntity@@XZ 0057B730
 0001:0017A750       ?GetVelocity@aiPedestrianInstance@@UAEABVVector3@@XZ 0057B750
 0001:0017A760       ?Detach@aiPedestrianInstance@@UAEXXZ 0057B760
 0001:0017A770       ?GetBound@aiPedestrianInstance@@UAEPBVphBound@@H@Z 0057B770
 0001:0017A780       ?IsCollidable@aiPedestrianInstance@@UAE_NXZ 0057B780
 0001:0017A8B0       ??0pedRagdollMgr@@QAE@XZ   0057B8B0
 0001:0017A910       ??1pedRagdollMgr@@UAE@XZ   0057B910
 0001:0017A9B0       ?Init@pedRagdollMgr@@QAEXHPAPAD@Z 0057B9B0
 0001:0017AAF0       ?Attach@pedRagdollMgr@@QAEPAVpedActive@@PAVaiPedestrianInstance@@@Z 0057BAF0
 0001:0017AB80       ?Detach@pedRagdollMgr@@QAEXPAVaiPedestrianInstance@@@Z 0057BB80
 0001:0017ABB0       ?UnusedActive@pedRagdollMgr@@QAE_NXZ 0057BBB0
 0001:0017ABD0       ?Reset@pedRagdollMgr@@UAEXXZ 0057BBD0
 0001:0017AC10       ?Update@pedRagdollMgr@@UAEXXZ 0057BC10
 0001:0017AC80       ??_EpedRagdollMgr@@UAEPAXI@Z 0057BC80
 0001:0017ACB0       ??_EpedActiveData@@QAEPAXI@Z 0057BCB0
 0001:0017AD10       ??_EpedActive@@UAEPAXI@Z   0057BD10
 0001:0017AD70       ??0pedActive@@QAE@XZ       0057BD70
 0001:0017AE90       ??0pedActiveData@@QAE@XZ   0057BE90
 0001:0017AEA0       ?Init@pedActiveData@@QAEXPBD@Z 0057BEA0
 0001:0017AF80       ??1pedActive@@UAE@XZ       0057BF80
 0001:0017B040       ??1pedActiveData@@QAE@XZ   0057C040
 0001:0017B090       ?IsAsleep@pedActive@@QAEHXZ 0057C090
 0001:0017B0C0       ?Reset@pedActive@@UAEXXZ   0057C0C0
 0001:0017B0F0       ?Update@pedActive@@UAEXXZ  0057C0F0
 0001:0017B170       ?Activate@pedActive@@UAEXPAVaiPedestrianInstance@@PAVpedActiveData@@@Z 0057C170
 0001:0017B260       ?Deactivate@pedActive@@UAEXXZ 0057C260
 0001:0017B290       ?GetICS@pedActive@@UAEPAVphInertialCS@@XZ 0057C290
 0001:0017B2A0       ?GetInst@pedActive@@UAEPAVlvlInstance@@XZ 0057C2A0
 0001:0017B2B0       ?SetRagdollBlend@pedActive@@QAEXM@Z 0057C2B0
 0001:0017B2C0       ?StartRagdoll@pedActive@@QAEXXZ 0057C2C0
 0001:0017B2D0       ?StopRagdoll@pedActive@@QAEXXZ 0057C2D0
 0001:0017B2E0       ?FirstImpactCallback@pedActive@@UAEXXZ 0057C2E0
 0001:0017B4D0       ??_GpedActive@@UAEPAXI@Z   0057C4D0
 0001:0017B500       ?PostUpdate@pedActive@@UAEXXZ 0057C500
 0001:0017B510       ??0crSkeleton@@QAE@XZ      0057C510
 0001:0017B5C0       ??1crSkeleton@@QAE@XZ      0057C5C0
 0001:0017B5D0       ?Init@crSkeleton@@QAEXABVcrSkeletonData@@PAVMatrix34@@@Z 0057C5D0
 0001:0017B630       ?Update@crSkeleton@@QAEXXZ 0057C630
 0001:0017B650       ?Attach@crSkeleton@@QBEXQAVMatrix34@@@Z 0057C650
 0001:0017B690       ?Attach@crSkeleton@@QBEXQAVMatrix44@@@Z 0057C690
 0001:0017B730       ??0crSkeletonData@@QAE@XZ  0057C730
 0001:0017B740       ??1crSkeletonData@@QAE@XZ  0057C740
 0001:0017B750       ?Load@crSkeletonData@@QAE_NPBD@Z 0057C750
 0001:0017B8C0       ?FindBone@crSkeletonData@@QBEPAVcrBoneData@@PBDHD@Z 0057C8C0
 0001:0017B9C0       ?HowMany@crSkeletonData@@QBEHPBDD@Z 0057C9C0
 0001:0017BA00       ?InitMirror@crSkeletonData@@AAEXXZ 0057CA00
 0001:0017BB20       ??0crBone@@QAE@XZ          0057CB20
 0001:0017BB50       ?Transform@crBone@@QAEXPAVMatrix34@@@Z 0057CB50
 0001:0017BB90       ??0crBoneData@@QAE@XZ      0057CB90
 0001:0017BC00       ?AddChild@crBoneData@@QAEXPAV1@@Z 0057CC00
 0001:0017BC40       ?Load@crBoneData@@QAE_NAAVdatTokenizer@@PAPAV1@AAH@Z 0057CC40
 0001:0017BD50       ?Transform@crBoneData@@QBEXPBVMatrix34@@PAVcrBone@@@Z 0057CD50
 0001:0017BDC0       ?ApplyLimits@crBoneData@@QBEXAAVMatrix34@@@Z 0057CDC0
 0001:0017BE60       ??0crAnimation@@QAE@HH@Z   0057CE60
 0001:0017BF20       ??0crAnimation@@AAE@XZ     0057CF20
 0001:0017BF50       ??1crAnimation@@UAE@XZ     0057CF50
 0001:0017C010       ?DeleteAnimTable@crAnimation@@CAXXZ 0057D010
 0001:0017C070       ?DeleteChanTable@crAnimation@@CAXXZ 0057D070
 0001:0017C0D0       ?AnimExists@crAnimation@@SA_NPBD@Z 0057D0D0
 0001:0017C0F0       ?OutputAnimationList@crAnimation@@SAXXZ 0057D0F0
 0001:0017C150       ?InitHashTables@crAnimation@@SAXXZ 0057D150
 0001:0017C210       ?GetAnimation@crAnimation@@SAPAV1@PBD_N1PAVcrAnimFrame@@1@Z 0057D210
 0001:0017C300       ?GetChanAnimation@crAnimation@@SAPAV1@PBD_N@Z 0057D300
 0001:0017C3D0       ?LoadAnim@crAnimation@@AAE_NPBD_N@Z 0057D3D0
 0001:0017C590       ?SaveAnim@crAnimation@@QAE_NPBD@Z 0057D590
 0001:0017C670       ?LoadChanAnim@crAnimation@@AAE_NPBD@Z 0057D670
 0001:0017C7B0       ?Normalize@crAnimation@@QAEX_N@Z 0057D7B0
 0001:0017C810       ?NormalizeX@crAnimation@@QAEXXZ 0057D810
 0001:0017C860       ?NormalizeY@crAnimation@@QAEXXZ 0057D860
 0001:0017C8C0       ?ZeroX@crAnimation@@QAEXXZ 0057D8C0
 0001:0017C8F0       ?ZeroY@crAnimation@@QAEXXZ 0057D8F0
 0001:0017C920       ?ZeroYSeg@crAnimation@@QAEXHH@Z 0057D920
 0001:0017C960       ?Subtract@crAnimation@@QAEXAAVcrAnimFrame@@@Z 0057D960
 0001:0017C9A0       ?CopyAnim@crAnimation@@QAEXPAV1@HH@Z 0057D9A0
 0001:0017CA90       ?Flip@crAnimation@@QAEXXZ  0057DA90
 0001:0017CAC0       ?GetBlendFrame@crAnimation@@QBEXAAVcrAnimFrame@@M@Z 0057DAC0
 0001:0017CB60       ??_GcrAnimation@@UAEPAXI@Z 0057DB60
 0001:0017CB90       ??_EcrAnimFrame@@QAEPAXI@Z 0057DB90
 0001:0017CBF0       ??_FcrAnimFrame@@QAEXXZ    0057DBF0
 0001:0017CC00       ?sAcquireBuffer@@YAPAMH@Z  0057DC00
 0001:0017CC50       ?sIsBuffer@@YA_NPAM@Z      0057DC50
 0001:0017CC80       ?AllocateBuffers@crAnimFrame@@SAXHH@Z 0057DC80
 0001:0017CD00       ?DeallocateBuffers@crAnimFrame@@SAXXZ 0057DD00
 0001:0017CDA0       ??0crAnimFrame@@QAE@_N@Z   0057DDA0
 0001:0017CDE0       ??0crAnimFrame@@QAE@ABV0@@Z 0057DDE0
 0001:0017CE10       ??1crAnimFrame@@QAE@XZ     0057DE10
 0001:0017CE70       ??4crAnimFrame@@QAEABV0@ABV0@@Z 0057DE70
 0001:0017CE90       ?Copy@crAnimFrame@@AAEXABV1@@Z 0057DE90
 0001:0017CED0       ?Init@crAnimFrame@@QAEXH@Z 0057DED0
 0001:0017CF10       ?LoadBin@crAnimFrame@@QAEXPAVStream@@H@Z 0057DF10
 0001:0017CF40       ?SaveBin@crAnimFrame@@QAEXPAVStream@@@Z 0057DF40
 0001:0017CF60       ?LoadAscii@crAnimFrame@@QAEXAAVdatTokenizer@@H@Z 0057DF60
 0001:0017CFA0       ?Print@crAnimFrame@@QAEXXZ 0057DFA0
 0001:0017D010       ?Mirror@crAnimFrame@@QAEXPBVcrSkeletonData@@@Z 0057E010
 0001:0017D100       ?Flip@crAnimFrame@@QAEXXZ  0057E100
 0001:0017D110       ?Blend@crAnimFrame@@QAEXMABV1@0HH@Z 0057E110
 0001:0017D1B0       ?Add@crAnimFrame@@QAEXABV1@HH@Z 0057E1B0
 0001:0017D200       ?AddScaled@crAnimFrame@@QAEXABV1@MHH@Z 0057E200
 0001:0017D250       ?Merge@crAnimFrame@@QAEXABV1@M@Z 0057E250
 0001:0017D2E0       ?Zero@crAnimFrame@@QAEXXZ  0057E2E0
 0001:0017D300       ?Pose@crAnimFrame@@QAEXAAVcrSkeleton@@_N@Z 0057E300
 0001:0017D3C0       ??0crKinematicsBase@@QAE@XZ 0057E3C0
 0001:0017D3E0       ??1crKinematicsBase@@UAE@XZ 0057E3E0
 0001:0017D3F0       ?Init@crKinematicsBase@@UAEXAAVcrSkeleton@@ABVcrBodyDataBase@@@Z 0057E3F0
 0001:0017D410       ?Reset@crKinematicsBase@@UAEXXZ 0057E410
 0001:0017D420       ?Update@crKinematicsBase@@UAEXXZ 0057E420
 0001:0017D430       ?MatchPose@crKinematicsBase@@UAEXXZ 0057E430
 0001:0017D440       ?SetIKBlend@crKinematicsBase@@UAEXM@Z 0057E440
 0001:0017D450       ?SetLimp@crKinematicsBase@@UAEX_N@Z 0057E450
 0001:0017D460       ??0crKinematics@@QAE@XZ    0057E460
 0001:0017D590       ??1crKinematics@@UAE@XZ    0057E590
 0001:0017D600       ?Reset@crKinematics@@UAEXXZ 0057E600
 0001:0017D620       ?SetIKBlend@crKinematics@@UAEXM@Z 0057E620
 0001:0017D680       ?SetLimp@crKinematics@@UAEX_N@Z 0057E680
 0001:0017D6E0       ?MatchPose@crKinematics@@UAEXXZ 0057E6E0
 0001:0017D790       ?TestPose@crKinematics@@QAEXXZ 0057E790
 0001:0017D880       ?Update@crKinematics@@UAEXXZ 0057E880
 0001:0017D970       ??_GcrKinematicsBase@@UAEPAXI@Z 0057E970
 0001:0017D9A0       ??_GcrKinematics@@UAEPAXI@Z 0057E9A0
 0001:0017D9D0       ??0crBodyDataBase@@QAE@AAVcrSkeletonData@@@Z 0057E9D0
 0001:0017D9F0       ??1crBodyDataBase@@UAE@XZ  0057E9F0
 0001:0017DA00       ??0crBodyData@@QAE@AAVcrSkeletonData@@@Z 0057EA00
 0001:0017DB80       ??1crBodyData@@UAE@XZ      0057EB80
 0001:0017DC00       ??_GcrBodyDataBase@@UAEPAXI@Z 0057EC00
 0001:0017DC30       ??_GcrBodyData@@UAEPAXI@Z  0057EC30
 0001:0017DC60       ??0crIKGoal@@QAE@XZ        0057EC60
 0001:0017DC90       ?ToMatrix@crIKGoal@@QBEXAAVMatrix34@@@Z 0057EC90
 0001:0017DCC0       ?FromMatrix@crIKGoal@@QAEXAAVMatrix34@@@Z 0057ECC0
 0001:0017DCF0       ??0crLegData@@QAE@XZ       0057ECF0
 0001:0017DD20       ?Init@crLegData@@UAEXAAVcrSkeletonData@@D@Z 0057ED20
 0001:0017DE70       ?MatchPose@crLegData@@UBEXAAVcrSkeleton@@AAVcrIKGoal@@@Z 0057EE70
 0001:0017DF00       ?Acosf@crLegData@@IBEMM@Z  0057EF00
 0001:0017DF60       ?SolveIK@crLegData@@UBEXAAVcrSkeleton@@AAVcrIKGoal@@@Z 0057EF60
 0001:0017EF20       ?SolveLimpIK@crLegData@@UBEXAAVcrSkeleton@@AAVcrIKGoal@@@Z 0057FF20
 0001:0017F4C0       ??0crArmData@@QAE@XZ       005804C0
 0001:0017F500       ?Init@crArmData@@UAEXAAVcrSkeletonData@@D@Z 00580500
 0001:0017F660       ?MatchPose@crArmData@@UBEXAAVcrSkeleton@@AAVcrIKGoal@@@Z 00580660
 0001:0017F6C0       ?SolveIK@crArmData@@UBEXAAVcrSkeleton@@AAVcrIKGoal@@@Z 005806C0
 0001:0017FCB0       ??0crHeadData@@QAE@XZ      00580CB0
 0001:0017FCD0       ?Init@crHeadData@@UAEXAAVcrSkeletonData@@@Z 00580CD0
 0001:0017FDA0       ?MatchPose@crHeadData@@UBEXAAVcrSkeleton@@AAVcrIKGoal@@@Z 00580DA0
 0001:0017FE00       ?SolveIK@crHeadData@@UBEXAAVcrSkeleton@@AAVcrIKGoal@@@Z 00580E00
 0001:0017FFE0       ??0crSpineData@@QAE@XZ     00580FE0
 0001:00180000       ?Init@crSpineData@@UAEXAAVcrSkeletonData@@@Z 00581000
 0001:001800F0       ??1crSpineData@@QAE@XZ     005810F0
 0001:00180110       ?MatchPose@crSpineData@@UBEXAAVcrSkeleton@@AAVcrIKGoal@@@Z 00581110
 0001:00180170       ?SolveIK@crSpineData@@UBEXAAVcrSkeleton@@AAVcrIKGoal@@@Z 00581170
 0001:00180330       ___setargv                 00581330
 0001:001803DA       _parse_cmdline             005813DA
 0001:001805BF       nullsub_222                005815BF
 0001:001805C0       __cfltcvt_init             005815C0
 0001:00180608       __ftol                     00581608
 0001:0018062F       _fclose                    0058162F
 0001:00180685       __fsopen                   00581685
 0001:001806A5       _fopen                     005816A5
 0001:001806B8       _atol                      005816B8
 0001:00180743       _atoi                      00581743
 0001:0018074E       __atoi64                   0058174E
 0001:00180808       _system                    00581808
 0001:0018089E       _remove                    0058189E
 0001:001808C8       __unlink                   005818C8
 0001:001808D3       __access                   005818D3
 0001:00180917       __cinit                    00581917
 0001:00180944       _exit                      00581944
 0001:00180955       __exit                     00581955
 0001:00180966       __cexit                    00581966
 0001:00180975       __c_exit                   00581975
 0001:00180984       _doexit                    00581984
 0001:00180A1D       __initterm                 00581A1D
 0001:00180A37       ?_JumpToContinuation@@YGXPAXPAUEHRegistrationNode@@@Z 00581A37
 0001:00180A80       ?_UnwindNestedFrames@@YGXPAUEHRegistrationNode@@PAUEHExceptionRecord@@@Z 00581A80
 0001:00180AA8       $ReturnPoint$16567         00581AA8
 0001:00180ACF       ___CxxFrameHandler         00581ACF
 0001:00180B05       ___CxxLongjmpUnwind@4      00581B05
 0001:00180B1F       ?_CallCatchBlock2@@YAPAXPAUEHRegistrationNode@@PBU_s_FuncInfo@@PAXHK@Z 00581B1F
 0001:00180B73       ?CatchGuardHandler@@YA?AW4_EXCEPTION_DISPOSITION@@PAUEHExceptionRecord@@PAUCatchGuardRN@@PAX2@Z 00581B73
 0001:00180B98       ?_CallSETranslator@@YAHPAUEHExceptionRecord@@PAUEHRegistrationNode@@PAX2PBU_s_FuncInfo@@H1@Z 00581B98
 0001:00180C1E       $ExceptionContinuation$16667 00581C1E
 0001:00180C4C       ?TranslatorGuardHandler@@YA?AW4_EXCEPTION_DISPOSITION@@PAUEHExceptionRecord@@PAUTranslatorGuardRN@@PAX2@Z 00581C4C
 0001:00180CC1       ?_GetRangeOfTrysToCheck@@YAPBU_s_TryBlockMapEntry@@PBU_s_FuncInfo@@HHPAI1@Z 00581CC1
 0001:00180D3C       __global_unwind2           00581D3C
 0001:00180D54       _gu_return                 00581D54
 0001:00180D5C       __unwind_handler           00581D5C
 0001:00180D7D       _uh_return                 00581D7D
 0001:00180D7E       __local_unwind2            00581D7E
 0001:00180D9B       _lu_top                    00581D9B
 0001:00180DD6       __NLG_Return2              00581DD6
 0001:00180DD8       _lu_done                   00581DD8
 0001:00180DE6       __abnormal_termination     00581DE6
 0001:00180E08       _at_done                   00581E08
 0001:00180E09       __NLG_Notify1              00581E09
 0001:00180E12       __NLG_Notify               00581E12
 0001:00180E1C       __NLG_Go                   00581E1C
 0001:00180E25       __NLG_Dispatch             00581E25
 0001:00180E2A       _sprintf                   00581E2A
 0001:00180E84       ___crtCompareStringA_SEH   00581E84
 0001:00180EB7       _lh_top                    00581EB7
 0001:00180F0B       _lh_continue               00581F0B
 0001:00180F16       _lh_dismiss                00581F16
 0001:00180F1D       _lh_bagit                  00581F1D
 0001:00180F24       _lh_unwinding              00581F24
 0001:00180F39       _lh_return                 00581F39
 0001:00180F41       __seh_longjmp_unwind@4     00581F41
 0001:00180F5C       start                      00581F5C
 0001:00181052       __amsg_exit                00582052
 0001:00181077       _fast_error_exit           00582077
 0001:0018109B       ??_M@YGXPAXIHP6EX0@Z@Z     0058209B
 0001:0018111B       ?__ArrayUnwind@@YGXPAXIHP6EX0@Z@Z 0058211B
 0001:00181190       __CIpow                    00582190
 0001:001811A9       _pow                       005821A9
 0001:001813B0       _strncpy                   005823B0
 0001:001813D4       src_misaligned             005823D4
 0001:001813F0       tail_loop_start            005823F0
 0001:001813F5       copy_tail_loop             005823F5
 0001:00181402       fill_tail_end1             00582402
 0001:0018140A       align_dest                 0058240A
 0001:00181412       dest_align_loop            00582412
 0001:00181424       dest_align_loop_end        00582424
 0001:0018142B       finish_loop                0058242B
 0001:0018142E       fill_tail_zero_bytes       0058242E
 0001:00181433       finish                     00582433
 0001:00181439       main_loop                  00582439
 0001:00181441       main_loop_entrance         00582441
 0001:0018148F       fill_with_EOS_dwords       0058248F
 0001:00181497       fill_dwords_with_EOS       00582497
 0001:00181499       fill_with_EOS_loop         00582499
 0001:001814A1       fill_tail                  005824A1
 0001:001814A6       fill_tail_end              005824A6
 0001:001814B0       _strncmp                   005824B0
 0001:001814CA       okay                       005824CA
 0001:001814DD       firstbig                   005824DD
 0001:001814DF       lastbig                    005824DF
 0001:001814E1       toend                      005824E1
 0001:001814E8       _printf                    005824E8
 0001:00181519       __purecall                 00582519
 0001:00181522       ??_L@YGXPAXIHP6EX0@Z1@Z    00582522
 0001:001815A4       _atof                      005825A4
 0001:001815F1       _strtok                    005825F1
 0001:0018168D       _localtime                 0058268D
 0001:001817ED       _time                      005827ED
 0001:001818C9       _modf                      005828C9
 0001:001819EA       __onexit                   005829EA
 0001:00181A57       _atexit                    00582A57
 0001:00181A69       ___onexitinit              00582A69
 0001:00181AA0       _strstr                    00582AA0
 0001:00181AB8       findnext                   00582AB8
 0001:00181AC9       loop_start                 00582AC9
 0001:00181ACC       in_loop                    00582ACC
 0001:00181AD4       not_found                  00582AD4
 0001:00181ADA       first_char_found           00582ADA
 0001:00181AE1       two_first_chars_equal      00582AE1
 0001:00181AE4       compare_loop               00582AE4
 0001:00181B07       strchr_call                00582B07
 0001:00181B13       match                      00582B13
 0001:00181B1A       empty_str2                 00582B1A
 0001:00181B20       _floor                     00582B20
 0001:00181BF0       __alloca_probe             00582BF0
 0001:00181BFC       probepages                 00582BFC
 0001:00181C10       lastpage                   00582C10
 0001:00181C1F       _ceil                      00582C1F
 0001:00181CEE       _sscanf                    00582CEE
 0001:00181D30       _fmod                      00582D30
 0001:00181D3A       __CIfmod                   00582D3A
 0001:00181D44       fFMOD                      00582D44
 0001:00181D46       remloop                    00582D46
 0001:00181D53       badP5_fprem                00582D53
 0001:00181D58       fprem_done                 00582D58
 0001:00181D70       __CIacos                   00582D70
 0001:00181D84       _acos                      00582D84
 0001:00181E3B       _fprintf                   00582E3B
 0001:00181E6D       ___initstdio               00582E6D
 0001:00181F12       ___endstdio                00582F12
 0001:00181F26       _getenv                    00582F26
 0001:00181FB0       _strrchr                   00582FB0
 0001:00181FD7       _isalpha                   00582FD7
 0001:00182005       _isupper                   00583005
 0001:0018202D       _islower                   0058302D
 0001:00182055       _isdigit                   00583055
 0001:0018207D       _isxdigit                  0058307D
 0001:001820AA       _isspace                   005830AA
 0001:001820D2       _ispunct                   005830D2
 0001:001820FA       _isalnum                   005830FA
 0001:00182128       _isprint                   00583128
 0001:00182156       _isgraph                   00583156
 0001:00182184       _iscntrl                   00583184
 0001:001821AC       ___isascii                 005831AC
 0001:001821B9       ___toascii                 005831B9
 0001:001821C1       ___iscsymf                 005831C1
 0001:001821FE       ___iscsym                  005831FE
 0001:0018223B       _vsprintf                  0058323B
 0001:001822A0       _strchr                    005832A0
 0001:001822A6       ___from_strstr_to_strchr   005832A6
 0001:0018235C       __statusfp                 0058335C
 0001:0018236F       __clearfp                  0058336F
 0001:00182383       __control87                00583383
 0001:001823B8       __controlfp                005833B8
 0001:001823CE       __fpreset                  005833CE
 0001:001823F8       __abstract_cw              005833F8
 0001:0018248A       __hw_cw                    0058348A
 0001:00182513       __abstract_sw              00583513
 0001:00182550       __CIasin                   00583550
 0001:00182564       _asin                      00583564
