 testgame

 Timestamp is 39903d46 (Tue Aug 08 10:03:02 2000)

 Preferred load address is 0040000

 Start         Length     Name                   Class
 0001:00000000 00283695H .text                   CODE
 0001:002836a0 00009dd1H .text$x                 CODE
 0002:00000000 0000c598H .rdata                  DATA
 0002:0000c598 0000b866H .xdata$x                DATA
 0002:00017dfe 00000000H .edata                  DATA
 0003:00000000 00000104H .CRT$XCA                DATA
 0003:00000104 00000b78H .CRT$XCU                DATA
 0003:00000c7c 00000104H .CRT$XCZ                DATA
 0003:00000d80 00000104H .CRT$XIA                DATA
 0003:00000e84 0000010eH .CRT$XIC                DATA
 0003:00000f94 00000104H .CRT$XIY                DATA
 0003:00001098 00000104H .CRT$XIZ                DATA
 0003:0000119c 00000104H .CRT$XPA                DATA
 0003:000012a0 00000104H .CRT$XPX                DATA
 0003:000013a4 00000104H .CRT$XPZ                DATA
 0003:000014a8 00000104H .CRT$XTA                DATA
 0003:000015ac 00000104H .CRT$XTB                DATA
 0003:000016b0 00000104H .CRT$XTZ                DATA
 0003:000017c0 00041dc5H .data                   DATA
 0003:00043590 000fa03cH .bss                    DATA
 0004:00000000 00000104H .idata$2                DATA
 0004:00000104 00000014H .idata$3                DATA
 0004:00000118 00000630H .idata$4                DATA
 0004:00000748 00000630H .idata$5                DATA
 0004:00000d78 000011acH .idata$6                DATA
 0005:00000000 00000216H .rsrc$01                DATA
 0005:00000220 000008b9H .rsrc$02                DATA

  Address         Publics by Value              Rva+Base     Lib:Object

 0001:00000069       __setargv                  00401069 f   setargv.obj
 0001:00000070       ?TrialTimeExpired@@YAHXZ   00401070 f   testgame.obj
 0001:00000100       ?ProgressRect@@YAXHHHHI@Z  00401100 f   testgame.obj
 0001:000001e0       ?ProgressCB@@YAXPBDH@Z     004011e0 f   testgame.obj
 0001:000002d0       ?Main@@YAHXZ               004012d0 f   testgame.obj
 0001:000018f0       ?ExceptMain@@YAHXZ         004028f0 f   testgame.obj
 0001:00001980       ?ArchInit@@YAXHPAPAD@Z     00402980 f   testgame.obj
 0001:00001990       ?ageProcessEvents@@YAXXZ   00402990 f   testgame.obj
 0001:000019a0       _main                      004029a0 f   testgame.obj
 0001:00002300       ??_H@YGXPAXIHP6EX0@Z@Z     00403300 f i testgame.obj
 0001:0000233c       _ImmAssociateContext@8     0040333c f   imm32:IMM32.dll
 0001:00002342       _ImmGetContext@4           00403342 f   imm32:IMM32.dll
 0001:00002348       _GetSystemTimeAsFileTime@4 00403348 f   kernel32:KERNEL32.dll
 0001:0000234e       _SystemTimeToFileTime@8    0040334e f   kernel32:KERNEL32.dll
 0001:00002354       _GetSystemDefaultLangID@0  00403354 f   kernel32:KERNEL32.dll
 0001:0000235a       _WaitForSingleObject@8     0040335a f   kernel32:KERNEL32.dll
 0001:00002360       _CreateMutexA@12           00403360 f   kernel32:KERNEL32.dll
 0001:00002366       _GlobalMemoryStatus@4      00403366 f   kernel32:KERNEL32.dll
 0001:0000236c       _GetDiskFreeSpaceA@20      0040336c f   kernel32:KERNEL32.dll
 0001:00002372       _OutputDebugStringA@4      00403372 f   kernel32:KERNEL32.dll
 0001:00002378       _GetProcAddress@8          00403378 f   kernel32:KERNEL32.dll
 0001:0000237e       _LoadLibraryA@4            0040337e f   kernel32:KERNEL32.dll
 0001:00002384       _MessageBoxA@16            00403384 f   user32:USER32.dll
 0001:0000238a       _EnumDisplaySettingsA@12   0040338a f   user32:USER32.dll
 0001:00002390       _SetFocus@4                00403390 f   user32:USER32.dll
 0001:00002396       _ChangeDisplaySettingsA@8  00403396 f   user32:USER32.dll
 0001:0000239c       _ShellExecuteA@24          0040339c f   shell32:SHELL32.dll
 0001:000023b0       ??0mmGameManager@@QAE@XZ   004033b0 f   mmgame:gameman.obj
 0001:00002810       ?Reset@mmGameManager@@UAEXXZ 00403810 f   mmgame:gameman.obj
 0001:00002860       ??1mmGameManager@@UAE@XZ   00403860 f   mmgame:gameman.obj
 0001:000029e0       ?BeDone@mmGameManager@@QAEXXZ 004039e0 f   mmgame:gameman.obj
 0001:000029f0       ?ForcePopupUI@mmGameManager@@QAEXXZ 004039f0 f   mmgame:gameman.obj
 0001:00002a20       ?ForceReplayUI@mmGameManager@@QAEXXZ 00403a20 f   mmgame:gameman.obj
 0001:00002a40       ?Update@mmGameManager@@UAEXXZ 00403a40 f   mmgame:gameman.obj
 0001:00002ca0       ?Stats@mmGameManager@@UAEXXZ 00403ca0 f   mmgame:gameman.obj
 0001:00002d00       ?Cull@mmGameManager@@UAEXXZ 00403d00 f   mmgame:gameman.obj
 0001:00002e40       ?AddWidgets@mmGameManager@@QAEXPAVbkBank@@@Z 00403e40 f   mmgame:gameman.obj
 0001:00002ec0       ??_GmmGameManager@@UAEPAXI@Z 00403ec0 f i mmgame:gameman.obj
 0001:00002ec0       ??_EmmGameManager@@UAEPAXI@Z 00403ec0 f i mmgame:gameman.obj
 0001:00002ef0       ??0Vector3@@QAE@XZ         00403ef0 f i mmgame:gameman.obj
 0001:00002f00       ?FileIO@asNode@@UAEXAAVdatParser@@@Z 00403f00 f i mmgame:gameman.obj
 0001:00002f10       ?AfterLoad@asNode@@UAEXXZ  00403f10 f i mmgame:gameman.obj
 0001:00002f20       ?BeforeSave@asNode@@UAEXXZ 00403f20 f i mmgame:gameman.obj
 0001:00002f30       ?GetClassNameA@asNode@@UAEPADXZ 00403f30 f i mmgame:gameman.obj
 0001:00002f40       ??_EphSleep@@QAEPAXI@Z     00403f40 f i mmgame:gameman.obj
 0001:00002fa0       ?FirstRunEula@@YA_NXZ      00403fa0 f   mmgame:ebola.obj
 0001:00003080       ?ebolaPlayMovie@@YAXPAD@Z  00404080 f   mmgame:ebola.obj
 0001:000032b0       ??0mmMirror@@QAE@XZ        004042b0 f   mmgame:mirror.obj
 0001:00003330       ??1mmMirror@@UAE@XZ        00404330 f   mmgame:mirror.obj
 0001:00003350       ?Init@mmMirror@@QAEXXZ     00404350 f   mmgame:mirror.obj
 0001:00003410       ?Reset@mmMirror@@UAEXXZ    00404410 f   mmgame:mirror.obj
 0001:00003480       ?Update@mmMirror@@UAEXXZ   00404480 f   mmgame:mirror.obj
 0001:000034a0       ?Cull@mmMirror@@UAEXXZ     004044a0 f   mmgame:mirror.obj
 0001:000035e0       ?AddWidgets@mmMirror@@QAEXPAVbkBank@@@Z 004045e0 f   mmgame:mirror.obj
 0001:00003780       ?FileIO@mmMirror@@UAEXAAVdatParser@@@Z 00404780 f   mmgame:mirror.obj
 0001:00003850       ??0vehCar@@QAE@H@Z         00404850 f   mmgame:mirror.obj
 0001:00003a60       ??1vehCar@@UAE@XZ          00404a60 f   mmgame:mirror.obj
 0001:00003bb0       ?Init@vehCar@@QAEXPBDHH_N@Z 00404bb0 f   mmgame:mirror.obj
 0001:00003f80       ?SetColliderID@vehCar@@QAEXH@Z 00404f80 f   mmgame:mirror.obj
 0001:00003f90       ?SetAudio@vehCar@@QAEXPAVvehCarAudioContainer@@@Z 00404f90 f   mmgame:mirror.obj
 0001:00003fa0       ?InitAudio@vehCar@@QAEXPBDH@Z 00404fa0 f   mmgame:mirror.obj
 0001:00004040       ?SetInput@vehCar@@QAEXPAVvehInput@@@Z 00405040 f   mmgame:mirror.obj
 0001:00004050       ?GetInput@vehCar@@QAEPAVvehInput@@XZ 00405050 f   mmgame:mirror.obj
 0001:00004060       ?SetDriver@vehCar@@QAEXPAVvehDriver@@@Z 00405060 f   mmgame:mirror.obj
 0001:00004070       ?SetDrivable@vehCar@@QAEXHH@Z 00405070 f   mmgame:mirror.obj
 0001:000040e0       ?Reset@vehCar@@QAEXXZ      004050e0 f   mmgame:mirror.obj
 0001:00004200       ?ClearDamage@vehCar@@QAEXXZ 00405200 f   mmgame:mirror.obj
 0001:00004230       ?PreUpdate@vehCar@@UAEXXZ  00405230 f   mmgame:mirror.obj
 0001:00004320       ?UpdateTrack@vehCar@@AAEXAAVlvlTrackManager@@ABVvehWheel@@@Z 00405320 f   mmgame:mirror.obj
 0001:000043c0       ?DrawTracks@vehCar@@QAEXXZ 004053c0 f   mmgame:mirror.obj
 0001:00004470       ?Update@vehCar@@UAEXXZ     00405470 f   mmgame:mirror.obj
 0001:00004710       ?IsPlayer@vehCar@@QAEHXZ   00405710 f   mmgame:mirror.obj
 0001:00004730       ?PostUpdate@vehCar@@UAEXXZ 00405730 f   mmgame:mirror.obj
 0001:000048f0       ?GetICS@vehCar@@UAEPAVphInertialCS@@XZ 004058f0 f   mmgame:mirror.obj
 0001:00004900       ?GetInst@vehCar@@UAEPAVlvlInstance@@XZ 00405900 f   mmgame:mirror.obj
 0001:00004910       ?RequiresTerrainCollision@vehCar@@UAE_NXZ 00405910 f   mmgame:mirror.obj
 0001:00004a20       ?DrivableCB@vehCar@@QAEXXZ 00405a20 f   mmgame:mirror.obj
 0001:00004a40       ?AddWidgets@vehCar@@QAEXAAVbkBank@@@Z 00405a40 f   mmgame:mirror.obj
 0001:00004b60       ??_EmmMirror@@UAEPAXI@Z    00405b60 f i mmgame:mirror.obj
 0001:00004b60       ??_GmmMirror@@UAEPAXI@Z    00405b60 f i mmgame:mirror.obj
 0001:00004b90       ??_9@$BBA@AE               00405b90 f i mmgame:mirror.obj
 0001:00004ba0       ?GetClassName@mmMirror@@UAEPADXZ 00405ba0 f i mmgame:mirror.obj
 0001:00004bb0       ??_EBase@@UAEPAXI@Z        00405bb0 f i mmgame:mirror.obj
 0001:00004bb0       ??_GBase@@UAEPAXI@Z        00405bb0 f i mmgame:mirror.obj
 0001:00004be0       ?PreUpdate@dgPhysEntity@@UAEXXZ 00405be0 f i mmgame:mirror.obj
 0001:00004bf0       ?GetCollider@dgPhysEntity@@UAEPAVphCollider@@XZ 00405bf0 f i mmgame:mirror.obj
 0001:00004c00       ?DetachMe@dgPhysEntity@@UAEXXZ 00405c00 f i mmgame:mirror.obj
 0001:00004c10       ?RequiresTerrainCollision@dgPhysEntity@@UAE_NXZ 00405c10 f i mmgame:mirror.obj
 0001:00004c20       ?FirstImpactCallback@dgPhysEntity@@UAEXXZ 00405c20 f i mmgame:mirror.obj
 0001:00004c30       ??_GvehCar@@UAEPAXI@Z      00405c30 f i mmgame:mirror.obj
 0001:00004c30       ??_EvehCar@@UAEPAXI@Z      00405c30 f i mmgame:mirror.obj
 0001:00004c60       ??1dgPhysEntity@@UAE@XZ    00405c60 f i mmgame:mirror.obj
 0001:00004c70       ??_GdgPhysEntity@@UAEPAXI@Z 00405c70 f i mmgame:mirror.obj
 0001:00004c70       ??_EdgPhysEntity@@UAEPAXI@Z 00405c70 f i mmgame:mirror.obj
 0001:00004ca0       ?GetInstance@lvlMaterialMgr@@SAAAV1@XZ 00405ca0 f i mmgame:mirror.obj
 0001:00004d10       ??_9@$B3AE                 00405d10 f i mmgame:mirror.obj
 0001:00004d20       ??0mmPlayer@@QAE@XZ        00405d20 f   mmgame:player.obj
 0001:000051c0       ??1mmPlayer@@UAE@XZ        004061c0 f   mmgame:player.obj
 0001:00005350       ?BeforeSave@mmPlayer@@UAEXXZ 00406350 f   mmgame:player.obj
 0001:00005360       ?AfterLoad@mmPlayer@@UAEXXZ 00406360 f   mmgame:player.obj
 0001:00005370       ?ReInit@mmPlayer@@QAEXPAD@Z 00406370 f   mmgame:player.obj
 0001:000054e0       ?Init@mmPlayer@@QAEXPAD0PAVmmGame@@@Z 004064e0 f   mmgame:player.obj
 0001:00005c90       ?InitSpeechAudio@mmPlayer@@AAEXPAD@Z 00406c90 f   mmgame:player.obj
 0001:00005db0       ?SetGameCallback@mmPlayer@@QAEXVdatCallback@@@Z 00406db0 f   mmgame:player.obj
 0001:00005dd0       ?ImpactCallback@mmPlayer@@QAEXPAX0@Z 00406dd0 f   mmgame:player.obj
 0001:00005e00       ?SetPreRaceCam@mmPlayer@@QAEXXZ 00406e00 f   mmgame:player.obj
 0001:00005f00       ?SetPostRaceCam@mmPlayer@@QAEXXZ 00406f00 f   mmgame:player.obj
 0001:00006010       ?SetMPPostCam@mmPlayer@@QAEXPAVMatrix34@@M@Z 00407010 f   mmgame:player.obj
 0001:00006120       ?IsPOV@mmPlayer@@QAEHXZ    00407120 f   mmgame:player.obj
 0001:00006150       ?SetWideFOV@mmPlayer@@QAEXH@Z 00407150 f   mmgame:player.obj
 0001:00006280       ?GetNextCycleCamIndex@mmPlayer@@IAEHXZ 00407280 f   mmgame:player.obj
 0001:000062a0       ?GetNextCycleXCamIndex@mmPlayer@@IAEHXZ 004072a0 f   mmgame:player.obj
 0001:000062c0       ?GetCurrentGameCamIndex@mmPlayer@@IAEHXZ 004072c0 f   mmgame:player.obj
 0001:000062d0       ?GetCurrentXCamIndex@mmPlayer@@IAEHXZ 004072d0 f   mmgame:player.obj
 0001:000062e0       ?SetCamera@mmPlayer@@IAEXHH@Z 004072e0 f   mmgame:player.obj
 0001:00006460       ?GetCamera@mmPlayer@@IAEXAAH0@Z 00407460 f   mmgame:player.obj
 0001:000064b0       ?GetCurrentCameraPtr@mmPlayer@@AAEPAVcamCarCS@@XZ 004074b0 f   mmgame:player.obj
 0001:000064f0       ?UpdateHOG@mmPlayer@@QAEXXZ 004074f0 f   mmgame:player.obj
 0001:00006630       ?Reset@mmPlayer@@UAEXXZ    00407630 f   mmgame:player.obj
 0001:000067b0       ?ResetFF@mmPlayer@@QAEXXZ  004077b0 f   mmgame:player.obj
 0001:00006820       ?SetSteering@mmPlayer@@QAEXM@Z 00407820 f   mmgame:player.obj
 0001:00006840       ?playerFilterSteering@@YAMM@Z 00407840 f   mmgame:player.obj
 0001:00006860       ?FilterSteering@mmPlayer@@QAEMM@Z 00407860 f   mmgame:player.obj
 0001:00006f10       ?UpdateFF@mmPlayer@@QAEXXZ 00407f10 f   mmgame:player.obj
 0001:00007330       ?Update@mmPlayer@@UAEXXZ   00408330 f   mmgame:player.obj
 0001:00007da0       ?SetCamInterest@mmPlayer@@QAEXPAVphInertialCS@@@Z 00408da0 f   mmgame:player.obj
 0001:00007e10       ?IsMaxDamaged@mmPlayer@@QAEHXZ 00408e10 f   mmgame:player.obj
 0001:00007e30       ?EnableRegen@mmPlayer@@QAEXH@Z 00408e30 f   mmgame:player.obj
 0001:00007e50       ?ResetDamage@mmPlayer@@QAEXXZ 00408e50 f   mmgame:player.obj
 0001:00007e70       ?UpdateRegen@mmPlayer@@QAEXXZ 00408e70 f   mmgame:player.obj
 0001:00007ee0       ?FFImpactCallback@mmPlayer@@QAEXM@Z 00408ee0 f   mmgame:player.obj
 0001:00007fc0       ?AddWidgets@mmPlayer@@QAEXPAVbkBank@@@Z 00408fc0 f   mmgame:player.obj
 0001:00008b80       ?FileIO@mmPlayer@@UAEXAAVdatParser@@@Z 00409b80 f   mmgame:player.obj
 0001:00009030       ??_EmmPlayer@@UAEPAXI@Z    0040a030 f i mmgame:player.obj
 0001:00009030       ??_GmmPlayer@@UAEPAXI@Z    0040a030 f i mmgame:player.obj
 0001:00009060       ??1camPolarCS@@UAE@XZ      0040a060 f i mmgame:player.obj
 0001:00009070       ??1camAICS@@UAE@XZ         0040a070 f i mmgame:player.obj
 0001:00009080       ??1camPointCS@@UAE@XZ      0040a080 f i mmgame:player.obj
 0001:00009090       ??1camPreCS@@UAE@XZ        0040a090 f i mmgame:player.obj
 0001:000090a0       ??1camPostCS@@UAE@XZ       0040a0a0 f i mmgame:player.obj
 0001:000090b0       ?AddValue@datParser@@QAEXPBDPAMPAVdatCallback@@@Z 0040a0b0 f i mmgame:player.obj
 0001:000090d0       ??0mmReplayManager@@QAE@XZ 0040a0d0 f   mmgame:replay.obj
 0001:000091b0       ??1mmReplayManager@@UAE@XZ 0040a1b0 f   mmgame:replay.obj
 0001:00009210       ?Reset@mmReplayManager@@UAEXXZ 0040a210 f   mmgame:replay.obj
 0001:00009270       ?Update@mmReplayManager@@UAEXXZ 0040a270 f   mmgame:replay.obj
 0001:000096a0       ?Cull@mmReplayManager@@UAEXXZ 0040a6a0 f   mmgame:replay.obj
 0001:000096b0       ?ProcessCam@mmReplayManager@@AAEXXZ 0040a6b0 f   mmgame:replay.obj
 0001:00009730       ?StartReplay@mmReplayManager@@AAEXXZ 0040a730 f   mmgame:replay.obj
 0001:000097a0       ?SetReplayDesc@mmReplayManager@@QAEXPAD@Z 0040a7a0 f   mmgame:replay.obj
 0001:000097e0       ?LoadReplayDesc@mmReplayManager@@QAEHPAD@Z 0040a7e0 f   mmgame:replay.obj
 0001:000098b0       ?LoadReplay@mmReplayManager@@QAEXPAD@Z 0040a8b0 f   mmgame:replay.obj
 0001:000099e0       ?EndOfReplay@mmReplayManager@@QAE_NXZ 0040a9e0 f   mmgame:replay.obj
 0001:00009a00       ?SaveReplayDesc@mmReplayManager@@QAEXPAD@Z 0040aa00 f   mmgame:replay.obj
 0001:00009a90       ?SaveReplay@mmReplayManager@@QAEXPAD@Z 0040aa90 f   mmgame:replay.obj
 0001:00009b80       ?GetBrakes@mmReplayManager@@QAEMXZ 0040ab80 f   mmgame:replay.obj
 0001:00009bb0       ?GetHandBrakes@mmReplayManager@@QAEMXZ 0040abb0 f   mmgame:replay.obj
 0001:00009be0       ?GetSteering@mmReplayManager@@QAEMXZ 0040abe0 f   mmgame:replay.obj
 0001:00009c10       ?GetThrottle@mmReplayManager@@QAEMXZ 0040ac10 f   mmgame:replay.obj
 0001:00009c40       ?GetData@mmReplayManager@@QAEXPAHPA_N@Z 0040ac40 f   mmgame:replay.obj
 0001:00009c80       ?SetData@mmReplayManager@@QAEXH_N@Z 0040ac80 f   mmgame:replay.obj
 0001:00009cc0       ?AddWidgets@mmReplayManager@@QAEXPAVbkBank@@@Z 0040acc0 f   mmgame:replay.obj
 0001:00009cd0       ?GetReplayInfo@mmReplayManager@@AAEXXZ 0040acd0 f   mmgame:replay.obj
 0001:00009e60       ?SetReplayInfo@mmReplayManager@@AAEXXZ 0040ae60 f   mmgame:replay.obj
 0001:00009fe0       ?WriteReplayInfo@mmReplayManager@@AAEXPAVStream@@@Z 0040afe0 f   mmgame:replay.obj
 0001:0000a1e0       ?ReadReplayInfo@mmReplayManager@@AAEXPAVStream@@@Z 0040b1e0 f   mmgame:replay.obj
 0001:0000a3d0       ??_GmmReplayManager@@UAEPAXI@Z 0040b3d0 f i mmgame:replay.obj
 0001:0000a3d0       ??_EmmReplayManager@@UAEPAXI@Z 0040b3d0 f i mmgame:replay.obj
 0001:0000a400       ?GetClassName@asNode@@UAEPADXZ 0040b400 f i mmgame:replay.obj
 0001:0000a410       ?ReportTimeAlloc@@YAXM@Z   0040b410 f   mmgame:interface.obj
 0001:0000a420       ?IsStock@@YAHPAD@Z         0040b420 f   mmgame:interface.obj
 0001:0000a430       ?GetHostCars@@YAXAAVstring@@@Z 0040b430 f   mmgame:interface.obj
 0001:0000a530       ??0mmInterface@@QAE@XZ     0040b530 f   mmgame:interface.obj
 0001:0000b900       ?InitPlayerInfo@mmInterface@@QAEXXZ 0040c900 f   mmgame:interface.obj
 0001:0000bda0       ??1mmInterface@@UAE@XZ     0040cda0 f   mmgame:interface.obj
 0001:0000beb0       ?MessageCallback@mmInterface@@QAEXPAX0@Z 0040ceb0 f   mmgame:interface.obj
 0001:0000c4d0       ?MessageCallback2@mmInterface@@QAEXPAX0@Z 0040d4d0 f   mmgame:interface.obj
 0001:0000c950       ?Reset@mmInterface@@UAEXXZ 0040d950 f   mmgame:interface.obj
 0001:0000c960       ?ShowMain@mmInterface@@QAEXH@Z 0040d960 f   mmgame:interface.obj
 0001:0000ccf0       ?GetReplayDescCB@mmInterface@@AAEXXZ 0040dcf0 f   mmgame:interface.obj
 0001:0000cdb0       ?ShowLockedVehicleMessage@mmInterface@@QAEXXZ 0040ddb0 f   mmgame:interface.obj
 0001:0000cdd0       ?BeDone@mmInterface@@QAEXXZ 0040ddd0 f   mmgame:interface.obj
 0001:0000cee0       ?Update@mmInterface@@UAEXXZ 0040dee0 f   mmgame:interface.obj
 0001:0000e8e0       ?NetJoinCB@mmInterface@@AAEXXZ 0040f8e0 f   mmgame:interface.obj
 0001:0000e940       ?NetNameCB@mmInterface@@AAEXXZ 0040f940 f   mmgame:interface.obj
 0001:0000e970       ?JoinGame@mmInterface@@AAEXXZ 0040f970 f   mmgame:interface.obj
 0001:0000e9b0       ?JoinLobbyGame@mmInterface@@AAEXXZ 0040f9b0 f   mmgame:interface.obj
 0001:0000e9d0       ?JoinLAN@mmInterface@@AAEXXZ 0040f9d0 f   mmgame:interface.obj
 0001:0000ea60       ?JoinSerial@mmInterface@@AAEHXZ 0040fa60 f   mmgame:interface.obj
 0001:0000eb20       ?JoinModem@mmInterface@@AAEHXZ 0040fb20 f   mmgame:interface.obj
 0001:0000ec30       ?UpdateLobby@mmInterface@@QAEXXZ 0040fc30 f   mmgame:interface.obj
 0001:0000f790       ?Switch@mmInterface@@QAEXHH@Z 00410790 f   mmgame:interface.obj
 0001:0000fc60       ?LobbySwitch@mmInterface@@QAEXHH@Z 00410c60 f   mmgame:interface.obj
 0001:0000ffe0       ?GetUnlockedCar@mmInterface@@AAEXXZ 00410fe0 f   mmgame:interface.obj
 0001:00010030       ?GetUnlockedColor@mmInterface@@AAEXXZ 00411030 f   mmgame:interface.obj
 0001:00010040       ?RequestProverb@mmInterface@@AAEXXZ 00411040 f   mmgame:interface.obj
 0001:00010160       ?LimitToHostCars@mmInterface@@AAEXVstring@@@Z 00411160 f   mmgame:interface.obj
 0001:000102b0       ?PlayerRemoveCB@mmInterface@@AAEXXZ 004112b0 f   mmgame:interface.obj
 0001:000102e0       ?PlayerRemove@mmInterface@@AAEXPAD@Z 004112e0 f   mmgame:interface.obj
 0001:000104d0       ?PlayerCreateCB@mmInterface@@AAEXXZ 004114d0 f   mmgame:interface.obj
 0001:00010520       ?PlayerCreate@mmInterface@@AAEHPAD@Z 00411520 f   mmgame:interface.obj
 0001:00010700       ?PlayerLoadCB@mmInterface@@AAEXXZ 00411700 f   mmgame:interface.obj
 0001:00010730       ?PlayerGraphicsCB@mmInterface@@AAEXXZ 00411730 f   mmgame:interface.obj
 0001:000107b0       ?PlayerLoad@mmInterface@@AAEXPAD@Z 004117b0 f   mmgame:interface.obj
 0001:000108f0       ?PlayerSwitchCityCB@mmInterface@@AAEXXZ 004118f0 f   mmgame:interface.obj
 0001:00010920       ?PlayerSetState@mmInterface@@AAEXXZ 00411920 f   mmgame:interface.obj
 0001:00010b50       ?CitySetupCB@mmInterface@@AAEXXZ 00411b50 f   mmgame:interface.obj
 0001:00010d50       ?GetTimeString@mmInterface@@AAEXMPAD@Z 00411d50 f   mmgame:interface.obj
 0001:00010db0       ?GetScoreString@mmInterface@@AAEXHPAD@Z 00411db0 f   mmgame:interface.obj
 0001:00010df0       ?GetRaceString@mmInterface@@AAEXHPAD@Z 00411df0 f   mmgame:interface.obj
 0001:00010e50       ?GetRaceName@mmInterface@@AAEPADW4dgGameMode@@HPAD@Z 00411e50 f   mmgame:interface.obj
 0001:00010ff0       ?HOFInitRecords@mmInterface@@AAEXHPAD@Z 00411ff0 f   mmgame:interface.obj
 0001:000110c0       ?HOFCB@mmInterface@@AAEXXZ 004120c0 f   mmgame:interface.obj
 0001:000110f0       ?HOFFillRecords@mmInterface@@AAEXPAD@Z 004120f0 f   mmgame:interface.obj
 0001:00011b80       ?PlayerInitStats@mmInterface@@AAEXPAD@Z 00412b80 f   mmgame:interface.obj
 0001:00011c30       ?PlayerFillStats@mmInterface@@AAEXXZ 00412c30 f   mmgame:interface.obj
 0001:00011de0       ?PlayerFillRecords@mmInterface@@AAEXPAD@Z 00412de0 f   mmgame:interface.obj
 0001:00012290       ?PlayerFillCrashRecords@mmInterface@@AAEXPAD@Z 00413290 f   mmgame:interface.obj
 0001:00012360       ?PlayerResolveScore@mmInterface@@AAEXXZ 00413360 f   mmgame:interface.obj
 0001:000125e0       ?PlayerResolveCars@mmInterface@@AAEXXZ 004135e0 f   mmgame:interface.obj
 0001:00012640       ?PlayerReadState@mmInterface@@AAEXXZ 00413640 f   mmgame:interface.obj
 0001:00012660       ?RefreshDriverList@mmInterface@@AAEXXZ 00413660 f   mmgame:interface.obj
 0001:00012710       ?SetStateRace@mmInterface@@AAEXH@Z 00413710 f   mmgame:interface.obj
 0001:00012720       ?SetStateDefaults@mmInterface@@AAEXXZ 00413720 f   mmgame:interface.obj
 0001:00012740       ?InitNetwork@mmInterface@@AAEXXZ 00413740 f   mmgame:interface.obj
 0001:00012850       ?InitLobby@mmInterface@@QAEXXZ 00413850 f   mmgame:interface.obj
 0001:00012970       ?InitProtocols@mmInterface@@AAEXXZ 00413970 f   mmgame:interface.obj
 0001:00012990       ?ShowSessions@mmInterface@@AAEXXZ 00413990 f   mmgame:interface.obj
 0001:00012b60       ?ClearSessions@mmInterface@@AAEXXZ 00413b60 f   mmgame:interface.obj
 0001:00012b80       ?RefreshSessions@mmInterface@@AAEXXZ 00413b80 f   mmgame:interface.obj
 0001:00012bb0       ?JoinSession@mmInterface@@AAEHH@Z 00413bb0 f   mmgame:interface.obj
 0001:00012d90       ?JoinPasswordSession@mmInterface@@AAEHH@Z 00413d90 f   mmgame:interface.obj
 0001:00012f10       ?MultiAllReady@mmInterface@@AAE_NXZ 00413f10 f   mmgame:interface.obj
 0001:00012f70       ?MultiStartGame@mmInterface@@AAEXXZ 00413f70 f   mmgame:interface.obj
 0001:00013070       ?MultiFillRoster@mmInterface@@AAEXXZ 00414070 f   mmgame:interface.obj
 0001:000130f0       ?SetHostProtocol@mmInterface@@AAEXXZ 004140f0 f   mmgame:interface.obj
 0001:00013190       ?SetProtocol@mmInterface@@AAEXXZ 00414190 f   mmgame:interface.obj
 0001:00013250       ?SetProtocol2@mmInterface@@AAEHXZ 00414250 f   mmgame:interface.obj
 0001:000132a0       ?CreatePlayer@mmInterface@@AAEHH@Z 004142a0 f   mmgame:interface.obj
 0001:00013520       ?GetHostPlayerData@mmInterface@@AAEHAAUmmPlayerInfo@@@Z 00414520 f   mmgame:interface.obj
 0001:00013570       ?GetUniquePlayerName@mmInterface@@AAEXXZ 00414570 f   mmgame:interface.obj
 0001:00013650       ?ChangePlayerData@mmInterface@@AAEXH@Z 00414650 f   mmgame:interface.obj
 0001:00013860       ?RefreshPlayers@mmInterface@@AAEXXZ 00414860 f   mmgame:interface.obj
 0001:00013ac0       ?GetSessionData@mmInterface@@AAEXUNETSESSION_DESC@@@Z 00414ac0 f   mmgame:interface.obj
 0001:00013d10       ?CreateSession@mmInterface@@AAEHXZ 00414d10 f   mmgame:interface.obj
 0001:00013e90       ?SetSessionData@mmInterface@@AAEXPAUNETSESSION_DESC@@@Z 00414e90 f   mmgame:interface.obj
 0001:00014130       ?SetCRStateData@mmInterface@@AAEXXZ 00415130 f   mmgame:interface.obj
 0001:000141d0       ?LobbyCreate@mmInterface@@AAEHXZ 004151d0 f   mmgame:interface.obj
 0001:00014540       ?SendChatMessage@mmInterface@@AAEXPAX@Z 00415540 f   mmgame:interface.obj
 0001:00014590       ?SendMsg@mmInterface@@AAEXHH@Z 00415590 f   mmgame:interface.obj
 0001:000145b0       ?SendStartMsg@mmInterface@@AAEXXZ 004155b0 f   mmgame:interface.obj
 0001:00014620       ?BootPlayerCB@mmInterface@@AAEXPAX0@Z 00415620 f   mmgame:interface.obj
 0001:00014650       ?SendBootMsg@mmInterface@@AAEXK@Z 00415650 f   mmgame:interface.obj
 0001:00014670       ?SendReadyStatus@mmInterface@@AAEXXZ 00415670 f   mmgame:interface.obj
 0001:000146a0       ?SendReadyReq@mmInterface@@AAEXXZ 004156a0 f   mmgame:interface.obj
 0001:000146c0       ?SendHostCars@mmInterface@@AAEXK@Z 004156c0 f   mmgame:interface.obj
 0001:00014740       ?SetupArchiveTest@mmInterface@@QAEXAAH@Z 00415740 f   mmgame:interface.obj
 0001:000149b0       ?PlayUIMusic@mmInterface@@AAEXXZ 004159b0 f   mmgame:interface.obj
 0001:00014a90       ?RefreshMe@mmInterface@@AAEXXZ 00415a90 f   mmgame:interface.obj
 0001:00014be0       ??1string@@QAE@XZ          00415be0 f i mmgame:interface.obj
 0001:00014bf0       ??_GmmInterface@@UAEPAXI@Z 00415bf0 f i mmgame:interface.obj
 0001:00014bf0       ??_EmmInterface@@UAEPAXI@Z 00415bf0 f i mmgame:interface.obj
 0001:00014c20       ?Init@string@@QAEXH@Z      00415c20 f i mmgame:interface.obj
 0001:00014c70       ??0mmGame@@QAE@XZ          00415c70 f   mmgame:game.obj
 0001:00014ec0       ?Init@mmGame@@UAEHXZ       00415ec0 f   mmgame:game.obj
 0001:000159c0       ?InitGizmos@mmGame@@IAEXXZ 004169c0 f   mmgame:game.obj
 0001:00015b00       ?InitWeather@mmGame@@IAEXXZ 00416b00 f   mmgame:game.obj
 0001:00015b80       ?InitOtherPlayers@mmGame@@UAEXXZ 00416b80 f   mmgame:game.obj
 0001:00015d00       ?CollideAIOpponents@mmGame@@QAEXXZ 00416d00 f   mmgame:game.obj
 0001:00015e60       ?InitGameStrings@mmGame@@UAEXXZ 00416e60 f   mmgame:game.obj
 0001:00016160       ??1mmGame@@UAE@XZ          00417160 f   mmgame:game.obj
 0001:00016430       ?RespawnXYZ@mmGame@@IAEXAAVVector3@@AAM_N22@Z 00417430 f   mmgame:game.obj
 0001:00016610       ?IsPopupEnabled@mmGame@@QAEHXZ 00417610 f   mmgame:game.obj
 0001:00016620       ?Reset@mmGame@@UAEXXZ      00417620 f   mmgame:game.obj
 0001:000166e0       ?StartMusic@mmGame@@QAEXXZ 004176e0 f   mmgame:game.obj
 0001:000167e0       ?Update@mmGame@@UAEXXZ     004177e0 f   mmgame:game.obj
 0001:00016b30       ?UpdateDMusic@mmGame@@QAEXXZ 00417b30 f   mmgame:game.obj
 0001:00016c10       ?DropThruCityHandler@mmGame@@UAEXXZ 00417c10 f   mmgame:game.obj
 0001:00016c20       ?HitWaterHandler@mmGame@@UAEXXZ 00417c20 f   mmgame:game.obj
 0001:00016c30       ?UpdateDebugInput@mmGame@@QAE_NXZ 00417c30 f   mmgame:game.obj
 0001:00017390       ?UpdatePaused@mmGame@@UAEXXZ 00418390 f   mmgame:game.obj
 0001:000174a0       ?UpdateHorn@mmGame@@QAEX_N@Z 004184a0 f   mmgame:game.obj
 0001:00017590       ?UpdateGameInput@mmGame@@QAEXXZ 00418590 f   mmgame:game.obj
 0001:00017960       ?UpdateSteeringBrakes@mmGame@@QAEXXZ 00418960 f   mmgame:game.obj
 0001:00017ab0       ?SetIconsState@mmGame@@QAEXXZ 00418ab0 f   mmgame:game.obj
 0001:00017ae0       ?PlayerSetState@mmGame@@QAEXXZ 00418ae0 f   mmgame:game.obj
 0001:00017c40       ?BeDone@mmGame@@UAEXH@Z    00418c40 f   mmgame:game.obj
 0001:00017d10       ?CalculateRaceScore@mmGame@@IAEHHH@Z 00418d10 f   mmgame:game.obj
 0001:00017d60       ?SendChatMessage@mmGame@@UAEXPAD@Z 00418d60 f   mmgame:game.obj
 0001:00017f20       ?FarClipCB@mmGame@@QAEXXZ  00418f20 f   mmgame:game.obj
 0001:00017f50       ?SetLevelGraphics@mmGame@@QAEXXZ 00418f50 f   mmgame:game.obj
 0001:00017fd0       ?CycleCam@mmGame@@QAEXXZ   00418fd0 f   mmgame:game.obj
 0001:00017fe0       ?NetHost@mmGame@@QAEHXZ    00418fe0 f   mmgame:game.obj
 0001:00018000       ?FindGroundPos@mmGame@@QAEXAAVVector3@@0@Z 00419000 f   mmgame:game.obj
 0001:00018140       ?SaveWaypointsCB@mmGame@@QAEXXZ 00419140 f   mmgame:game.obj
 0001:00018150       ?SaveWaypoints@mmGame@@QAEXPAD@Z 00419150 f   mmgame:game.obj
 0001:00018270       ?CollideCheckpoints@mmGame@@QAEXXZ 00419270 f   mmgame:game.obj
 0001:000183c0       ?ChangeCurrent@mmGame@@QAEXXZ 004193c0 f   mmgame:game.obj
 0001:00018430       ?SetAIResetPos@mmGame@@QAEXXZ 00419430 f   mmgame:game.obj
 0001:000184b0       ?DumpStartPoints@mmGame@@QAEXXZ 004194b0 f   mmgame:game.obj
 0001:00018640       ?AddWidgets@mmGame@@QAEXPAVbkBank@@@Z 00419640 f   mmgame:game.obj
 0001:00018b00       ??_EmmGame@@UAEPAXI@Z      00419b00 f i mmgame:game.obj
 0001:00018b00       ??_GmmGame@@UAEPAXI@Z      00419b00 f i mmgame:game.obj
 0001:00018b30       ??0phIntersectionPoint@@QAE@XZ 00419b30 f i mmgame:game.obj
 0001:00018b50       ??0phIntersection@@QAE@XZ  00419b50 f i mmgame:game.obj
 0001:00018bb0       ??0Vector4@@QAE@XZ         00419bb0 f i mmgame:game.obj
 0001:00018bd0       ?init_gizmo_mgr@@YAPAVgizSailboatMgr@@PAVmmGame@@PBD1@Z 00419bd0 f i mmgame:game.obj
 0001:00018d90       ?init_gizmo_mgr@@YAPAVgizFerryMgr@@PAVmmGame@@PBD1@Z 00419d90 f i mmgame:game.obj
 0001:00018f50       ?init_gizmo_mgr@@YAPAVgizParkedCarMgr@@PAVmmGame@@PBD1@Z 00419f50 f i mmgame:game.obj
 0001:00019110       ?init_gizmo_mgr@@YAPAVgizBridgeMgr@@PAVmmGame@@PBD1@Z 0041a110 f i mmgame:game.obj
 0001:000192d0       ?init_gizmo_mgr@@YAPAVgizTrainMgr@@PAVmmGame@@PBD1@Z 0041a2d0 f i mmgame:game.obj
 0001:00019490       ??0mmSingleStunt@@QAE@XZ   0041a490 f   mmgame:singlestunt.obj
 0001:00019570       ??1mmSingleStunt@@UAE@XZ   0041a570 f   mmgame:singlestunt.obj
 0001:000195f0       ?Init@mmSingleStunt@@UAEHXZ 0041a5f0 f   mmgame:singlestunt.obj
 0001:000196f0       ?InitMyPlayer@mmSingleStunt@@UAEXXZ 0041a6f0 f   mmgame:singlestunt.obj
 0001:00019750       ?InitHUD@mmSingleStunt@@UAEXXZ 0041a750 f   mmgame:singlestunt.obj
 0001:00019a80       ?LoadEventFile@mmSingleStunt@@AAE_NPAD@Z 0041aa80 f   mmgame:singlestunt.obj
 0001:00019d20       ?InitNewEvent@mmSingleStunt@@QAEXXZ 0041ad20 f   mmgame:singlestunt.obj
 0001:00019e70       ?InitGameObjects@mmSingleStunt@@UAEXXZ 0041ae70 f   mmgame:singlestunt.obj
 0001:0001a150       ?InitOtherPlayers@mmSingleStunt@@UAEXXZ 0041b150 f   mmgame:singlestunt.obj
 0001:0001a190       ?Reset@mmSingleStunt@@UAEXXZ 0041b190 f   mmgame:singlestunt.obj
 0001:0001a260       ?EnableRacers@mmSingleStunt@@QAEXXZ 0041b260 f   mmgame:singlestunt.obj
 0001:0001a310       ?GetOpponentIndex@mmSingleStunt@@AAEHXZ 0041b310 f   mmgame:singlestunt.obj
 0001:0001a330       ?HitWaterHandler@mmSingleStunt@@UAEXXZ 0041b330 f   mmgame:singlestunt.obj
 0001:0001a390       ?Update@mmSingleStunt@@UAEXXZ 0041b390 f   mmgame:singlestunt.obj
 0001:0001a3a0       ?UpdateGameInput@mmSingleStunt@@UAEXH@Z 0041b3a0 f   mmgame:singlestunt.obj
 0001:0001a3b0       ?UpdateGame@mmSingleStunt@@UAEXXZ 0041b3b0 f   mmgame:singlestunt.obj
 0001:0001a470       ?UpdateEvade@mmSingleStunt@@AAEXXZ 0041b470 f   mmgame:singlestunt.obj
 0001:0001aa90       ?UpdateAccel@mmSingleStunt@@AAEXXZ 0041ba90 f   mmgame:singlestunt.obj
 0001:0001af50       ?UpdateJump@mmSingleStunt@@AAEXXZ 0041bf50 f   mmgame:singlestunt.obj
 0001:0001b5f0       ?UpdateChase@mmSingleStunt@@AAEXXZ 0041c5f0 f   mmgame:singlestunt.obj
 0001:0001bc20       ?UpdateFrogger@mmSingleStunt@@AAEXXZ 0041cc20 f   mmgame:singlestunt.obj
 0001:0001c330       ?UpdateCorner@mmSingleStunt@@AAEXXZ 0041d330 f   mmgame:singlestunt.obj
 0001:0001cc00       ?UpdateBlitz@mmSingleStunt@@AAEXXZ 0041dc00 f   mmgame:singlestunt.obj
 0001:0001d230       ?UpdateStop@mmSingleStunt@@AAEXXZ 0041e230 f   mmgame:singlestunt.obj
 0001:0001d930       ?UpdateCollide@mmSingleStunt@@AAEXXZ 0041e930 f   mmgame:singlestunt.obj
 0001:0001de20       ?CheckTimeUp@mmSingleStunt@@AAE_NXZ 0041ee20 f   mmgame:singlestunt.obj
 0001:0001deb0       ?CheckCopPursuit@mmSingleStunt@@AAE_NXZ 0041eeb0 f   mmgame:singlestunt.obj
 0001:0001e030       ?HUDMessage@mmSingleStunt@@AAEXH@Z 0041f030 f   mmgame:singlestunt.obj
 0001:0001e060       ?EventSoundCtrl@mmSingleStunt@@QAEX_NH@Z 0041f060 f   mmgame:singlestunt.obj
 0001:0001e0b0       ?PlayTimerWarning@mmSingleStunt@@AAEXM@Z 0041f0b0 f   mmgame:singlestunt.obj
 0001:0001e180       ?SwitchState@mmSingleStunt@@UAEXH@Z 0041f180 f   mmgame:singlestunt.obj
 0001:0001e190       ?NextRaceAvailable@mmSingleStunt@@AAE_NXZ 0041f190 f   mmgame:singlestunt.obj
 0001:0001e1b0       ?NextRace@mmSingleStunt@@UAEXXZ 0041f1b0 f   mmgame:singlestunt.obj
 0001:0001e320       ?RegisterFinish@mmSingleStunt@@QAEHH@Z 0041f320 f   mmgame:singlestunt.obj
 0001:0001e550       ?AddWidgets@mmSingleStunt@@QAEXPAVbkBank@@@Z 0041f550 f   mmgame:singlestunt.obj
 0001:0001e770       ??_GmmSingleStunt@@UAEPAXI@Z 0041f770 f i mmgame:singlestunt.obj
 0001:0001e770       ??_EmmSingleStunt@@UAEPAXI@Z 0041f770 f i mmgame:singlestunt.obj
 0001:0001e7a0       ??0mmPlayerRecord@@QAE@ABV0@@Z 0041f7a0 f i mmgame:singlestunt.obj
 0001:0001e820       ??_EmmPlayerRecord@@UAEPAXI@Z 0041f820 f i mmgame:singlestunt.obj
 0001:0001e820       ??_GmmPlayerRecord@@UAEPAXI@Z 0041f820 f i mmgame:singlestunt.obj
 0001:0001e850       ?FileIO@mmInfoBase@@UAEXAAVdatParser@@@Z 0041f850 f i mmgame:singlestunt.obj
 0001:0001e860       ??_EmmInfoBase@@UAEPAXI@Z  0041f860 f i mmgame:singlestunt.obj
 0001:0001e860       ??_GmmInfoBase@@UAEPAXI@Z  0041f860 f i mmgame:singlestunt.obj
 0001:0001e890       ??1mmInfoBase@@UAE@XZ      0041f890 f i mmgame:singlestunt.obj
 0001:0001e8a0       ?GetWaypoints@mmGameSingle@@UAEPAVmmWaypoints@@XZ 0041f8a0 f i mmgame:singlestunt.obj
 0001:0001e8b0       ??1mmSingleRaceMusicData@@QAE@XZ 0041f8b0 f i mmgame:singlestunt.obj
 0001:0001e8c0       ??0mmCCData@@QAE@XZ        0041f8c0 f i mmgame:singlestunt.obj
 0001:0001e8e0       ??1mmCCData@@QAE@XZ        0041f8e0 f i mmgame:singlestunt.obj
 0001:0001e8f0       ?UpdateDebugKeyInput@mmSingleStunt@@UAEXH@Z 0041f8f0 f i mmgame:singlestunt.obj
 0001:0001e900       ??0mmSingleBlitz@@QAE@XZ   0041f900 f   mmgame:singleblitz.obj
 0001:0001e990       ??1mmSingleBlitz@@UAE@XZ   0041f990 f   mmgame:singleblitz.obj
 0001:0001ea40       ?Init@mmSingleBlitz@@UAEHXZ 0041fa40 f   mmgame:singleblitz.obj
 0001:0001eb70       ?InitMyPlayer@mmSingleBlitz@@UAEXXZ 0041fb70 f   mmgame:singleblitz.obj
 0001:0001ebd0       ?InitHUD@mmSingleBlitz@@UAEXXZ 0041fbd0 f   mmgame:singleblitz.obj
 0001:0001ee60       ?InitGameObjects@mmSingleBlitz@@UAEXXZ 0041fe60 f   mmgame:singleblitz.obj
 0001:0001f110       ?InitOtherPlayers@mmSingleBlitz@@UAEXXZ 00420110 f   mmgame:singleblitz.obj
 0001:0001f120       ?Reset@mmSingleBlitz@@UAEXXZ 00420120 f   mmgame:singleblitz.obj
 0001:0001f1d0       ?HitWaterHandler@mmSingleBlitz@@UAEXXZ 004201d0 f   mmgame:singleblitz.obj
 0001:0001f240       ?Update@mmSingleBlitz@@UAEXXZ 00420240 f   mmgame:singleblitz.obj
 0001:0001f370       ?UpdateGameInput@mmSingleBlitz@@UAEXH@Z 00420370 f   mmgame:singleblitz.obj
 0001:0001f3b0       ?UpdateGame@mmSingleBlitz@@UAEXXZ 004203b0 f   mmgame:singleblitz.obj
 0001:0001fc20       ?SwitchState@mmSingleBlitz@@UAEXH@Z 00420c20 f   mmgame:singleblitz.obj
 0001:0001fc30       ?RegisterFinish@mmSingleBlitz@@AAEHXZ 00420c30 f   mmgame:singleblitz.obj
 0001:0001fe10       ?FinishMessage@mmSingleBlitz@@AAEXH@Z 00420e10 f   mmgame:singleblitz.obj
 0001:0001fe40       ?ProgressCheck@mmSingleBlitz@@AAEHHH@Z 00420e40 f   mmgame:singleblitz.obj
 0001:0001fef0       ?NextRace@mmSingleBlitz@@UAEXXZ 00420ef0 f   mmgame:singleblitz.obj
 0001:000200f0       ?PlayTimerWarning@mmSingleBlitz@@QAEXM@Z 004210f0 f   mmgame:singleblitz.obj
 0001:000201c0       ?AddWidgets@mmSingleBlitz@@QAEXPAVbkBank@@@Z 004211c0 f   mmgame:singleblitz.obj
 0001:00020400       ??_GmmSingleBlitz@@UAEPAXI@Z 00421400 f i mmgame:singleblitz.obj
 0001:00020400       ??_EmmSingleBlitz@@UAEPAXI@Z 00421400 f i mmgame:singleblitz.obj
 0001:00020430       ?UpdateDebugKeyInput@mmSingleBlitz@@UAEXH@Z 00421430 f i mmgame:singleblitz.obj
 0001:00020440       ?GetWaypoints@mmSingleBlitz@@UAEPAVmmWaypoints@@XZ 00421440 f i mmgame:singleblitz.obj
 0001:00020450       ??0mmSingleCircuit@@QAE@XZ 00421450 f   mmgame:singlecircuit.obj
 0001:000204f0       ??1mmSingleCircuit@@UAE@XZ 004214f0 f   mmgame:singlecircuit.obj
 0001:000205a0       ?Init@mmSingleCircuit@@UAEHXZ 004215a0 f   mmgame:singlecircuit.obj
 0001:000206c0       ?InitMyPlayer@mmSingleCircuit@@UAEXXZ 004216c0 f   mmgame:singlecircuit.obj
 0001:00020720       ?InitHUD@mmSingleCircuit@@UAEXXZ 00421720 f   mmgame:singlecircuit.obj
 0001:00020780       ?InitGameObjects@mmSingleCircuit@@UAEXXZ 00421780 f   mmgame:singlecircuit.obj
 0001:00020ab0       ?InitOtherPlayers@mmSingleCircuit@@UAEXXZ 00421ab0 f   mmgame:singlecircuit.obj
 0001:00020ac0       ?Reset@mmSingleCircuit@@UAEXXZ 00421ac0 f   mmgame:singlecircuit.obj
 0001:00020b10       ?HitWaterHandler@mmSingleCircuit@@UAEXXZ 00421b10 f   mmgame:singlecircuit.obj
 0001:00020c10       ?Update@mmSingleCircuit@@UAEXXZ 00421c10 f   mmgame:singlecircuit.obj
 0001:00020c20       ?UpdateGameInput@mmSingleCircuit@@UAEXH@Z 00421c20 f   mmgame:singlecircuit.obj
 0001:00020c30       ?UpdateScore@mmSingleCircuit@@QAEXXZ 00421c30 f   mmgame:singlecircuit.obj
 0001:00020f90       ?UpdateGame@mmSingleCircuit@@UAEXXZ 00421f90 f   mmgame:singlecircuit.obj
 0001:00021580       ?UpdateOpponentStatus@mmSingleCircuit@@QAEXXZ 00422580 f   mmgame:singlecircuit.obj
 0001:000217a0       ?SwitchState@mmSingleCircuit@@UAEXH@Z 004227a0 f   mmgame:singlecircuit.obj
 0001:000217b0       ?FinishMessage@mmSingleCircuit@@AAEXHH@Z 004227b0 f   mmgame:singlecircuit.obj
 0001:00021960       ?RegisterLap@mmSingleCircuit@@AAEHXZ 00422960 f   mmgame:singlecircuit.obj
 0001:000219c0       ?RegisterFinish@mmSingleCircuit@@AAEHXZ 004229c0 f   mmgame:singlecircuit.obj
 0001:00021ca0       ?ProgressCheck@mmSingleCircuit@@AAEHHH@Z 00422ca0 f   mmgame:singlecircuit.obj
 0001:00021ce0       ?NextRace@mmSingleCircuit@@UAEXXZ 00422ce0 f   mmgame:singlecircuit.obj
 0001:00021ef0       ?AddWidgets@mmSingleCircuit@@QAEXPAVbkBank@@@Z 00422ef0 f   mmgame:singlecircuit.obj
 0001:00022020       ??_GmmSingleCircuit@@UAEPAXI@Z 00423020 f i mmgame:singlecircuit.obj
 0001:00022020       ??_EmmSingleCircuit@@UAEPAXI@Z 00423020 f i mmgame:singlecircuit.obj
 0001:00022050       ?UpdateDebugKeyInput@mmSingleCircuit@@UAEXH@Z 00423050 f i mmgame:singlecircuit.obj
 0001:00022060       ?GetWaypoints@mmSingleCircuit@@UAEPAVmmWaypoints@@XZ 00423060 f i mmgame:singlecircuit.obj
 0001:00022070       ??0mmSingleRace@@QAE@XZ    00423070 f   mmgame:singlerace.obj
 0001:000220f0       ??1mmSingleRace@@UAE@XZ    004230f0 f   mmgame:singlerace.obj
 0001:000221a0       ?Init@mmSingleRace@@UAEHXZ 004231a0 f   mmgame:singlerace.obj
 0001:000222c0       ?InitMyPlayer@mmSingleRace@@UAEXXZ 004232c0 f   mmgame:singlerace.obj
 0001:00022320       ?InitHUD@mmSingleRace@@UAEXXZ 00423320 f   mmgame:singlerace.obj
 0001:00022380       ?InitGameObjects@mmSingleRace@@UAEXXZ 00423380 f   mmgame:singlerace.obj
 0001:000226c0       ?InitOtherPlayers@mmSingleRace@@UAEXXZ 004236c0 f   mmgame:singlerace.obj
 0001:000226d0       ?Reset@mmSingleRace@@UAEXXZ 004236d0 f   mmgame:singlerace.obj
 0001:00022740       ?HitWaterHandler@mmSingleRace@@UAEXXZ 00423740 f   mmgame:singlerace.obj
 0001:000227e0       ?Update@mmSingleRace@@UAEXXZ 004237e0 f   mmgame:singlerace.obj
 0001:000227f0       ?UpdateGameInput@mmSingleRace@@UAEXH@Z 004237f0 f   mmgame:singlerace.obj
 0001:00022830       ?UpdateGame@mmSingleRace@@UAEXXZ 00423830 f   mmgame:singlerace.obj
 0001:00022e70       ?UpdateOpponentStatus@mmSingleRace@@QAEXXZ 00423e70 f   mmgame:singlerace.obj
 0001:00023080       ?SwitchState@mmSingleRace@@UAEXH@Z 00424080 f   mmgame:singlerace.obj
 0001:00023090       ?UpdateScore@mmSingleRace@@QAEXXZ 00424090 f   mmgame:singlerace.obj
 0001:000233f0       ?NextRaceAvailable@mmSingleRace@@AAEHXZ 004243f0 f   mmgame:singlerace.obj
 0001:00023460       ?FinishMessage@mmSingleRace@@AAEXHH@Z 00424460 f   mmgame:singlerace.obj
 0001:00023610       ?RegisterFinish@mmSingleRace@@AAEHXZ 00424610 f   mmgame:singlerace.obj
 0001:000238a0       ?ProgressCheck@mmSingleRace@@AAEHHH@Z 004248a0 f   mmgame:singlerace.obj
 0001:00023910       ?NextRace@mmSingleRace@@UAEXXZ 00424910 f   mmgame:singlerace.obj
 0001:00023b40       ?AddWidgets@mmSingleRace@@QAEXPAVbkBank@@@Z 00424b40 f   mmgame:singlerace.obj
 0001:00023c80       ??_GmmSingleRace@@UAEPAXI@Z 00424c80 f i mmgame:singlerace.obj
 0001:00023c80       ??_EmmSingleRace@@UAEPAXI@Z 00424c80 f i mmgame:singlerace.obj
 0001:00023cb0       ?UpdateDebugKeyInput@mmSingleRace@@UAEXH@Z 00424cb0 f i mmgame:singlerace.obj
 0001:00023cc0       ?GetWaypoints@mmSingleRace@@UAEPAVmmWaypoints@@XZ 00424cc0 f i mmgame:singlerace.obj
 0001:00023cd0       ??0mmSingleRoam@@QAE@XZ    00424cd0 f   mmgame:singleroam.obj
 0001:00023d50       ??1mmSingleRoam@@UAE@XZ    00424d50 f   mmgame:singleroam.obj
 0001:00023dc0       ?Init@mmSingleRoam@@UAEHXZ 00424dc0 f   mmgame:singleroam.obj
 0001:00023e40       ?InitMyPlayer@mmSingleRoam@@UAEXXZ 00424e40 f   mmgame:singleroam.obj
 0001:00023ea0       ?InitHUD@mmSingleRoam@@UAEXXZ 00424ea0 f   mmgame:singleroam.obj
 0001:00023ed0       ?InitGameObjects@mmSingleRoam@@UAEXXZ 00424ed0 f   mmgame:singleroam.obj
 0001:00023fd0       ?InitOtherPlayers@mmSingleRoam@@UAEXXZ 00424fd0 f   mmgame:singleroam.obj
 0001:00024030       ?Reset@mmSingleRoam@@UAEXXZ 00425030 f   mmgame:singleroam.obj
 0001:00024070       ?HitWaterHandler@mmSingleRoam@@UAEXXZ 00425070 f   mmgame:singleroam.obj
 0001:00024080       ?Update@mmSingleRoam@@UAEXXZ 00425080 f   mmgame:singleroam.obj
 0001:00024090       ?UpdateGameInput@mmSingleRoam@@UAEXH@Z 00425090 f   mmgame:singleroam.obj
 0001:000240a0       ?UpdateGame@mmSingleRoam@@UAEXXZ 004250a0 f   mmgame:singleroam.obj
 0001:00024140       ?SwitchState@mmSingleRoam@@UAEXH@Z 00425140 f   mmgame:singleroam.obj
 0001:00024150       ?NextRace@mmSingleRoam@@UAEXXZ 00425150 f   mmgame:singleroam.obj
 0001:00024170       ?AddWidgets@mmSingleRoam@@QAEXPAVbkBank@@@Z 00425170 f   mmgame:singleroam.obj
 0001:000242b0       ??_GmmSingleRoam@@UAEPAXI@Z 004252b0 f i mmgame:singleroam.obj
 0001:000242b0       ??_EmmSingleRoam@@UAEPAXI@Z 004252b0 f i mmgame:singleroam.obj
 0001:000242e0       ??1mmSingleRoamMusicData@@QAE@XZ 004252e0 f i mmgame:singleroam.obj
 0001:000242f0       ?UpdateDebugKeyInput@mmSingleRoam@@UAEXH@Z 004252f0 f i mmgame:singleroam.obj
 0001:00024300       ??0mmMultiBlitz@@QAE@XZ    00425300 f   mmgame:multiblitz.obj
 0001:00024380       ??1mmMultiBlitz@@UAE@XZ    00425380 f   mmgame:multiblitz.obj
 0001:00024420       ?Init@mmMultiBlitz@@UAEHXZ 00425420 f   mmgame:multiblitz.obj
 0001:00024570       ?InitMyPlayer@mmMultiBlitz@@UAEXXZ 00425570 f   mmgame:multiblitz.obj
 0001:000245d0       ?InitHUD@mmMultiBlitz@@UAEXXZ 004255d0 f   mmgame:multiblitz.obj
 0001:00024660       ?InitGameObjects@mmMultiBlitz@@UAEXXZ 00425660 f   mmgame:multiblitz.obj
 0001:00024900       ?InitNetworkPlayers@mmMultiBlitz@@UAEXXZ 00425900 f   mmgame:multiblitz.obj
 0001:00024d10       ?Reset@mmMultiBlitz@@UAEXXZ 00425d10 f   mmgame:multiblitz.obj
 0001:00024dd0       ?UpdateGameInput@mmMultiBlitz@@UAEXH@Z 00425dd0 f   mmgame:multiblitz.obj
 0001:00024e10       ?UpdateGame@mmMultiBlitz@@UAEXXZ 00425e10 f   mmgame:multiblitz.obj
 0001:00025790       ?SwitchState@mmMultiBlitz@@UAEXH@Z 00426790 f   mmgame:multiblitz.obj
 0001:000257a0       ?SystemMessage@mmMultiBlitz@@UAEXPAUNETSYS_MSG@@@Z 004267a0 f   mmgame:multiblitz.obj
 0001:000258c0       ?GameMessage@mmMultiBlitz@@UAEXPAUNET_RCXHEAD@@@Z 004268c0 f   mmgame:multiblitz.obj
 0001:00025eb0       ?PlayTimerWarning@mmMultiBlitz@@QAEXM@Z 00426eb0 f   mmgame:multiblitz.obj
 0001:000260c0       ??_EmmMultiBlitz@@UAEPAXI@Z 004270c0 f i mmgame:multiblitz.obj
 0001:000260c0       ??_GmmMultiBlitz@@UAEPAXI@Z 004270c0 f i mmgame:multiblitz.obj
 0001:000260f0       ?NextRace@mmGameMulti@@UAEXXZ 004270f0 f i mmgame:multiblitz.obj
 0001:00026100       ?GetWaypoints@mmMultiBlitz@@UAEPAVmmWaypoints@@XZ 00427100 f i mmgame:multiblitz.obj
 0001:00026110       ??0mmMultiCircuit@@QAE@XZ  00427110 f   mmgame:multicircuit.obj
 0001:000261a0       ??1mmMultiCircuit@@UAE@XZ  004271a0 f   mmgame:multicircuit.obj
 0001:00026240       ?Init@mmMultiCircuit@@UAEHXZ 00427240 f   mmgame:multicircuit.obj
 0001:000263c0       ?InitMyPlayer@mmMultiCircuit@@UAEXXZ 004273c0 f   mmgame:multicircuit.obj
 0001:00026420       ?InitHUD@mmMultiCircuit@@UAEXXZ 00427420 f   mmgame:multicircuit.obj
 0001:00026470       ?InitGameObjects@mmMultiCircuit@@UAEXXZ 00427470 f   mmgame:multicircuit.obj
 0001:000266b0       ?InitNetworkPlayers@mmMultiCircuit@@UAEXXZ 004276b0 f   mmgame:multicircuit.obj
 0001:00026ac0       ?Reset@mmMultiCircuit@@UAEXXZ 00427ac0 f   mmgame:multicircuit.obj
 0001:00026b80       ?UpdateGameInput@mmMultiCircuit@@UAEXH@Z 00427b80 f   mmgame:multicircuit.obj
 0001:00026bc0       ?UpdateGame@mmMultiCircuit@@UAEXXZ 00427bc0 f   mmgame:multicircuit.obj
 0001:00027480       ?SwitchState@mmMultiCircuit@@UAEXH@Z 00428480 f   mmgame:multicircuit.obj
 0001:00027490       ?UpdateDebugKeyInput@mmMultiCircuit@@UAEXH@Z 00428490 f   mmgame:multicircuit.obj
 0001:000274a0       ?SystemMessage@mmMultiCircuit@@UAEXPAUNETSYS_MSG@@@Z 004284a0 f   mmgame:multicircuit.obj
 0001:000275c0       ?GameMessage@mmMultiCircuit@@UAEXPAUNET_RCXHEAD@@@Z 004285c0 f   mmgame:multicircuit.obj
 0001:00027c40       ?SetTimeoutOn@mmMultiCircuit@@QAEXXZ 00428c40 f   mmgame:multicircuit.obj
 0001:00027c70       ?SetTimeoutOff@mmMultiCircuit@@QAEXXZ 00428c70 f   mmgame:multicircuit.obj
 0001:00027db0       ??_GmmMultiCircuit@@UAEPAXI@Z 00428db0 f i mmgame:multicircuit.obj
 0001:00027db0       ??_EmmMultiCircuit@@UAEPAXI@Z 00428db0 f i mmgame:multicircuit.obj
 0001:00027de0       ?GetWaypoints@mmMultiCircuit@@UAEPAVmmWaypoints@@XZ 00428de0 f i mmgame:multicircuit.obj
 0001:00027e20       ??0mmMultiCR@@QAE@XZ       00428e20 f   mmgame:multicr.obj
 0001:00027fe0       ??1mmMultiCR@@UAE@XZ       00428fe0 f   mmgame:multicr.obj
 0001:00028090       ?Init@mmMultiCR@@UAEHXZ    00429090 f   mmgame:multicr.obj
 0001:00028220       ?InitMyPlayer@mmMultiCR@@UAEXXZ 00429220 f   mmgame:multicr.obj
 0001:00028340       ?InitHUD@mmMultiCR@@UAEXXZ 00429340 f   mmgame:multicr.obj
 0001:000284e0       ?InitGameObjects@mmMultiCR@@UAEXXZ 004294e0 f   mmgame:multicr.obj
 0001:000288f0       ?InitNetworkPlayers@mmMultiCR@@UAEXXZ 004298f0 f   mmgame:multicr.obj
 0001:00028cd0       ?Reset@mmMultiCR@@UAEXXZ   00429cd0 f   mmgame:multicr.obj
 0001:00028f00       ?LoadSets@mmMultiCR@@QAEHPAD@Z 00429f00 f   mmgame:multicr.obj
 0001:00028f30       ?LoadCSV@mmMultiCR@@QAEHPAD@Z 00429f30 f   mmgame:multicr.obj
 0001:000291b0       ?ImpactCallback@mmMultiCR@@QAEXPAX0@Z 0042a1b0 f   mmgame:multicr.obj
 0001:000292d0       ?FondleCarMass@mmMultiCR@@QAEXPAVvehCar@@M@Z 0042a2d0 f   mmgame:multicr.obj
 0001:00029300       ?GetNewSet@mmMultiCR@@AAEXXZ 0042a300 f   mmgame:multicr.obj
 0001:00029440       ?GetRandomPoints@mmMultiCR@@AAEXAAVVector3@@00@Z 0042a440 f   mmgame:multicr.obj
 0001:00029540       ?GetRandomIndex@mmMultiCR@@AAEHXZ 0042a540 f   mmgame:multicr.obj
 0001:00029590       ?ResetPositions@mmMultiCR@@QAEXH@Z 0042a590 f   mmgame:multicr.obj
 0001:000296c0       ?SelectTeams@mmMultiCR@@AAEHXZ 0042a6c0 f   mmgame:multicr.obj
 0001:000296d0       ?UpdateGameInput@mmMultiCR@@UAEXH@Z 0042a6d0 f   mmgame:multicr.obj
 0001:000296e0       ?UpdateGame@mmMultiCR@@UAEXXZ 0042a6e0 f   mmgame:multicr.obj
 0001:00029b10       ?SwitchState@mmMultiCR@@UAEXH@Z 0042ab10 f   mmgame:multicr.obj
 0001:00029b20       ?HitWaterHandler@mmMultiCR@@UAEXXZ 0042ab20 f   mmgame:multicr.obj
 0001:00029c00       ?DropThruCityHandler@mmMultiCR@@UAEXXZ 0042ac00 f   mmgame:multicr.obj
 0001:00029ce0       ?StealGold@mmMultiCR@@AAEXPAVvehCar@@@Z 0042ace0 f   mmgame:multicr.obj
 0001:00029d20       ?OppStealGold@mmMultiCR@@AAEXH@Z 0042ad20 f   mmgame:multicr.obj
 0001:00029d90       ?FindGround@mmMultiCR@@AAEXVVector3@@AAV2@@Z 0042ad90 f   mmgame:multicr.obj
 0001:00029eb0       ?DropGold@mmMultiCR@@AAEXVVector3@@HH@Z 0042aeb0 f   mmgame:multicr.obj
 0001:0002a080       ?UpdateGold@mmMultiCR@@AAEXXZ 0042b080 f   mmgame:multicr.obj
 0001:0002a2b0       ?UpdateHideout@mmMultiCR@@AAEXXZ 0042b2b0 f   mmgame:multicr.obj
 0001:0002a400       ?UpdateBank@mmMultiCR@@AAEXXZ 0042b400 f   mmgame:multicr.obj
 0001:0002a550       ?UpdateLimit@mmMultiCR@@AAEXXZ 0042b550 f   mmgame:multicr.obj
 0001:0002a760       ?FillResults@mmMultiCR@@AAEXXZ 0042b760 f   mmgame:multicr.obj
 0001:0002aa40       ?SystemMessage@mmMultiCR@@UAEXPAUNETSYS_MSG@@@Z 0042ba40 f   mmgame:multicr.obj
 0001:0002abf0       ?GameMessage@mmMultiCR@@UAEXPAUNET_RCXHEAD@@@Z 0042bbf0 f   mmgame:multicr.obj
 0001:0002b6d0       ?UpdateTimeWarning@mmMultiCR@@AAEXXZ 0042c6d0 f   mmgame:multicr.obj
 0001:0002b840       ?DisplayTimeWarning@mmMultiCR@@AAEXH@Z 0042c840 f   mmgame:multicr.obj
 0001:0002b8d0       ?SendGameState@mmMultiCR@@AAEXK@Z 0042c8d0 f   mmgame:multicr.obj
 0001:0002b9d0       ?SendSetup@mmMultiCR@@AAEXK@Z 0042c9d0 f   mmgame:multicr.obj
 0001:0002b9e0       ?SendGoldDrop@mmMultiCR@@AAEXVVector3@@@Z 0042c9e0 f   mmgame:multicr.obj
 0001:0002ba20       ?SendGoldAck@mmMultiCR@@AAEXK@Z 0042ca20 f   mmgame:multicr.obj
 0001:0002ba60       ?SendGoldDeliver@mmMultiCR@@AAEXXZ 0042ca60 f   mmgame:multicr.obj
 0001:0002ba80       ?SendChangeSet@mmMultiCR@@AAEXH@Z 0042ca80 f   mmgame:multicr.obj
 0001:0002bb20       ?SendLimitReached@mmMultiCR@@AAEXH@Z 0042cb20 f   mmgame:multicr.obj
 0001:0002bb50       ?SendTimeWarning@mmMultiCR@@AAEXH@Z 0042cb50 f   mmgame:multicr.obj
 0001:0002bb80       ?UpdateHUD@mmMultiCR@@AAEXXZ 0042cb80 f   mmgame:multicr.obj
 0001:0002bcb0       ?Score@mmMultiCR@@AAEXH@Z  0042ccb0 f   mmgame:multicr.obj
 0001:0002bcf0       ?UpdateDebugKeyInput@mmMultiCR@@UAEXH@Z 0042ccf0 f   mmgame:multicr.obj
 0001:0002bd00       ?CycleInterest@mmMultiCR@@AAEXH@Z 0042cd00 f   mmgame:multicr.obj
 0001:0002bd70       ?SendLobbyResults@mmMultiCR@@QAEXKHH@Z 0042cd70 f   mmgame:multicr.obj
 0001:0002bf10       ??_GmmMultiCR@@UAEPAXI@Z   0042cf10 f i mmgame:multicr.obj
 0001:0002bf10       ??_EmmMultiCR@@UAEPAXI@Z   0042cf10 f i mmgame:multicr.obj
 0001:0002bf40       ?GetWaypoints@mmMultiCR@@UAEPAVmmWaypoints@@XZ 0042cf40 f i mmgame:multicr.obj
 0001:0002bf50       ??1netScoreInfo@@QAE@XZ    0042cf50 f i mmgame:multicr.obj
 0001:0002bf60       ??0mmMultiRoam@@QAE@XZ     0042cf60 f   mmgame:multiroam.obj
 0001:0002bfe0       ??1mmMultiRoam@@UAE@XZ     0042cfe0 f   mmgame:multiroam.obj
 0001:0002c080       ?Init@mmMultiRoam@@UAEHXZ  0042d080 f   mmgame:multiroam.obj
 0001:0002c180       ?InitMyPlayer@mmMultiRoam@@UAEXXZ 0042d180 f   mmgame:multiroam.obj
 0001:0002c1e0       ?InitHUD@mmMultiRoam@@UAEXXZ 0042d1e0 f   mmgame:multiroam.obj
 0001:0002c210       ?InitGameObjects@mmMultiRoam@@UAEXXZ 0042d210 f   mmgame:multiroam.obj
 0001:0002c2f0       ?InitNetworkPlayers@mmMultiRoam@@UAEXXZ 0042d2f0 f   mmgame:multiroam.obj
 0001:0002c6f0       ?Reset@mmMultiRoam@@UAEXXZ 0042d6f0 f   mmgame:multiroam.obj
 0001:0002c760       ?UpdateGameInput@mmMultiRoam@@UAEXH@Z 0042d760 f   mmgame:multiroam.obj
 0001:0002c770       ?UpdateGame@mmMultiRoam@@UAEXXZ 0042d770 f   mmgame:multiroam.obj
 0001:0002c960       ?SwitchState@mmMultiRoam@@UAEXH@Z 0042d960 f   mmgame:multiroam.obj
 0001:0002c970       ?SystemMessage@mmMultiRoam@@UAEXPAUNETSYS_MSG@@@Z 0042d970 f   mmgame:multiroam.obj
 0001:0002cb10       ?GameMessage@mmMultiRoam@@UAEXPAUNET_RCXHEAD@@@Z 0042db10 f   mmgame:multiroam.obj
 0001:0002ccf0       ??_EmmMultiRoam@@UAEPAXI@Z 0042dcf0 f i mmgame:multiroam.obj
 0001:0002ccf0       ??_GmmMultiRoam@@UAEPAXI@Z 0042dcf0 f i mmgame:multiroam.obj
 0001:0002cd20       ?GetWaypoints@mmMultiRoam@@UAEPAVmmWaypoints@@XZ 0042dd20 f i mmgame:multiroam.obj
 0001:0002cd30       ??0mmMultiRace@@QAE@XZ     0042dd30 f   mmgame:multirace.obj
 0001:0002cdc0       ??1mmMultiRace@@UAE@XZ     0042ddc0 f   mmgame:multirace.obj
 0001:0002ce60       ?Init@mmMultiRace@@UAEHXZ  0042de60 f   mmgame:multirace.obj
 0001:0002cf60       ?InitMyPlayer@mmMultiRace@@UAEXXZ 0042df60 f   mmgame:multirace.obj
 0001:0002cfc0       ?InitHUD@mmMultiRace@@UAEXXZ 0042dfc0 f   mmgame:multirace.obj
 0001:0002d020       ?InitGameObjects@mmMultiRace@@UAEXXZ 0042e020 f   mmgame:multirace.obj
 0001:0002d250       ?InitNetworkPlayers@mmMultiRace@@UAEXXZ 0042e250 f   mmgame:multirace.obj
 0001:0002d650       ?Reset@mmMultiRace@@UAEXXZ 0042e650 f   mmgame:multirace.obj
 0001:0002d720       ?UpdateGameInput@mmMultiRace@@UAEXH@Z 0042e720 f   mmgame:multirace.obj
 0001:0002d760       ?UpdateGame@mmMultiRace@@UAEXXZ 0042e760 f   mmgame:multirace.obj
 0001:0002e060       ?SwitchState@mmMultiRace@@UAEXH@Z 0042f060 f   mmgame:multirace.obj
 0001:0002e070       ?SystemMessage@mmMultiRace@@UAEXPAUNETSYS_MSG@@@Z 0042f070 f   mmgame:multirace.obj
 0001:0002e190       ?GameMessage@mmMultiRace@@UAEXPAUNET_RCXHEAD@@@Z 0042f190 f   mmgame:multirace.obj
 0001:0002e840       ?SetTimeoutOn@mmMultiRace@@QAEXXZ 0042f840 f   mmgame:multirace.obj
 0001:0002e870       ?SetTimeoutOff@mmMultiRace@@QAEXXZ 0042f870 f   mmgame:multirace.obj
 0001:0002e9b0       ??_EmmMultiRace@@UAEPAXI@Z 0042f9b0 f i mmgame:multirace.obj
 0001:0002e9b0       ??_GmmMultiRace@@UAEPAXI@Z 0042f9b0 f i mmgame:multirace.obj
 0001:0002e9e0       ?GetWaypoints@mmMultiRace@@UAEPAVmmWaypoints@@XZ 0042f9e0 f i mmgame:multirace.obj
 0001:0002e9f0       ??0mmPopup@@QAE@PAVmmGame@@MMMM@Z 0042f9f0 f   mmgame:popup.obj
 0001:0002eef0       ??1mmPopup@@UAE@XZ         0042fef0 f   mmgame:popup.obj
 0001:0002ef00       ?IsEnabled@mmPopup@@QAEHXZ 0042ff00 f   mmgame:popup.obj
 0001:0002ef10       ?DisablePU@mmPopup@@QAEXH@Z 0042ff10 f   mmgame:popup.obj
 0001:0002efb0       ?ProcessEscape@mmPopup@@QAEXH@Z 0042ffb0 f   mmgame:popup.obj
 0001:0002f0a0       ?ProcessChat@mmPopup@@QAEXXZ 004300a0 f   mmgame:popup.obj
 0001:0002f150       ?ProcessKeymap@mmPopup@@QAEXH@Z 00430150 f   mmgame:popup.obj
 0001:0002f280       ?ShowResults@mmPopup@@QAEXH@Z 00430280 f   mmgame:popup.obj
 0001:0002f390       ?ShowRoster@mmPopup@@QAEXXZ 00430390 f   mmgame:popup.obj
 0001:0002f420       ?ShowReplay@mmPopup@@QAEXXZ 00430420 f   mmgame:popup.obj
 0001:0002f460       ?ForceRoster@mmPopup@@QAEXXZ 00430460 f   mmgame:popup.obj
 0001:0002f4f0       ?Update@mmPopup@@UAEXXZ    004304f0 f   mmgame:popup.obj
 0001:000300f0       ?Reset@mmPopup@@UAEXXZ     004310f0 f   mmgame:popup.obj
 0001:00030110       ?GetComment@mmPopup@@QAEPADXZ 00431110 f   mmgame:popup.obj
 0001:00030120       ?SetComment@mmPopup@@QAEXPAD@Z 00431120 f   mmgame:popup.obj
 0001:00030140       ?RecordPosition@mmPopup@@QAEXXZ 00431140 f   mmgame:popup.obj
 0001:00030170       ?SaveReplay@mmPopup@@QAEXXZ 00431170 f   mmgame:popup.obj
 0001:000301e0       ?Lock@mmPopup@@QAEXXZ      004311e0 f   mmgame:popup.obj
 0001:000301f0       ?Unlock@mmPopup@@QAEXXZ    004311f0 f   mmgame:popup.obj
 0001:00030200       ?ChatCB@mmPopup@@QAEXXZ    00431200 f   mmgame:popup.obj
 0001:00030260       ?PlayPauseMusic@mmPopup@@QAEXXZ 00431260 f   mmgame:popup.obj
 0001:000302c0       ?PlayReturnMusic@mmPopup@@QAEXXZ 004312c0 f   mmgame:popup.obj
 0001:00030450       ??_GmmPopup@@UAEPAXI@Z     00431450 f i mmgame:popup.obj
 0001:00030450       ??_EmmPopup@@UAEPAXI@Z     00431450 f i mmgame:popup.obj
 0001:000304b0       ??0mmHUD@@QAE@XZ           004314b0 f   mmgame:hud.obj
 0001:00030a10       ?PostChatMessage@mmHUD@@QAEXPAD@Z 00431a10 f   mmgame:hud.obj
 0001:00030a70       ?ResChange@mmHUD@@UAEXHH@Z 00431a70 f   mmgame:hud.obj
 0001:00030b50       ??1mmHUD@@UAE@XZ           00431b50 f   mmgame:hud.obj
 0001:00030d00       ?StartTimers@mmHUD@@QAEXXZ 00431d00 f   mmgame:hud.obj
 0001:00030d20       ?StopTimers@mmHUD@@QAEXXZ  00431d20 f   mmgame:hud.obj
 0001:00030d40       ?ResetTimers@mmHUD@@QAEXXZ 00431d40 f   mmgame:hud.obj
 0001:00030d80       ?Init@mmHUD@@QAEXPADPAVmmPlayer@@H@Z 00431d80 f   mmgame:hud.obj
 0001:000310c0       ?Enable@mmHUD@@QAEXXZ      004320c0 f   mmgame:hud.obj
 0001:00031120       ?Disable@mmHUD@@QAEXH@Z    00432120 f   mmgame:hud.obj
 0001:00031180       ?Toggle@mmHUD@@QAEXXZ      00432180 f   mmgame:hud.obj
 0001:000311a0       ?ToggleExternalView@mmHUD@@QAEXXZ 004321a0 f   mmgame:hud.obj
 0001:00031240       ?SetDash@mmHUD@@QAEXH@Z    00432240 f   mmgame:hud.obj
 0001:00031260       ?ActivateDash@mmHUD@@QAEXXZ 00432260 f   mmgame:hud.obj
 0001:00031290       ?DeactivateDash@mmHUD@@QAEXXZ 00432290 f   mmgame:hud.obj
 0001:000312c0       ?IsDashActive@mmHUD@@QAEHXZ 004322c0 f   mmgame:hud.obj
 0001:000312d0       ?Reset@mmHUD@@UAEXXZ       004322d0 f   mmgame:hud.obj
 0001:00031310       ?SetTransparency@mmHUD@@QAEX_N@Z 00432310 f   mmgame:hud.obj
 0001:00031320       ?PostUpdate@mmHUD@@QAEXXZ  00432320 f   mmgame:hud.obj
 0001:00031370       ?Update@mmHUD@@UAEXXZ      00432370 f   mmgame:hud.obj
 0001:000316c0       ?UpdatePaused@mmHUD@@UAEXXZ 004326c0 f   mmgame:hud.obj
 0001:000316f0       ?Cull@mmHUD@@UAEXXZ        004326f0 f   mmgame:hud.obj
 0001:000317f0       ?ShowSplitTime@mmHUD@@QAEXXZ 004327f0 f   mmgame:hud.obj
 0001:00031850       ?SetStandings@mmHUD@@QAEXHH@Z 00432850 f   mmgame:hud.obj
 0001:00031890       ?PostLapTime@mmHUD@@QAEX_N@Z 00432890 f   mmgame:hud.obj
 0001:000318f0       ?SetLapTime@mmHUD@@QAEXHH@Z 004328f0 f   mmgame:hud.obj
 0001:00031960       ?SetWPCleared@mmHUD@@QAEXHH@Z 00432960 f   mmgame:hud.obj
 0001:00031980       ?SetMessage@mmHUD@@QAEXPAULocString@@MH@Z 00432980 f   mmgame:hud.obj
 0001:000319d0       ?SetMessage2@mmHUD@@QAEXPAULocString@@@Z 004329d0 f   mmgame:hud.obj
 0001:00031a00       ?SetScore@mmHUD@@QAEXPAD@Z 00432a00 f   mmgame:hud.obj
 0001:00031a20       ?AddPlayer@mmHUD@@QAEXPBDKHH@Z 00432a20 f   mmgame:hud.obj
 0001:00031a50       ?SetScore@mmHUD@@QAEXKH@Z  00432a50 f   mmgame:hud.obj
 0001:00031a70       ?RemovePlayer@mmHUD@@QAEXK@Z 00432a70 f   mmgame:hud.obj
 0001:00031a90       ?ActivateGold@mmHUD@@QAEXXZ 00432a90 f   mmgame:hud.obj
 0001:00031aa0       ?DeactivateGold@mmHUD@@QAEXXZ 00432aa0 f   mmgame:hud.obj
 0001:00031ab0       ?GetTime@mmHUD@@QAEXPADM@Z 00432ab0 f   mmgame:hud.obj
 0001:00031ad0       ?PlayNetAlert@mmHUD@@QAEXXZ 00432ad0 f   mmgame:hud.obj
 0001:00031af0       ?TogglePositionDisplay@mmHUD@@QAEXH@Z 00432af0 f   mmgame:hud.obj
 0001:00031b50       ?GetPosHdg@mmHUD@@QAEXAAVVector4@@@Z 00432b50 f   mmgame:hud.obj
 0001:00031bb0       ?RecordPosition@mmHUD@@QAEXPAD@Z 00432bb0 f   mmgame:hud.obj
 0001:00031c30       ?DumpPositions@mmHUD@@QAEXPAD@Z 00432c30 f   mmgame:hud.obj
 0001:00031c60       ?AddWidgets@mmHUD@@UAEXAAVbkBank@@@Z 00432c60 f   mmgame:hud.obj
 0001:00031c90       ??0mmTimer@@QAE@XZ         00432c90 f   mmgame:hud.obj
 0001:00031cf0       ??1mmTimer@@UAE@XZ         00432cf0 f   mmgame:hud.obj
 0001:00031d00       ?Init@mmTimer@@QAEXHMH@Z   00432d00 f   mmgame:hud.obj
 0001:00031d30       ?GetTime@mmTimer@@QAEMXZ   00432d30 f   mmgame:hud.obj
 0001:00031d40       ?Update@mmTimer@@UAEXXZ    00432d40 f   mmgame:hud.obj
 0001:00031e60       ?Reset@mmTimer@@UAEXXZ     00432e60 f   mmgame:hud.obj
 0001:00031e80       ?Start@mmTimer@@QAEXXZ     00432e80 f   mmgame:hud.obj
 0001:00031ea0       ?Stop@mmTimer@@QAEXXZ      00432ea0 f   mmgame:hud.obj
 0001:00031eb0       ?StartStop@mmTimer@@QAEXXZ 00432eb0 f   mmgame:hud.obj
 0001:00031ec0       ??0mmArrow@@QAE@XZ         00432ec0 f   mmgame:hud.obj
 0001:00031fa0       ??1mmArrow@@UAE@XZ         00432fa0 f   mmgame:hud.obj
 0001:00032000       ?Init@mmArrow@@QAEXPAVMatrix34@@@Z 00433000 f   mmgame:hud.obj
 0001:00032010       ?Reset@mmArrow@@UAEXXZ     00433010 f   mmgame:hud.obj
 0001:00032020       ?SetInterest@mmArrow@@QAEXPAVVector3@@@Z 00433020 f   mmgame:hud.obj
 0001:00032030       ?ReColorArrow@mmArrow@@AAEXH@Z 00433030 f   mmgame:hud.obj
 0001:00032080       ?Update@mmArrow@@UAEXXZ    00433080 f   mmgame:hud.obj
 0001:00032300       ??_EmmHUD@@UAEPAXI@Z       00433300 f i mmgame:hud.obj
 0001:00032300       ??_GmmHUD@@UAEPAXI@Z       00433300 f i mmgame:hud.obj
 0001:00032330       ??1mmExternalView@@UAE@XZ  00433330 f i mmgame:hud.obj
 0001:00032390       ??_EmmTimer@@UAEPAXI@Z     00433390 f i mmgame:hud.obj
 0001:00032390       ??_GmmTimer@@UAEPAXI@Z     00433390 f i mmgame:hud.obj
 0001:000323c0       ??_EmmArrow@@UAEPAXI@Z     004333c0 f i mmgame:hud.obj
 0001:000323c0       ??_GmmArrow@@UAEPAXI@Z     004333c0 f i mmgame:hud.obj
 0001:000323f0       ?Scale@Vector3@@QAEXM@Z    004333f0 f i mmgame:hud.obj
 0001:00032410       ??0mmHudMap@@QAE@XZ        00433410 f   mmgame:hudmap.obj
 0001:00032550       ??1mmHudMap@@UAE@XZ        00433550 f   mmgame:hudmap.obj
 0001:00032560       ?Init@mmHudMap@@QAEXPAVMatrix34@@PAVmmGame@@PAD@Z 00433560 f   mmgame:hudmap.obj
 0001:00032810       ?Reset@mmHudMap@@UAEXXZ    00433810 f   mmgame:hudmap.obj
 0001:00032820       ?RegisterOpponents@mmHudMap@@QAEXPAUOppIconInfo@@H@Z 00433820 f   mmgame:hudmap.obj
 0001:00032840       ?RegisterCopsnRobbers@mmHudMap@@QAEXPAPAVVector3@@@Z 00433840 f   mmgame:hudmap.obj
 0001:00032860       ?Activate@mmHudMap@@QAEXXZ 00433860 f   mmgame:hudmap.obj
 0001:00032870       ?Deactivate@mmHudMap@@QAEXXZ 00433870 f   mmgame:hudmap.obj
 0001:00032880       ?GetNextMapMode@mmHudMap@@IAEHXZ 00433880 f   mmgame:hudmap.obj
 0001:000328a0       ?GetCurrentMapMode@mmHudMap@@IAEHXZ 004338a0 f   mmgame:hudmap.obj
 0001:000328b0       ?SetMapMode@mmHudMap@@IAEXH@Z 004338b0 f   mmgame:hudmap.obj
 0001:00032b40       ?Update@mmHudMap@@UAEXXZ   00433b40 f   mmgame:hudmap.obj
 0001:00032b50       ?Cull@mmHudMap@@UAEXXZ     00433b50 f   mmgame:hudmap.obj
 0001:00032fb0       ?DrawIcon@mmHudMap@@AAEXW4IconType@1@ABVMatrix34@@@Z 00433fb0 f   mmgame:hudmap.obj
 0001:00033120       ?DrawPlayer@mmHudMap@@AAEXXZ 00434120 f   mmgame:hudmap.obj
 0001:000331b0       ?DrawIndicator@mmHudMap@@AAEXW4IndicatorType@1@ABVVector3@@@Z 004341b0 f   mmgame:hudmap.obj
 0001:000332b0       ?DrawOpponents@mmHudMap@@AAEXXZ 004342b0 f   mmgame:hudmap.obj
 0001:00033310       ?DrawCops@mmHudMap@@AAEXXZ 00434310 f   mmgame:hudmap.obj
 0001:00033370       ?DrawWaypoints@mmHudMap@@AAEXXZ 00434370 f   mmgame:hudmap.obj
 0001:00033480       ?DrawCopsnRobbers@mmHudMap@@AAEXXZ 00434480 f   mmgame:hudmap.obj
 0001:000334b0       ?ToggleMapRes@mmHudMap@@QAEXXZ 004344b0 f   mmgame:hudmap.obj
 0001:000334c0       ?ToggleMapOrient@mmHudMap@@QAEXXZ 004344c0 f   mmgame:hudmap.obj
 0001:000334d0       ?SetZoomIn@mmHudMap@@QAEX_N@Z 004344d0 f   mmgame:hudmap.obj
 0001:000334e0       ?GetZoomIn@mmHudMap@@QAE_NXZ 004344e0 f   mmgame:hudmap.obj
 0001:000334f0       ?SetOrient@mmHudMap@@QAEX_N@Z 004344f0 f   mmgame:hudmap.obj
 0001:00033500       ?GetOrient@mmHudMap@@QAE_NXZ 00434500 f   mmgame:hudmap.obj
 0001:00033510       ?AddWidgets@mmHudMap@@QAEXPAVbkBank@@@Z 00434510 f   mmgame:hudmap.obj
 0001:000338a0       ?FileIO@mmHudMap@@UAEXAAVdatParser@@@Z 004348a0 f   mmgame:hudmap.obj
 0001:00033b00       ??_EmmHudMap@@UAEPAXI@Z    00434b00 f i mmgame:hudmap.obj
 0001:00033b00       ??_GmmHudMap@@UAEPAXI@Z    00434b00 f i mmgame:hudmap.obj
 0001:00033b30       ?Convert@@YAAAVMatrix44@@AAV1@ABVMatrix34@@@Z 00434b30 f i mmgame:hudmap.obj
 0001:00033ba0       ?GetClassName@mmHudMap@@UAEPADXZ 00434ba0 f i mmgame:hudmap.obj
 0001:00033bb0       ??0mmCarRoadFF@@QAE@XZ     00434bb0 f   mmgame:roadff.obj
 0001:00033bf0       ??1mmCarRoadFF@@UAE@XZ     00434bf0 f   mmgame:roadff.obj
 0001:00033c50       ?AssignProperties@mmCarRoadFF@@QAEXMH@Z 00434c50 f   mmgame:roadff.obj
 0001:00033c60       ?SetFGVals@mmCarRoadFF@@QAEXMMM@Z 00434c60 f   mmgame:roadff.obj
 0001:00033d50       ?Start@mmCarRoadFF@@QAEXXZ 00434d50 f   mmgame:roadff.obj
 0001:00033d70       ?Stop@mmCarRoadFF@@QAEXXZ  00434d70 f   mmgame:roadff.obj
 0001:00033d80       ?Reset@mmCarRoadFF@@UAEXXZ 00434d80 f   mmgame:roadff.obj
 0001:00033db0       ?IsPlaying@mmCarRoadFF@@QAEHXZ 00434db0 f   mmgame:roadff.obj
 0001:00033dc0       ?Update@mmCarRoadFF@@UAEXXZ 00434dc0 f   mmgame:roadff.obj
 0001:00033e10       ?UpdateVals@mmCarRoadFF@@QAEXXZ 00434e10 f   mmgame:roadff.obj
 0001:00033e60       ??_EmmCarRoadFF@@UAEPAXI@Z 00434e60 f i mmgame:roadff.obj
 0001:00033e60       ??_GmmCarRoadFF@@UAEPAXI@Z 00434e60 f i mmgame:roadff.obj
 0001:00033e90       ??0mmRainAudio@@QAE@XZ     00434e90 f   mmgame:rainaudio.obj
 0001:00034060       ??1mmRainAudio@@QAE@XZ     00435060 f   mmgame:rainaudio.obj
 0001:000340a0       ?SetInterior@mmRainAudio@@QAEXE@Z 004350a0 f   mmgame:rainaudio.obj
 0001:00034130       ?ShelterOn@mmRainAudio@@QAEXXZ 00435130 f   mmgame:rainaudio.obj
 0001:00034190       ?ShelterOff@mmRainAudio@@QAEXXZ 00435190 f   mmgame:rainaudio.obj
 0001:00034200       ?Update@mmRainAudio@@QAEXXZ 00435200 f   mmgame:rainaudio.obj
 0001:00034450       ??0mmDashView@@QAE@XZ      00435450 f   mmgame:dash.obj
 0001:000347a0       ??1mmDashView@@UAE@XZ      004357a0 f   mmgame:dash.obj
 0001:00034880       ?Init@mmDashView@@QAEXPADPAVmmPlayer@@@Z 00435880 f   mmgame:dash.obj
 0001:00034ad0       ?LoadPkg@mmDashView@@AAEXPAD@Z 00435ad0 f   mmgame:dash.obj
 0001:00034c70       ?LoadPivotInfo@mmDashView@@AAEXPAD@Z 00435c70 f   mmgame:dash.obj
 0001:00034e00       ?Reset@mmDashView@@UAEXXZ  00435e00 f   mmgame:dash.obj
 0001:00034e10       ?BeforeSave@mmDashView@@UAEXXZ 00435e10 f   mmgame:dash.obj
 0001:00034e70       ?AfterLoad@mmDashView@@UAEXXZ 00435e70 f   mmgame:dash.obj
 0001:00034ed0       ?ActivateUntilTransitionIsOver@mmDashView@@QAEXXZ 00435ed0 f   mmgame:dash.obj
 0001:00034ef0       ?Activate@mmDashView@@QAEXXZ 00435ef0 f   mmgame:dash.obj
 0001:00034f10       ?Deactivate@mmDashView@@QAEXXZ 00435f10 f   mmgame:dash.obj
 0001:00034f30       ?TempDeactivate@mmDashView@@QAEXXZ 00435f30 f   mmgame:dash.obj
 0001:00034f40       ?Update@mmDashView@@UAEXXZ 00435f40 f   mmgame:dash.obj
 0001:00035020       ?Cull@mmDashView@@UAEXXZ   00436020 f   mmgame:dash.obj
 0001:00035660       ?AddWidgets@mmDashView@@QAEXPAVbkBank@@@Z 00436660 f   mmgame:dash.obj
 0001:00035b90       ?FileIO@mmDashView@@EAEXAAVdatParser@@@Z 00436b90 f   mmgame:dash.obj
 0001:00035d70       ??0mmExternalView@@QAE@XZ  00436d70 f   mmgame:dash.obj
 0001:00035e00       ?Init@mmExternalView@@QAEXPAVmmPlayer@@@Z 00436e00 f   mmgame:dash.obj
 0001:00035e90       ?ResChange@mmExternalView@@UAEXHH@Z 00436e90 f   mmgame:dash.obj
 0001:00035fe0       ?Reset@mmExternalView@@UAEXXZ 00436fe0 f   mmgame:dash.obj
 0001:00035ff0       ?Update@mmExternalView@@UAEXXZ 00436ff0 f   mmgame:dash.obj
 0001:00036000       ?Cull@mmExternalView@@UAEXXZ 00437000 f   mmgame:dash.obj
 0001:00036160       ?AddWidgets@mmExternalView@@QAEXPAVbkBank@@@Z 00437160 f   mmgame:dash.obj
 0001:000364e0       ??_GmmDashView@@UAEPAXI@Z  004374e0 f i mmgame:dash.obj
 0001:000364e0       ??_EmmDashView@@UAEPAXI@Z  004374e0 f i mmgame:dash.obj
 0001:00036510       ??1asLinearCS@@UAE@XZ      00437510 f i mmgame:dash.obj
 0001:00036520       ??1RadialGauge@@UAE@XZ     00437520 f i mmgame:dash.obj
 0001:00036570       ??_GmmExternalView@@UAEPAXI@Z 00437570 f i mmgame:dash.obj
 0001:00036570       ??_EmmExternalView@@UAEPAXI@Z 00437570 f i mmgame:dash.obj
 0001:000365a0       ??1mmSlidingGauge@@QAE@XZ  004375a0 f i mmgame:dash.obj
 0001:000365b0       ?CheckSet@gfxRenderState@@AAEXAA_N_N@Z 004375b0 f i mmgame:dash.obj
 0001:000365d0       ?GetClassNameA@mmExternalView@@UAEPADXZ 004375d0 f i mmgame:dash.obj
 0001:000365e0       ?GetClassNameA@mmDashView@@UAEPADXZ 004375e0 f i mmgame:dash.obj
 0001:000365f0       ??0mmViewMgr@@QAE@XZ       004375f0 f   mmgame:viewmgr.obj
 0001:00036610       ??1mmViewMgr@@UAE@XZ       00437610 f   mmgame:viewmgr.obj
 0001:00036630       ?Init@mmViewMgr@@QAEXPAVmmHUD@@PAVmmHudMap@@PAVmmPlayer@@@Z 00437630 f   mmgame:viewmgr.obj
 0001:000366c0       ?SetViewSetting@mmViewMgr@@QAEXH@Z 004376c0 f   mmgame:viewmgr.obj
 0001:00036b00       ?Update@mmViewMgr@@UAEXXZ  00437b00 f   mmgame:viewmgr.obj
 0001:00036b10       ??_EmmViewMgr@@UAEPAXI@Z   00437b10 f i mmgame:viewmgr.obj
 0001:00036b10       ??_GmmViewMgr@@UAEPAXI@Z   00437b10 f i mmgame:viewmgr.obj
 0001:00036b40       ??0mmIcons@@QAE@XZ         00437b40 f   mmgame:icons.obj
 0001:00036c60       ??1mmIcons@@UAE@XZ         00437c60 f   mmgame:icons.obj
 0001:00036cd0       ?Init@mmIcons@@QAEXPAVMatrix34@@MMH@Z 00437cd0 f   mmgame:icons.obj
 0001:00036d30       ?RegisterOpponents@mmIcons@@QAEXPAUOppIconInfo@@HPAX@Z 00437d30 f   mmgame:icons.obj
 0001:00036dd0       ?Update@mmIcons@@UAEXXZ    00437dd0 f   mmgame:icons.obj
 0001:00036e10       ?Cull@mmIcons@@UAEXXZ      00437e10 f   mmgame:icons.obj
 0001:00037380       ??_EmmIcons@@UAEPAXI@Z     00438380 f i mmgame:icons.obj
 0001:00037380       ??_GmmIcons@@UAEPAXI@Z     00438380 f i mmgame:icons.obj
 0001:000373b0       ??0mmAmbientAudio@@QAE@PAVmmPlayer@@@Z 004383b0 f   mmgame:mmambientaudio.obj
 0001:00037470       ??1mmAmbientAudio@@QAE@XZ  00438470 f   mmgame:mmambientaudio.obj
 0001:00037480       ?Update@mmAmbientAudio@@QAEXXZ 00438480 f   mmgame:mmambientaudio.obj
 0001:000376e0       ??0mmWaypoints@@QAE@XZ     004386e0 f   mmgame:waypoints.obj
 0001:00037860       ??1mmWaypoints@@UAE@XZ     00438860 f   mmgame:waypoints.obj
 0001:00037930       ?Init@mmWaypoints@@QAEHPAVmmPlayer@@PADHHHHI@Z 00438930 f   mmgame:waypoints.obj
 0001:00037a70       ?InitStatic@mmWaypoints@@QAEXPAVmmPlayer@@HI@Z 00438a70 f   mmgame:waypoints.obj
 0001:00037c30       ?ReInit@mmWaypoints@@QAEXHPADI@Z 00438c30 f   mmgame:waypoints.obj
 0001:00037f10       ?GetStartAngle@mmWaypoints@@QAEMXZ 00438f10 f   mmgame:waypoints.obj
 0001:00037f30       ?SaveCSV@mmWaypoints@@QAEHPAD@Z 00438f30 f   mmgame:waypoints.obj
 0001:00038030       ?LoadCSV@mmWaypoints@@QAEHPADH@Z 00439030 f   mmgame:waypoints.obj
 0001:00038900       ?Cull@mmWaypoints@@UAEXXZ  00439900 f   mmgame:waypoints.obj
 0001:00038940       ?Update@mmWaypoints@@UAEXXZ 00439940 f   mmgame:waypoints.obj
 0001:00038eb0       ?DeactivateFinish@mmWaypoints@@QAEXXZ 00439eb0 f   mmgame:waypoints.obj
 0001:00038ec0       ?Reset@mmWaypoints@@UAEXXZ 00439ec0 f   mmgame:waypoints.obj
 0001:00038fd0       ?GetStart@mmWaypoints@@QAEXAAVVector3@@@Z 00439fd0 f   mmgame:waypoints.obj
 0001:00039010       ?GetWaypoint@mmWaypoints@@QAEXHAAVVector3@@@Z 0043a010 f   mmgame:waypoints.obj
 0001:00039050       ?GetHeading@mmWaypoints@@QAEMH@Z 0043a050 f   mmgame:waypoints.obj
 0001:00039080       ?GenerateHitRooms@mmWaypoints@@IAEXXZ 0043a080 f   mmgame:waypoints.obj
 0001:000390f0       ?GetHitRoom@mmWaypoints@@QAEHH@Z 0043a0f0 f   mmgame:waypoints.obj
 0001:00039110       ?SetArrow@mmWaypoints@@QAEXXZ 0043a110 f   mmgame:waypoints.obj
 0001:00039140       ?GetCurrentDistance@mmWaypoints@@QAEMXZ 0043a140 f   mmgame:waypoints.obj
 0001:00039190       ?ResetAllTags@mmWaypoints@@QAEXXZ 0043a190 f   mmgame:waypoints.obj
 0001:00039200       ?GetClosestWaypoint@mmWaypoints@@QAEXXZ 0043a200 f   mmgame:waypoints.obj
 0001:000392c0       ?CycleCurrentWaypoint@mmWaypoints@@IAEXH@Z 0043a2c0 f   mmgame:waypoints.obj
 0001:00039330       ?GetNextWaypoint@mmWaypoints@@QAEXXZ 0043a330 f   mmgame:waypoints.obj
 0001:00039340       ?GetLastWaypoint@mmWaypoints@@QAEXXZ 0043a340 f   mmgame:waypoints.obj
 0001:00039350       ?SetCurrentGoals@mmWaypoints@@IAEXH@Z 0043a350 f   mmgame:waypoints.obj
 0001:00039390       ?AnyDrawn@mmWaypoints@@QAEHXZ 0043a390 f   mmgame:waypoints.obj
 0001:000393d0       ?AIWPHit@mmWaypoints@@QAEHHHVMatrix34@@VVector3@@M@Z 0043a3d0 f   mmgame:waypoints.obj
 0001:000394d0       ?AnyAIWPHit@mmWaypoints@@QAEHAAIHVMatrix34@@VVector3@@M@Z 0043a4d0 f   mmgame:waypoints.obj
 0001:00039650       ?AnyWPHits@mmWaypoints@@QAEHH@Z 0043a650 f   mmgame:waypoints.obj
 0001:000397b0       ?ClearWaypoint@mmWaypoints@@IAEXH@Z 0043a7b0 f   mmgame:waypoints.obj
 0001:000398c0       ?DisplayHUDMessage@mmWaypoints@@QAEXH@Z 0043a8c0 f   mmgame:waypoints.obj
 0001:00039960       ?AddWidgets@mmWaypoints@@UAEXAAVbkBank@@@Z 0043a960 f   mmgame:waypoints.obj
 0001:00039970       ?UseWidgets@mmWaypoints@@QAEXAAVbkBank@@@Z 0043a970 f   mmgame:waypoints.obj
 0001:00039b80       ?SetWPCallback@mmWaypoints@@QAEXXZ 0043ab80 f   mmgame:waypoints.obj
 0001:00039c00       ?WPDropCB@mmWaypoints@@QAEXXZ 0043ac00 f   mmgame:waypoints.obj
 0001:00039c40       ?WPDeleteCB@mmWaypoints@@QAEXXZ 0043ac40 f   mmgame:waypoints.obj
 0001:00039cb0       ?WPToggleCB@mmWaypoints@@QAEXXZ 0043acb0 f   mmgame:waypoints.obj
 0001:00039cc0       ?WPResetCB@mmWaypoints@@QAEXXZ 0043acc0 f   mmgame:waypoints.obj
 0001:00039d70       ?ChangeWPCallback@mmWaypoints@@QAEXXZ 0043ad70 f   mmgame:waypoints.obj
 0001:00039ed0       ??_GmmWaypoints@@UAEPAXI@Z 0043aed0 f i mmgame:waypoints.obj
 0001:00039ed0       ??_EmmWaypoints@@UAEPAXI@Z 0043aed0 f i mmgame:waypoints.obj
 0001:00039f00       ??0mmCDPlayer@@QAE@XZ      0043af00 f   mmgame:cd.obj
 0001:00039f90       ?Init@mmCDPlayer@@QAEXPAVmmHUD@@@Z 0043af90 f   mmgame:cd.obj
 0001:0003a080       ?Reset@mmCDPlayer@@UAEXXZ  0043b080 f   mmgame:cd.obj
 0001:0003a090       ?Update@mmCDPlayer@@UAEXXZ 0043b090 f   mmgame:cd.obj
 0001:0003a100       ?Cull@mmCDPlayer@@UAEXXZ   0043b100 f   mmgame:cd.obj
 0001:0003a300       ?PlayStop@mmCDPlayer@@QAEXXZ 0043b300 f   mmgame:cd.obj
 0001:0003a380       ?NextTrack@mmCDPlayer@@QAEXXZ 0043b380 f   mmgame:cd.obj
 0001:0003a3f0       ?AddWidgets@mmCDPlayer@@QAEXPAVbkBank@@@Z 0043b3f0 f   mmgame:cd.obj
 0001:0003a710       ?PrevTrack@mmCDPlayer@@QAEXXZ 0043b710 f   mmgame:cd.obj
 0001:0003a780       ?Toggle@mmCDPlayer@@QAEXXZ 0043b780 f   mmgame:cd.obj
 0001:0003a8f0       ??_GmmCDPlayer@@UAEPAXI@Z  0043b8f0 f i mmgame:cd.obj
 0001:0003a8f0       ??_EmmCDPlayer@@UAEPAXI@Z  0043b8f0 f i mmgame:cd.obj
 0001:0003a920       ??1mmCDPlayer@@UAE@XZ      0043b920 f i mmgame:cd.obj
 0001:0003a980       ?wpmin@@YAMMM@Z            0043b980 f   mmgame:wpobject.obj
 0001:0003a9a0       ?wpmax@@YAMMM@Z            0043b9a0 f   mmgame:wpobject.obj
 0001:0003a9c0       ??0mmWaypointObject@@QAE@AAVVector4@@PADHMHM@Z 0043b9c0 f   mmgame:wpobject.obj
 0001:0003abe0       ??1mmWaypointObject@@UAE@XZ 0043bbe0 f   mmgame:wpobject.obj
 0001:0003abf0       ?Reset@mmWaypointObject@@UAEXXZ 0043bbf0 f   mmgame:wpobject.obj
 0001:0003ac30       ?Update@mmWaypointObject@@UAEXXZ 0043bc30 f   mmgame:wpobject.obj
 0001:0003ac40       ?Activate@mmWaypointObject@@QAEXXZ 0043bc40 f   mmgame:wpobject.obj
 0001:0003ac50       ?Deactivate@mmWaypointObject@@QAEXXZ 0043bc50 f   mmgame:wpobject.obj
 0001:0003ac60       ?SetHeading@mmWaypointObject@@QAEXM@Z 0043bc60 f   mmgame:wpobject.obj
 0001:0003acf0       ?SetPos@mmWaypointObject@@QAEXVVector3@@@Z 0043bcf0 f   mmgame:wpobject.obj
 0001:0003ad10       ?SetHeadingType@mmWaypointObject@@QAEXH@Z 0043bd10 f   mmgame:wpobject.obj
 0001:0003ad20       ?SetRadius@mmWaypointObject@@QAEXM@Z 0043bd20 f   mmgame:wpobject.obj
 0001:0003ad40       ?CalculateGatePoints@mmWaypointObject@@QAEXXZ 0043bd40 f   mmgame:wpobject.obj
 0001:0003adc0       ?PlaneHit@mmWaypointObject@@QAEHVMatrix34@@VVector2@@1VVector3@@@Z 0043bdc0 f   mmgame:wpobject.obj
 0001:0003af60       ?RadiusHit@mmWaypointObject@@QAEHVVector3@@@Z 0043bf60 f   mmgame:wpobject.obj
 0001:0003afb0       ?LineIntersect@mmWaypointObject@@QAEHVVector2@@000M@Z 0043bfb0 f   mmgame:wpobject.obj
 0001:0003b190       ?GetDrawFlag@mmWaypointObject@@QAEHXZ 0043c190 f   mmgame:wpobject.obj
 0001:0003b1a0       ?Move@mmWaypointObject@@QAEXXZ 0043c1a0 f   mmgame:wpobject.obj
 0001:0003b290       ?GetHitFlag@mmWaypointObject@@QAEHXZ 0043c290 f   mmgame:wpobject.obj
 0001:0003b2a0       ?SetHitFlag@mmWaypointObject@@QAEXH@Z 0043c2a0 f   mmgame:wpobject.obj
 0001:0003b2b0       ??_GmmWaypointObject@@UAEPAXI@Z 0043c2b0 f i mmgame:wpobject.obj
 0001:0003b2b0       ??_EmmWaypointObject@@UAEPAXI@Z 0043c2b0 f i mmgame:wpobject.obj
 0001:0003b2e0       ?LoadMusic@mmSingleRaceMusicData@@UAE_NPAD@Z 0043c2e0 f   mmgame:mmsingleracemusicdata.obj
 0001:0003b4d0       ?LoadMusicSegments@mmSingleRaceMusicData@@AAE_NPAVStream@@F@Z 0043c4d0 f   mmgame:mmsingleracemusicdata.obj
 0001:0003b6a0       ??0mmGameSingle@@QAE@XZ    0043c6a0 f   mmgame:gamesingle.obj
 0001:0003b720       ??1mmGameSingle@@UAE@XZ    0043c720 f   mmgame:gamesingle.obj
 0001:0003b730       ?Init@mmGameSingle@@UAEHXZ 0043c730 f   mmgame:gamesingle.obj
 0001:0003b740       ?InitOtherPlayers@mmGameSingle@@UAEXXZ 0043c740 f   mmgame:gamesingle.obj
 0001:0003b750       ?Reset@mmGameSingle@@UAEXXZ 0043c750 f   mmgame:gamesingle.obj
 0001:0003b7e0       ?EnableRacers@mmGameSingle@@IAEXXZ 0043c7e0 f   mmgame:gamesingle.obj
 0001:0003b860       ?DisableRacers@mmGameSingle@@IAEXXZ 0043c860 f   mmgame:gamesingle.obj
 0001:0003b8e0       ?HitWaterHandler@mmGameSingle@@UAEXXZ 0043c8e0 f   mmgame:gamesingle.obj
 0001:0003b900       ?Update@mmGameSingle@@UAEXXZ 0043c900 f   mmgame:gamesingle.obj
 0001:0003b910       ?UpdateGameInput@mmGameSingle@@UAEXH@Z 0043c910 f   mmgame:gamesingle.obj
 0001:0003b920       ?UpdateGame@mmGameSingle@@UAEXXZ 0043c920 f   mmgame:gamesingle.obj
 0001:0003b930       ?UpdateRewards@mmGameSingle@@IAE_NXZ 0043c930 f   mmgame:gamesingle.obj
 0001:0003ba40       ?AddWidgets@mmGameSingle@@QAEXPAVbkBank@@@Z 0043ca40 f   mmgame:gamesingle.obj
 0001:0003bd60       ??_EmmGameSingle@@UAEPAXI@Z 0043cd60 f i mmgame:gamesingle.obj
 0001:0003bd60       ??_GmmGameSingle@@UAEPAXI@Z 0043cd60 f i mmgame:gamesingle.obj
 0001:0003bd90       ?UpdateDebugKeyInput@mmGameSingle@@UAEXH@Z 0043cd90 f i mmgame:gamesingle.obj
 0001:0003bda0       ??1mmRewardRecord@@QAE@XZ  0043cda0 f i mmgame:gamesingle.obj
 0001:0003bdb0       ?Load@mmGameMusicData@@QAE_NPAD0@Z 0043cdb0 f   mmgame:mmgamemusicdata.obj
 0001:0003bdf0       ?GetNumDMusicChoiceGroups@mmGameMusicData@@QAEFPAVStream@@@Z 0043cdf0 f   mmgame:mmgamemusicdata.obj
 0001:0003be40       ?RandomizeNumber@mmGameMusicData@@QAEFF@Z 0043ce40 f   mmgame:mmgamemusicdata.obj
 0001:0003bea0       ?LoadAmbientSFX@mmGameMusicData@@AAE_NPAD@Z 0043cea0 f   mmgame:mmgamemusicdata.obj
 0001:0003c010       ?LoadAmbientSFXSegments@mmGameMusicData@@AAE_NPAVStream@@F@Z 0043d010 f   mmgame:mmgamemusicdata.obj
 0001:0003c0d0       ?LoadMusic@mmGameMusicData@@UAE_NPAD@Z 0043d0d0 f   mmgame:mmgamemusicdata.obj
 0001:0003c0f0       ??0mmWPHUD@@QAE@XZ         0043d0f0 f   mmgame:wphud.obj
 0001:0003c1f0       ??1mmWPHUD@@UAE@XZ         0043d1f0 f   mmgame:wphud.obj
 0001:0003c2a0       ?SetWPCleared@mmWPHUD@@QAEXXZ 0043d2a0 f   mmgame:wphud.obj
 0001:0003c2e0       ?SetStandings@mmWPHUD@@QAEXHH@Z 0043d2e0 f   mmgame:wphud.obj
 0001:0003c320       ?Init@mmWPHUD@@QAEXHPAH0H@Z 0043d320 f   mmgame:wphud.obj
 0001:0003c5f0       ?Reset@mmWPHUD@@UAEXXZ     0043d5f0 f   mmgame:wphud.obj
 0001:0003c640       ?Update@mmWPHUD@@UAEXXZ    0043d640 f   mmgame:wphud.obj
 0001:0003c670       ?Cull@mmWPHUD@@UAEXXZ      0043d670 f   mmgame:wphud.obj
 0001:0003c680       ??0mmCircuitHUD@@QAE@XZ    0043d680 f   mmgame:wphud.obj
 0001:0003c780       ??1mmCircuitHUD@@UAE@XZ    0043d780 f   mmgame:wphud.obj
 0001:0003c870       ?Init@mmCircuitHUD@@QAEXXZ 0043d870 f   mmgame:wphud.obj
 0001:0003cdf0       ?Update@mmCircuitHUD@@UAEXXZ 0043ddf0 f   mmgame:wphud.obj
 0001:0003ce00       ?SetStandings@mmCircuitHUD@@QAEXHH@Z 0043de00 f   mmgame:wphud.obj
 0001:0003ce40       ?SetLapTime@mmCircuitHUD@@QAEXHMPADH@Z 0043de40 f   mmgame:wphud.obj
 0001:0003cee0       ?SetWPCleared@mmCircuitHUD@@QAEXHH@Z 0043dee0 f   mmgame:wphud.obj
 0001:0003cf20       ?Reset@mmCircuitHUD@@UAEXXZ 0043df20 f   mmgame:wphud.obj
 0001:0003cfc0       ??0mmCRHUD@@QAE@XZ         0043dfc0 f   mmgame:wphud.obj
 0001:0003d190       ??1mmCRHUD@@UAE@XZ         0043e190 f   mmgame:wphud.obj
 0001:0003d2c0       ?Init@mmCRHUD@@QAEXPAVMatrix34@@PADW4mmCRGameClass@@@Z 0043e2c0 f   mmgame:wphud.obj
 0001:0003daa0       ?ToggleScores@mmCRHUD@@QAEXXZ 0043eaa0 f   mmgame:wphud.obj
 0001:0003dad0       ?AddPlayer@mmCRHUD@@QAEXPBDKHI@Z 0043ead0 f   mmgame:wphud.obj
 0001:0003dc30       ?UnPackColor@mmCRHUD@@QAEXIAAVVector4@@@Z 0043ec30 f   mmgame:wphud.obj
 0001:0003dcb0       ?SetScore@mmCRHUD@@QAEXPAD@Z 0043ecb0 f   mmgame:wphud.obj
 0001:0003dcd0       ?SetName@mmCRHUD@@QAEXPADH@Z 0043ecd0 f   mmgame:wphud.obj
 0001:0003dd50       ?SetScore@mmCRHUD@@QAEXKH@Z 0043ed50 f   mmgame:wphud.obj
 0001:0003ddc0       ?RemovePlayer@mmCRHUD@@QAEXK@Z 0043edc0 f   mmgame:wphud.obj
 0001:0003df60       ?ActivateGold@mmCRHUD@@QAEXXZ 0043ef60 f   mmgame:wphud.obj
 0001:0003df70       ?DeactivateGold@mmCRHUD@@QAEXXZ 0043ef70 f   mmgame:wphud.obj
 0001:0003df80       ?ActivateRosterGold@mmCRHUD@@QAEXK@Z 0043ef80 f   mmgame:wphud.obj
 0001:0003dfc0       ?DeactivateRosterGold@mmCRHUD@@QAEXXZ 0043efc0 f   mmgame:wphud.obj
 0001:0003dff0       ?UpdateGold@mmCRHUD@@QAEXXZ 0043eff0 f   mmgame:wphud.obj
 0001:0003e090       ?PostUpdate@mmCRHUD@@UAEXXZ 0043f090 f   mmgame:wphud.obj
 0001:0003e0b0       ?Update@mmCRHUD@@UAEXXZ    0043f0b0 f   mmgame:wphud.obj
 0001:0003e0c0       ?Reset@mmCRHUD@@UAEXXZ     0043f0c0 f   mmgame:wphud.obj
 0001:0003e0d0       ?SetBlueScore@mmCRHUD@@QAEXH@Z 0043f0d0 f   mmgame:wphud.obj
 0001:0003e110       ?SetRedScore@mmCRHUD@@QAEXH@Z 0043f110 f   mmgame:wphud.obj
 0001:0003e150       ??0mmCollideHUD@@QAE@XZ    0043f150 f   mmgame:wphud.obj
 0001:0003e180       ??1mmCollideHUD@@UAE@XZ    0043f180 f   mmgame:wphud.obj
 0001:0003e210       ?Init@mmCollideHUD@@QAEXHPAH0H@Z 0043f210 f   mmgame:wphud.obj
 0001:0003e4a0       ?Update@mmCollideHUD@@UAEXXZ 0043f4a0 f   mmgame:wphud.obj
 0001:0003e4b0       ?Reset@mmCollideHUD@@UAEXXZ 0043f4b0 f   mmgame:wphud.obj
 0001:0003e4d0       ?SetBangerCount@mmCollideHUD@@QAEXH@Z 0043f4d0 f   mmgame:wphud.obj
 0001:0003e510       ?SetVehicleCount@mmCollideHUD@@QAEXH@Z 0043f510 f   mmgame:wphud.obj
 0001:0003e550       ??_GmmWPHUD@@UAEPAXI@Z     0043f550 f i mmgame:wphud.obj
 0001:0003e550       ??_EmmWPHUD@@UAEPAXI@Z     0043f550 f i mmgame:wphud.obj
 0001:0003e580       ??_EmmCircuitHUD@@UAEPAXI@Z 0043f580 f i mmgame:wphud.obj
 0001:0003e580       ??_GmmCircuitHUD@@UAEPAXI@Z 0043f580 f i mmgame:wphud.obj
 0001:0003e5b0       ??_EmmNumber@@UAEPAXI@Z    0043f5b0 f i mmgame:wphud.obj
 0001:0003e610       ??_EmmTextNode@@UAEPAXI@Z  0043f610 f i mmgame:wphud.obj
 0001:0003e670       ??_EmmCRHUD@@UAEPAXI@Z     0043f670 f i mmgame:wphud.obj
 0001:0003e670       ??_GmmCRHUD@@UAEPAXI@Z     0043f670 f i mmgame:wphud.obj
 0001:0003e6a0       ??_EmmCollideHUD@@UAEPAXI@Z 0043f6a0 f i mmgame:wphud.obj
 0001:0003e6a0       ??_GmmCollideHUD@@UAEPAXI@Z 0043f6a0 f i mmgame:wphud.obj
 0001:0003e6d0       ??1mmGameHUD@@UAE@XZ       0043f6d0 f i mmgame:wphud.obj
 0001:0003e6e0       ??_EmmGameHUD@@UAEPAXI@Z   0043f6e0 f i mmgame:wphud.obj
 0001:0003e6e0       ??_GmmGameHUD@@UAEPAXI@Z   0043f6e0 f i mmgame:wphud.obj
 0001:0003e710       ?PostUpdate@mmWPHUD@@UAEXXZ 0043f710 f i mmgame:wphud.obj
 0001:0003e720       ?PostUpdate@mmCircuitHUD@@UAEXXZ 0043f720 f i mmgame:wphud.obj
 0001:0003e730       ?LoadMusic@mmSingleRoamMusicData@@UAE_NPAD@Z 0043f730 f   mmgame:mmsingleroammusicdata.obj
 0001:0003e8f0       ?LoadMusicSegments@mmSingleRoamMusicData@@AAE_NPAVStream@@F@Z 0043f8f0 f   mmgame:mmsingleroammusicdata.obj
 0001:0003eaa0       ?SendPositionUpdates@@YAKPAX@Z 0043faa0 f   mmgame:gamemulti.obj
 0001:0003eab0       ??0mmGameMulti@@QAE@XZ     0043fab0 f   mmgame:gamemulti.obj
 0001:0003ec60       ??1mmGameMulti@@UAE@XZ     0043fc60 f   mmgame:gamemulti.obj
 0001:0003ed30       ?Init@mmGameMulti@@UAEHXZ  0043fd30 f   mmgame:gamemulti.obj
 0001:0003eee0       ?HitWaterHandler@mmGameMulti@@UAEXXZ 0043fee0 f   mmgame:gamemulti.obj
 0001:0003f010       ?DropThruCityHandler@mmGameMulti@@UAEXXZ 00440010 f   mmgame:gamemulti.obj
 0001:0003f020       ?InitGameStrings@mmGameMulti@@UAEXXZ 00440020 f   mmgame:gamemulti.obj
 0001:0003f250       ?SetFinishCam@mmGameMulti@@QAEXXZ 00440250 f   mmgame:gamemulti.obj
 0001:0003f2d0       ?StartXYZ@mmGameMulti@@IAEXHAAVVector3@@0MM@Z 004402d0 f   mmgame:gamemulti.obj
 0001:0003f530       ?SystemMessageCB@mmGameMulti@@QAEXPAX0@Z 00440530 f   mmgame:gamemulti.obj
 0001:0003f8b0       ?GameMessageCB@mmGameMulti@@QAEXPAX0@Z 004408b0 f   mmgame:gamemulti.obj
 0001:00040180       ?BootStrapCars@mmGameMulti@@QAEXXZ 00441180 f   mmgame:gamemulti.obj
 0001:000402a0       ?BeDone@mmGameMulti@@UAEXH@Z 004412a0 f   mmgame:gamemulti.obj
 0001:000403a0       ?Reset@mmGameMulti@@UAEXXZ 004413a0 f   mmgame:gamemulti.obj
 0001:00040460       ?ClearNetObjects@mmGameMulti@@QAEXXZ 00441460 f   mmgame:gamemulti.obj
 0001:000404a0       ?InitOtherPlayers@mmGameMulti@@UAEXXZ 004414a0 f   mmgame:gamemulti.obj
 0001:000404d0       ?InitRoster@mmGameMulti@@UAEXXZ 004414d0 f   mmgame:gamemulti.obj
 0001:00040570       ?SendPosition@mmGameMulti@@QAEXXZ 00441570 f   mmgame:gamemulti.obj
 0001:00040680       ?Update@mmGameMulti@@UAEXXZ 00441680 f   mmgame:gamemulti.obj
 0001:00040700       ?UpdateGame@mmGameMulti@@UAEXXZ 00441700 f   mmgame:gamemulti.obj
 0001:000407d0       ?UpdateScore@mmGameMulti@@QAEXXZ 004417d0 f   mmgame:gamemulti.obj
 0001:00040c00       ?ClearRank@mmGameMulti@@QAEXXZ 00441c00 f   mmgame:gamemulti.obj
 0001:00040c20       ?UpdateDebugKeyInput@mmGameMulti@@UAEXH@Z 00441c20 f   mmgame:gamemulti.obj
 0001:00040c30       ?RegisterMapNetObjects@mmGameMulti@@QAEXH@Z 00441c30 f   mmgame:gamemulti.obj
 0001:00040d50       ?DeactivateMapNetObject@mmGameMulti@@QAEXH@Z 00441d50 f   mmgame:gamemulti.obj
 0001:00040d80       ?ActivateMapNetObject@mmGameMulti@@QAEXH@Z 00441d80 f   mmgame:gamemulti.obj
 0001:00040dc0       ?GetInactiveNetObject@mmGameMulti@@QAEPAVmmNetObject@@XZ 00441dc0 f   mmgame:gamemulti.obj
 0001:00040df0       ?GetInactiveNetObjectIndex@mmGameMulti@@QAEHXZ 00441df0 f   mmgame:gamemulti.obj
 0001:00040e10       ?GetNetObject@mmGameMulti@@QAEPAVmmNetObject@@KH@Z 00441e10 f   mmgame:gamemulti.obj
 0001:00040e50       ?GetNetObjectIndex@mmGameMulti@@QAEHKH@Z 00441e50 f   mmgame:gamemulti.obj
 0001:00040ea0       ?EnableRacers@mmGameMulti@@IAEXXZ 00441ea0 f   mmgame:gamemulti.obj
 0001:00040f20       ?DisableRacers@mmGameMulti@@IAEXXZ 00441f20 f   mmgame:gamemulti.obj
 0001:00040f80       ?QuitNetwork@mmGameMulti@@QAEXXZ 00441f80 f   mmgame:gamemulti.obj
 0001:00040fb0       ?PlayerFinishedLoading@mmGameMulti@@QAEXXZ 00441fb0 f   mmgame:gamemulti.obj
 0001:00041010       ?PlayerClearLoaded@mmGameMulti@@QAEXXZ 00442010 f   mmgame:gamemulti.obj
 0001:00041060       ?ParseChatMessage@mmGameMulti@@QAEHPADH@Z 00442060 f   mmgame:gamemulti.obj
 0001:00041150       ?SortResults@mmGameMulti@@IAE_NKMH@Z 00442150 f   mmgame:gamemulti.obj
 0001:000411d0       ?UpdateResults@mmGameMulti@@IAEXH@Z 004421d0 f   mmgame:gamemulti.obj
 0001:00041300       ?BroadCastCarTuning@mmGameMulti@@QAEXH@Z 00442300 f   mmgame:gamemulti.obj
 0001:00041370       ?SendChatMessage@mmGameMulti@@UAEXPAD@Z 00442370 f   mmgame:gamemulti.obj
 0001:000413e0       ?SendToChatMessage@mmGameMulti@@QAEXPADK@Z 004423e0 f   mmgame:gamemulti.obj
 0001:00041450       ?SendTimeMsg@mmGameMulti@@QAEXK@Z 00442450 f   mmgame:gamemulti.obj
 0001:00041470       ?SendCarTuning@mmGameMulti@@QAEXPBDK@Z 00442470 f   mmgame:gamemulti.obj
 0001:00041480       ?SendHostCars@mmGameMulti@@QAEXK@Z 00442480 f   mmgame:gamemulti.obj
 0001:00041500       ?FinishMessage@mmGameMulti@@QAEXH@Z 00442500 f   mmgame:gamemulti.obj
 0001:000415c0       ?BootPlayerCB@mmGameMulti@@QAEXPAX0@Z 004425c0 f   mmgame:gamemulti.obj
 0001:00041600       ?UpdateNetWorkAudio@mmGameMulti@@QAEXXZ 00442600 f   mmgame:gamemulti.obj
 0001:00041610       ?SendLobbyResults@mmGameMulti@@QAEXHIM@Z 00442610 f   mmgame:gamemulti.obj
 0001:000416b0       ?GetCarCRC@mmGameMulti@@IAEKPAD@Z 004426b0 f   mmgame:gamemulti.obj
 0001:000416d0       ?SendMsg@mmGameMulti@@QAEXH@Z 004426d0 f   mmgame:gamemulti.obj
 0001:000416f0       ?SendBootMsg@mmGameMulti@@QAEXK@Z 004426f0 f   mmgame:gamemulti.obj
 0001:00041710       ?SendFinishAck@mmGameMulti@@IAEXKMH@Z 00442710 f   mmgame:gamemulti.obj
 0001:00041750       ?SendFinishReq@mmGameMulti@@IAEXMH@Z 00442750 f   mmgame:gamemulti.obj
 0001:00041790       ?SendRaceReady@mmGameMulti@@IAEXXZ 00442790 f   mmgame:gamemulti.obj
 0001:000417e0       ?SendGameSet@mmGameMulti@@IAEXXZ 004427e0 f   mmgame:gamemulti.obj
 0001:00041830       ?SendCheater@mmGameMulti@@IAEXK@Z 00442830 f   mmgame:gamemulti.obj
 0001:00041870       ?AddWidgets@mmGameMulti@@QAEXPAVbkBank@@@Z 00442870 f   mmgame:gamemulti.obj
 0001:000419e0       ??_EmmGameMulti@@UAEPAXI@Z 004429e0 f i mmgame:gamemulti.obj
 0001:000419e0       ??_GmmGameMulti@@UAEPAXI@Z 004429e0 f i mmgame:gamemulti.obj
 0001:00041a10       ?Dot@Vector3@@QAEXABV1@ABVMatrix34@@@Z 00442a10 f i mmgame:gamemulti.obj
 0001:00041a70       ?Init@mmAccelCompute@@QAEHVVector3@@0@Z 00442a70 f   mmgame:netobject.obj
 0001:00041ac0       ?SetLatest@mmAccelCompute@@QAEXVVector3@@M@Z 00442ac0 f   mmgame:netobject.obj
 0001:00041bd0       ??0mmNetPath@@QAE@XZ       00442bd0 f   mmgame:netobject.obj
 0001:00041c60       ??1mmNetPath@@QAE@XZ       00442c60 f   mmgame:netobject.obj
 0001:00041c70       ?Reset@mmNetPath@@QAEXXZ   00442c70 f   mmgame:netobject.obj
 0001:00041ca0       ?Compute@mmNetPath@@QAEXAAVVector3@@000@Z 00442ca0 f   mmgame:netobject.obj
 0001:00041e50       ?Solve@mmNetPath@@QAEXAAVVector3@@0M@Z 00442e50 f   mmgame:netobject.obj
 0001:00041ef0       ??0mmNetObject@@QAE@XZ     00442ef0 f   mmgame:netobject.obj
 0001:00042230       ??1mmNetObject@@UAE@XZ     00443230 f   mmgame:netobject.obj
 0001:00042250       ?ResetValues@mmNetObject@@QAEXXZ 00443250 f   mmgame:netobject.obj
 0001:00042360       ?Clear@mmNetObject@@QAEXXZ 00443360 f   mmgame:netobject.obj
 0001:00042470       ?Activate@mmNetObject@@QAEXXZ 00443470 f   mmgame:netobject.obj
 0001:000424a0       ?Deactivate@mmNetObject@@QAEXXZ 004434a0 f   mmgame:netobject.obj
 0001:000424d0       ?Init@mmNetObject@@QAEXPAVvehCar@@PADMHK1_N@Z 004434d0 f   mmgame:netobject.obj
 0001:00042570       ?ReInit@mmNetObject@@QAEXPAVvehCar@@PADMHK1_N@Z 00443570 f   mmgame:netobject.obj
 0001:00042670       ?SetCar@mmNetObject@@QAEXPAVvehCar@@@Z 00443670 f   mmgame:netobject.obj
 0001:00042680       ?Set@mmNetObject@@QAEXH@Z  00443680 f   mmgame:netobject.obj
 0001:00042690       ?SetActive@mmNetObject@@QAEXH@Z 00443690 f   mmgame:netobject.obj
 0001:000426b0       ?SetScore@mmNetObject@@QAEXH@Z 004436b0 f   mmgame:netobject.obj
 0001:000426c0       ?SetInputData@mmNetObject@@QAEXXZ 004436c0 f   mmgame:netobject.obj
 0001:00042750       ?SetPositionData@mmNetObject@@QAEHK@Z 00443750 f   mmgame:netobject.obj
 0001:00042bb0       ?InputUpdate@mmNetObject@@QAEXPAUNET_INPUTDATA@@M@Z 00443bb0 f   mmgame:netobject.obj
 0001:00042c30       ?PositionUpdate@mmNetObject@@QAEXPAUNET_POSDATA@@M@Z 00443c30 f   mmgame:netobject.obj
 0001:000435c0       ?GetPositionApproach@mmNetObject@@QAEMABVVector3@@0@Z 004445c0 f   mmgame:netobject.obj
 0001:00043610       ?GetAngleApproach@mmNetObject@@QAEMMM@Z 00444610 f   mmgame:netobject.obj
 0001:00043620       ?Predict@mmNetObject@@QAEXXZ 00444620 f   mmgame:netobject.obj
 0001:00043720       ?Update@mmNetObject@@UAEXXZ 00444720 f   mmgame:netobject.obj
 0001:000437f0       ?Cull@mmNetObject@@UAEXXZ  004447f0 f   mmgame:netobject.obj
 0001:00043bd0       ?AddWidgets@mmNetObject@@UAEXAAVbkBank@@@Z 00444bd0 f   mmgame:netobject.obj
 0001:00043d70       ??_GmmNetObject@@UAEPAXI@Z 00444d70 f i mmgame:netobject.obj
 0001:00043d70       ??_EmmNetObject@@UAEPAXI@Z 00444d70 f i mmgame:netobject.obj
 0001:00043da0       ?Scale@Vector3@@QAEXABV1@M@Z 00444da0 f i mmgame:netobject.obj
 0001:00043dd0       ??DVector3@@QBE?AV0@M@Z    00444dd0 f i mmgame:netobject.obj
 0001:00043e10       ?Set@Vector4@@QAEXMMMM@Z   00444e10 f i mmgame:netobject.obj
 0001:00043e30       ?Dot@Vector4@@QBEMABV1@@Z  00444e30 f i mmgame:netobject.obj
 0001:00043e60       ??0Matrix34@@QAE@XZ        00444e60 f i mmgame:netobject.obj
 0001:00043e90       ??0QuantVector3@@QAE@XZ    00444e90 f i mmgame:netobject.obj
 0001:00043ea0       ??1mmAccelCompute@@QAE@XZ  00444ea0 f i mmgame:netobject.obj
 0001:00043eb0       ??0RadialGauge@@QAE@XZ     00444eb0 f   mmgame:gauge.obj
 0001:00043fd0       ?Init@RadialGauge@@QAEXPAVmodStatic@@PAPAVmodShader@@VVector3@@PBM3M@Z 00444fd0 f   mmgame:gauge.obj
 0001:00044050       ?AddWidgets@RadialGauge@@QAEXPAVbkBank@@@Z 00445050 f   mmgame:gauge.obj
 0001:00044060       ?Update@RadialGauge@@UAEXXZ 00445060 f   mmgame:gauge.obj
 0001:00044180       ?Cull@RadialGauge@@UAEXXZ  00445180 f   mmgame:gauge.obj
 0001:00044230       ?Cull@RadialGauge@@QAEXPBVMatrix34@@@Z 00445230 f   mmgame:gauge.obj
 0001:00044580       ?GetArrowAngle@RadialGauge@@AAEMXZ 00445580 f   mmgame:gauge.obj
 0001:00044670       ??0mmLinearGauge@@QAE@XZ   00445670 f   mmgame:gauge.obj
 0001:00044690       ??1mmLinearGauge@@QAE@XZ   00445690 f   mmgame:gauge.obj
 0001:000446a0       ?Init@mmLinearGauge@@QAEXPADPAM1HPAVmmExternalView@@@Z 004456a0 f   mmgame:gauge.obj
 0001:00044700       ?InitOverlay@mmLinearGauge@@QAEXPAD@Z 00445700 f   mmgame:gauge.obj
 0001:00044720       ?Draw@mmLinearGauge@@QAEXXZ 00445720 f   mmgame:gauge.obj
 0001:000447e0       ?Init@mmSlidingGauge@@QAEXPADPAM1HPAVmmExternalView@@H@Z 004457e0 f   mmgame:gauge.obj
 0001:00044810       ?Draw@mmSlidingGauge@@QAEXXZ 00445810 f   mmgame:gauge.obj
 0001:000448d0       ??0mmGearIndicator@@QAE@XZ 004458d0 f   mmgame:gauge.obj
 0001:000448f0       ?Init@mmGearIndicator@@QAEXPAVmmExternalView@@PAVmmPlayer@@@Z 004458f0 f   mmgame:gauge.obj
 0001:00044a20       ?Draw@mmGearIndicator@@QAEXXZ 00445a20 f   mmgame:gauge.obj
 0001:00044a90       ??0mmSpeedIndicator@@QAE@XZ 00445a90 f   mmgame:gauge.obj
 0001:00044ab0       ?Init@mmSpeedIndicator@@QAEXPAVmmExternalView@@PAVvehCarSim@@@Z 00445ab0 f   mmgame:gauge.obj
 0001:00044b60       ?Draw@mmSpeedIndicator@@QAEXXZ 00445b60 f   mmgame:gauge.obj
 0001:00044c80       ??_GRadialGauge@@UAEPAXI@Z 00445c80 f i mmgame:gauge.obj
 0001:00044c80       ??_ERadialGauge@@UAEPAXI@Z 00445c80 f i mmgame:gauge.obj
 0001:00044cb0       ??0Vector3@@QAE@MMM@Z      00445cb0 f i mmgame:gauge.obj
 0001:00044cd0       ?Set@Vector3@@QAEXABV1@@Z  00445cd0 f i mmgame:gauge.obj
 0001:00044cf0       ?SetLighting@gfxRenderState@@QAEX_N@Z 00445cf0 f i mmgame:gauge.obj
 0001:00044d30       ?CheckSet@gfxRenderState@@AAEXAAEE@Z 00445d30 f i mmgame:gauge.obj
 0001:00044d50       ??0mmWaypointInstance@@QAE@XZ 00445d50 f   mmgame:wpinst.obj
 0001:00044df0       ??1mmWaypointInstance@@QAE@XZ 00445df0 f   mmgame:wpinst.obj
 0001:00044e00       ?GetPosition@mmWaypointInstance@@UAEABVVector3@@XZ 00445e00 f   mmgame:wpinst.obj
 0001:00044e10       ?GetMatrix@mmWaypointInstance@@UAEABVMatrix34@@AAV2@@Z 00445e10 f   mmgame:wpinst.obj
 0001:00044e30       ?SetMatrix@mmWaypointInstance@@UAEXABVMatrix34@@@Z 00445e30 f   mmgame:wpinst.obj
 0001:00044e50       ?MakeVisible@mmWaypointInstance@@QAEXXZ 00445e50 f   mmgame:wpinst.obj
 0001:00044e60       ?MakeInvisible@mmWaypointInstance@@QAEXXZ 00445e60 f   mmgame:wpinst.obj
 0001:00044e70       ??0mmCheckpointInstance@@QAE@XZ 00445e70 f   mmgame:wpinst.obj
 0001:00044ed0       ??1mmCheckpointInstance@@QAE@XZ 00445ed0 f   mmgame:wpinst.obj
 0001:00044ee0       ?Init@mmCheckpointInstance@@UAEXPADVVector3@@@Z 00445ee0 f   mmgame:wpinst.obj
 0001:00044f30       ?Draw@mmCheckpointInstance@@UAEXH@Z 00445f30 f   mmgame:wpinst.obj
 0001:00045110       ?SizeOf@mmCheckpointInstance@@UAEIXZ 00446110 f   mmgame:wpinst.obj
 0001:00045120       ??0mmBillInstance@@QAE@XZ  00446120 f   mmgame:wpinst.obj
 0001:00045180       ??1mmBillInstance@@QAE@XZ  00446180 f   mmgame:wpinst.obj
 0001:00045190       ?Init@mmBillInstance@@UAEXPADVVector3@@@Z 00446190 f   mmgame:wpinst.obj
 0001:000451d0       ?Draw@mmBillInstance@@UAEXH@Z 004461d0 f   mmgame:wpinst.obj
 0001:00045440       ?SizeOf@mmBillInstance@@UAEIXZ 00446440 f   mmgame:wpinst.obj
 0001:00045450       ??0mmPowerupInstance@@QAE@XZ 00446450 f   mmgame:wpinst.obj
 0001:000454b0       ??1mmPowerupInstance@@QAE@XZ 004464b0 f   mmgame:wpinst.obj
 0001:000454c0       ?Init@mmPowerupInstance@@UAEXPADVVector3@@@Z 004464c0 f   mmgame:wpinst.obj
 0001:00045500       ?Draw@mmPowerupInstance@@UAEXH@Z 00446500 f   mmgame:wpinst.obj
 0001:000456f0       ?SizeOf@mmPowerupInstance@@UAEIXZ 004466f0 f   mmgame:wpinst.obj
 0001:00045700       ?Detach@lvlInstance@@UAEXXZ 00446700 f i mmgame:wpinst.obj
 0001:00045710       ?IsCollidable@lvlInstance@@UAE_NXZ 00446710 f i mmgame:wpinst.obj
 0001:00045720       ?IsTerrainCollidable@lvlInstance@@UAE_NXZ 00446720 f i mmgame:wpinst.obj
 0001:00045730       ?SetVariant@mmWaypointInstance@@UAEXH@Z 00446730 f i mmgame:wpinst.obj
 0001:00045740       ??0dgBangerActive@@QAE@XZ  00446740 f   banger:active.obj
 0001:00045810       ??1dgBangerActive@@UAE@XZ  00446810 f   banger:active.obj
 0001:00045880       ?GetInst@dgBangerActive@@UAEPAVlvlInstance@@XZ 00446880 f   banger:active.obj
 0001:000458a0       ?Attach@dgBangerActive@@QAEXPAVdgBangerInstance@@@Z 004468a0 f   banger:active.obj
 0001:00045b50       ?Detach@dgBangerActive@@QAEXXZ 00446b50 f   banger:active.obj
 0001:00045b90       ?DetachMe@dgBangerActive@@UAEXXZ 00446b90 f   banger:active.obj
 0001:00045bb0       ?Update@dgBangerActive@@UAEXXZ 00446bb0 f   banger:active.obj
 0001:00045c40       ?PostUpdate@dgBangerActive@@UAEXXZ 00446c40 f   banger:active.obj
 0001:00045cd0       ??0dgBangerActiveManager@@QAE@XZ 00446cd0 f   banger:active.obj
 0001:00045d80       ??1dgBangerActiveManager@@UAE@XZ 00446d80 f   banger:active.obj
 0001:00045df0       ?GetActive@dgBangerActiveManager@@QAEPAVdgBangerActive@@PAVdgBangerInstance@@@Z 00446df0 f   banger:active.obj
 0001:00045e20       ?Attach@dgBangerActiveManager@@QAEPAVdgBangerActive@@PAVdgBangerInstance@@@Z 00446e20 f   banger:active.obj
 0001:00045eb0       ?Detach@dgBangerActiveManager@@QAEXPAVdgBangerActive@@@Z 00446eb0 f   banger:active.obj
 0001:00045f00       ?Update@dgBangerActiveManager@@UAEXXZ 00446f00 f   banger:active.obj
 0001:00046060       ?Reset@dgBangerActiveManager@@UAEXXZ 00447060 f   banger:active.obj
 0001:000460c0       ??_EdgBangerActive@@UAEPAXI@Z 004470c0 f i banger:active.obj
 0001:000460c0       ??_GdgBangerActive@@UAEPAXI@Z 004470c0 f i banger:active.obj
 0001:000460f0       ??_GdgBangerActiveManager@@UAEPAXI@Z 004470f0 f i banger:active.obj
 0001:000460f0       ??_EdgBangerActiveManager@@UAEPAXI@Z 004470f0 f i banger:active.obj
 0001:00046120       ?GetICS@dgBangerActive@@UAEPAVphInertialCS@@XZ 00447120 f i banger:active.obj
 0001:00046130       ?LoadEntry@dgBangerData@@QAEHPAD@Z 00447130 f   banger:data.obj
 0001:00046160       ?GetDirName@dgBangerData@@UAEPBDXZ 00447160 f   banger:data.obj
 0001:00046170       ?AdjustPrim@dgBangerData@@QAEXXZ 00447170 f   banger:data.obj
 0001:00046180       ?AddWidgets@dgBangerData@@UAEXAAVbkBank@@@Z 00447180 f   banger:data.obj
 0001:00046470       ?SetFricElas@dgBangerData@@QAEXXZ 00447470 f   banger:data.obj
 0001:00046540       ??0dgBangerDataManager@@QAE@XZ 00447540 f   banger:data.obj
 0001:00046700       ??1dgBangerDataManager@@UAE@XZ 00447700 f   banger:data.obj
 0001:000467e0       ?AddBangerDataEntry@dgBangerDataManager@@QAEHPBD0@Z 004477e0 f   banger:data.obj
 0001:00046920       ?SaveEntry@dgBangerDataManager@@QAEXXZ 00447920 f   banger:data.obj
 0001:00046950       ?AddWidgets@dgBangerDataManager@@UAEXAAVbkBank@@@Z 00447950 f   banger:data.obj
 0001:00046b50       ?ChangeData@dgBangerDataManager@@QAEXXZ 00447b50 f   banger:data.obj
 0001:00046b90       ?Load@dgBangerData@@UAE_NXZ 00447b90 f   banger:data.obj
 0001:00046ef0       ?Save@dgBangerData@@UAE_NXZ 00447ef0 f   banger:data.obj
 0001:000472b0       ?AdjustBound@dgBangerData@@QAEXXZ 004482b0 f   banger:data.obj
 0001:00047300       ?InitBound@dgBangerData@@QAEXXZ 00448300 f   banger:data.obj
 0001:00047530       ??_EdgBangerDataManager@@UAEPAXI@Z 00448530 f i banger:data.obj
 0001:00047530       ??_GdgBangerDataManager@@UAEPAXI@Z 00448530 f i banger:data.obj
 0001:00047560       ??1ptxGlassBirthRules@@UAE@XZ 00448560 f i banger:data.obj
 0001:00047570       ??_EptxGlassBirthRules@@UAEPAXI@Z 00448570 f i banger:data.obj
 0001:00047570       ??_GptxGlassBirthRules@@UAEPAXI@Z 00448570 f i banger:data.obj
 0001:000475a0       ?GetClassName@ptxGlassBirthRules@@UAEPADXZ 004485a0 f i banger:data.obj
 0001:000475b0       ??0dgBangerData@@QAE@XZ    004485b0 f i banger:data.obj
 0001:000476d0       ?GetClassName@dgBangerData@@UAEPADXZ 004486d0 f i banger:data.obj
 0001:000476e0       ??_GdgBangerData@@UAEPAXI@Z 004486e0 f i banger:data.obj
 0001:000476e0       ??_EdgBangerData@@UAEPAXI@Z 004486e0 f i banger:data.obj
 0001:00047710       ??1dgBangerData@@UAE@XZ    00448710 f i banger:data.obj
 0001:00047760       ?GetClassName@dgBangerDataManager@@UAEPADXZ 00448760 f i banger:data.obj
 0001:00047770       ?ComputeLod@dgBangerInstance@@UAEHMM@Z 00448770 f   banger:banger.obj
 0001:00047790       ?Draw@dgBangerInstance@@UAEXH@Z 00448790 f   banger:banger.obj
 0001:00047980       ?DrawReflected@dgBangerInstance@@UAEXM@Z 00448980 f   banger:banger.obj
 0001:00047990       ?DrawTree@dgBangerInstance@@QAEXH@Z 00448990 f   banger:banger.obj
 0001:00047a40       ?DrawGlow@dgBangerInstance@@UAEXXZ 00448a40 f   banger:banger.obj
 0001:00047bd0       ?DrawShadow@dgBangerInstance@@UAEXXZ 00448bd0 f   banger:banger.obj
 0001:00047be0       ?DrawShadowMap@dgBangerInstance@@UAEXXZ 00448be0 f   banger:banger.obj
 0001:00047d40       ?GetData@dgBangerInstance@@QAEPAVdgBangerData@@XZ 00448d40 f   banger:banger.obj
 0001:00047d60       ?GetEntity@dgBangerInstance@@UAEPAVdgPhysEntity@@XZ 00448d60 f   banger:banger.obj
 0001:00047d70       ?AttachEntity@dgBangerInstance@@UAEPAVdgPhysEntity@@XZ 00448d70 f   banger:banger.obj
 0001:00047db0       ?GetVelocity@dgBangerInstance@@UAEABVVector3@@XZ 00448db0 f   banger:banger.obj
 0001:00047dd0       ?SetMatrix@dgHitBangerInstance@@UAEXABVMatrix34@@@Z 00448dd0 f   banger:banger.obj
 0001:00047df0       ?GetMatrix@dgHitBangerInstance@@UAEABVMatrix34@@AAV2@@Z 00448df0 f   banger:banger.obj
 0001:00047e00       ?GetPosition@dgHitBangerInstance@@UAEABVVector3@@XZ 00448e00 f   banger:banger.obj
 0001:00047e10       ?InitBreakables@dgUnhitBangerInstance@@QAEXPBDPAVdgBangerData@@@Z 00448e10 f   banger:banger.obj
 0001:00047ec0       ?Init@dgUnhitBangerInstance@@UAEHPBDABVMatrix34@@H@Z 00448ec0 f   banger:banger.obj
 0001:00048020       ?RequestBanger@dgUnhitBangerInstance@@SAPAV1@PBDH@Z 00449020 f   banger:banger.obj
 0001:000481c0       ?Reset@dgUnhitBangerInstance@@UAEXXZ 004491c0 f   banger:banger.obj
 0001:00048220       ?SetMatrix@dgUnhitYBangerInstance@@UAEXABVMatrix34@@@Z 00449220 f   banger:banger.obj
 0001:00048250       ?GetMatrix@dgUnhitYBangerInstance@@UAEABVMatrix34@@AAV2@@Z 00449250 f   banger:banger.obj
 0001:000482a0       ?GetPosition@dgUnhitYBangerInstance@@UAEABVVector3@@XZ 004492a0 f   banger:banger.obj
 0001:000482b0       ?SetMatrix@dgUnhitMtxBangerInstance@@UAEXABVMatrix34@@@Z 004492b0 f   banger:banger.obj
 0001:000482d0       ?GetMatrix@dgUnhitMtxBangerInstance@@UAEABVMatrix34@@AAV2@@Z 004492d0 f   banger:banger.obj
 0001:000482e0       ?GetPosition@dgUnhitMtxBangerInstance@@UAEABVVector3@@XZ 004492e0 f   banger:banger.obj
 0001:000482f0       ?Impact@dgUnhitBangerInstance@@UAEXPAVlvlInstance@@PAVVector3@@@Z 004492f0 f   banger:banger.obj
 0001:00048a00       ?InitBound@dgUnhitBangerInstance@@QAE_NPBD0PAVdgBangerData@@H@Z 00449a00 f   banger:banger.obj
 0001:00048a10       ?GetBound@dgBangerInstance@@UAEPBVphBound@@H@Z 00449a10 f   banger:banger.obj
 0001:00048b30       ?Detach@dgHitBangerInstance@@UAEXXZ 00449b30 f   banger:banger.obj
 0001:00048b60       ??0dgBangerManager@@QAE@XZ 00449b60 f   banger:banger.obj
 0001:00048b90       ??1dgBangerManager@@UAE@XZ 00449b90 f   banger:banger.obj
 0001:00048c30       ?GetBanger@dgBangerManager@@QAEPAVdgHitBangerInstance@@XZ 00449c30 f   banger:banger.obj
 0001:00048c90       ?Init@dgBangerManager@@QAEXH@Z 00449c90 f   banger:banger.obj
 0001:00048d20       ?InitGlow@dgBangerManager@@QAEXPBD@Z 00449d20 f   banger:banger.obj
 0001:00048d50       ?Reset@dgBangerManager@@UAEXXZ 00449d50 f   banger:banger.obj
 0001:00048dc0       ?SetupGfxLights@dgBangerInstance@@UBEHABVMatrix34@@@Z 00449dc0 f   banger:banger.obj
 0001:00048dd0       ??_EdgBangerManager@@UAEPAXI@Z 00449dd0 f i banger:banger.obj
 0001:00048dd0       ??_GdgBangerManager@@UAEPAXI@Z 00449dd0 f i banger:banger.obj
 0001:00048e00       ??_EdgHitBangerInstance@@QAEPAXI@Z 00449e00 f i banger:banger.obj
 0001:00048e60       ??1dgHitBangerInstance@@QAE@XZ 00449e60 f i banger:banger.obj
 0001:00048e70       ?Add@Vector3@@QAEXABV1@@Z  00449e70 f i banger:banger.obj
 0001:00048ea0       ?Cross@Vector3@@QAEXABV1@0@Z 00449ea0 f i banger:banger.obj
 0001:00048ef0       ?SetVariant@dgBangerInstance@@UAEXH@Z 00449ef0 f i banger:banger.obj
 0001:00048f40       ??0dgHitBangerInstance@@QAE@XZ 00449f40 f i banger:banger.obj
 0001:00048fc0       ?SizeOf@dgHitBangerInstance@@UAEIXZ 00449fc0 f i banger:banger.obj
 0001:00048fd0       ??1dgBangerInstance@@QAE@XZ 00449fd0 f i banger:banger.obj
 0001:00048fe0       ?ImpactCB@dgUnhitBangerInstance@@UAEXPAVdgHitBangerInstance@@@Z 00449fe0 f i banger:banger.obj
 0001:00048ff0       ?SizeOf@dgUnhitYBangerInstance@@UAEIXZ 00449ff0 f i banger:banger.obj
 0001:00049000       ?SizeOf@dgUnhitMtxBangerInstance@@UAEIXZ 0044a000 f i banger:banger.obj
 0001:00049010       ??0dgTreeRenderer@@QAE@XZ  0044a010 f   banger:tree.obj
 0001:00049030       ?AddTree@dgTreeRenderer@@QAEXPAVdgBangerInstance@@H@Z 0044a030 f   banger:tree.obj
 0001:00049060       ?RenderTrees@dgTreeRenderer@@QAEXXZ 0044a060 f   banger:tree.obj
 0001:00049120       ??0dgGlassInstance@@QAE@XZ 0044a120 f   banger:glass.obj
 0001:00049170       ?InitStaticSystems@dgGlassInstance@@SAXXZ 0044a170 f   banger:glass.obj
 0001:000491d0       ?Reset@dgGlassInstance@@UAEXXZ 0044a1d0 f   banger:glass.obj
 0001:00049210       ?Impact@dgGlassInstance@@UAEXPAVlvlInstance@@PAVVector3@@@Z 0044a210 f   banger:glass.obj
 0001:00049460       ?Draw@dgGlassInstance@@UAEXH@Z 0044a460 f   banger:glass.obj
 0001:000494c0       ?DrawGlow@dgGlassInstance@@UAEXXZ 0044a4c0 f   banger:glass.obj
 0001:000494d0       ?SizeOf@dgGlassInstance@@UAEIXZ 0044a4d0 f   banger:glass.obj
 0001:000494e0       ?InstallTextureVariantHandler@@YAXXZ 0044a4e0 f   city:texvar.obj
 0001:000496f0       ??0dgStatePack@@QAE@XZ     0044a6f0 f   city:state.obj
 0001:00049780       ??1dgStatePack@@QAE@XZ     0044a780 f   city:state.obj
 0001:000497b0       ?InitFromArgs@dgStatePack@@QAEXXZ 0044a7b0 f   city:state.obj
 0001:00049af0       ??0cityTimeWeatherLighting@@QAE@XZ 0044aaf0 f   city:citylevel.obj
 0001:00049b80       ?ComputeAmbientLightLevels@cityTimeWeatherLighting@@QAEXXZ 0044ab80 f   city:citylevel.obj
 0001:00049cc0       ?AddWidgets@cityTimeWeatherLighting@@QAEXAAVbkBank@@@Z 0044acc0 f   city:citylevel.obj
 0001:00049f20       ?FileIO@cityTimeWeatherLighting@@QAEXAAVdatParser@@@Z 0044af20 f   city:citylevel.obj
 0001:0004a010       ?LoadCityTimeWeatherLighting@@YAXXZ 0044b010 f   city:citylevel.obj
 0001:0004a240       ?IsInRoomCheckWarps@cityLevel@@IAE_NABVVector3@@H@Z 0044b240 f   city:citylevel.obj
 0001:0004a300       ?SetupLighting@cityLevel@@SAXABVVector3@@@Z 0044b300 f   city:citylevel.obj
 0001:0004a4c0       ??0cityLevel@@QAE@XZ       0044b4c0 f   city:citylevel.obj
 0001:0004a580       ??1cityLevel@@UAE@XZ       0044b580 f   city:citylevel.obj
 0001:0004a5a0       ?GetBound@cityLevel@@UAEPBVlvlLevelBound@@XZ 0044b5a0 f   city:citylevel.obj
 0001:0004a5b0       ?GetEnvMap@cityLevel@@UAEPAVgfxTexture@@HABVVector3@@AAM@Z 0044b5b0 f   city:citylevel.obj
 0001:0004a5e0       ??0dgRoadDecalInstance@@QAE@PBDABVdgPath@@@Z 0044b5e0 f   city:citylevel.obj
 0001:0004a830       ??1dgRoadDecalInstance@@QAE@XZ 0044b830 f   city:citylevel.obj
 0001:0004a890       ?DrawShadow@dgRoadDecalInstance@@UAEXXZ 0044b890 f   city:citylevel.obj
 0001:0004ab60       ?Draw@dgRoadDecalInstance@@UAEXH@Z 0044bb60 f   city:citylevel.obj
 0001:0004ab70       ?GetPosition@dgRoadDecalInstance@@UAEABVVector3@@XZ 0044bb70 f   city:citylevel.obj
 0001:0004ab80       ?SizeOf@dgRoadDecalInstance@@UAEIXZ 0044bb80 f   city:citylevel.obj
 0001:0004ab90       ?GetMatrix@dgRoadDecalInstance@@UAEABVMatrix34@@AAV2@@Z 0044bb90 f   city:citylevel.obj
 0001:0004abb0       ?SetMatrix@dgRoadDecalInstance@@UAEXABVMatrix34@@@Z 0044bbb0 f   city:citylevel.obj
 0001:0004abd0       ?SetObjectDetail@cityLevel@@UAEXH@Z 0044bbd0 f   city:citylevel.obj
 0001:0004acb0       ?Load@cityLevel@@UAEXPBD@Z 0044bcb0 f   city:citylevel.obj
 0001:0004c200       ?GetWaterLevel@cityLevel@@UBEMH@Z 0044d200 f   city:citylevel.obj
 0001:0004c210       ?GetLightingIntensity@cityLevel@@UBEMABVVector3@@@Z 0044d210 f   city:citylevel.obj
 0001:0004c220       ?SetPtxHeight@cityLevel@@UAEXAAVasParticles@@@Z 0044d220 f   city:citylevel.obj
 0001:0004c230       ?Update@cityLevel@@UAEXXZ  0044d230 f   city:citylevel.obj
 0001:0004c260       ?PreDraw@cityLevel@@UAEXXZ 0044d260 f   city:citylevel.obj
 0001:0004c310       ?PostDraw@cityLevel@@UAEXXZ 0044d310 f   city:citylevel.obj
 0001:0004c320       ?GetBoundSphere@cityLevel@@UAE_NAAVVector4@@H@Z 0044d320 f   city:citylevel.obj
 0001:0004c350       ?DecompressPvs@cityLevel@@IAEXH@Z 0044d350 f   city:citylevel.obj
 0001:0004c440       ?Draw@cityLevel@@UAEXABVgfxViewport@@I@Z 0044d440 f   city:citylevel.obj
 0001:0004ca00       ?SetupPerRoomLighting@cityLevel@@IAEXH@Z 0044da00 f   city:citylevel.obj
 0001:0004caa0       ?DrawRooms@cityLevel@@IAEXABVgfxViewport@@IPBUcityRoomRec@@H@Z 0044daa0 f   city:citylevel.obj
 0001:0004dbf0       ?InitFullProbe@cityLevel@@IAEXHH@Z 0044ebf0 f   city:citylevel.obj
 0001:0004e2d0       ?FullProbe@cityLevel@@IAEHABVVector3@@@Z 0044f2d0 f   city:citylevel.obj
 0001:0004e450       ?FindRoomId@cityLevel@@UAEHABVVector3@@H@Z 0044f450 f   city:citylevel.obj
 0001:0004e6e0       ?GetNeighborCount@cityLevel@@UAEHH@Z 0044f6e0 f   city:citylevel.obj
 0001:0004e720       ?GetNeighbors@cityLevel@@UAEHPAHH@Z 0044f720 f   city:citylevel.obj
 0001:0004e810       ?GetTouchedNeighbors@cityLevel@@UAEHPAHHHABVVector4@@@Z 0044f810 f   city:citylevel.obj
 0001:0004e890       ?GetTouchedNeighborsR@cityLevel@@QAEHPAHHHABVVector4@@H@Z 0044f890 f   city:citylevel.obj
 0001:0004eb20       ?GetRoomPerimeter@cityLevel@@UAEHHQAVVector3@@H@Z 0044fb20 f   city:citylevel.obj
 0001:0004eb90       ?GetLastStartRoom@cityLevel@@QAEHXZ 0044fb90 f   city:citylevel.obj
 0001:0004eba0       ?Collide@cityLevel@@UAE_NHAAVlvlSegment@@PAVlvlIntersection@@@Z 0044fba0 f   city:citylevel.obj
 0001:0004ebb0       ?GetVisitList@cityLevel@@UAEHPAHHABVVector3@@1HH@Z 0044fbb0 f   city:citylevel.obj
 0001:0004ee30       ?EnableSky@cityLevel@@QAEX_N@Z 0044fe30 f   city:citylevel.obj
 0001:0004ee40       ?EnablePVS@cityLevel@@QAEX_N@Z 0044fe40 f   city:citylevel.obj
 0001:0004ee60       ?Stats@cityLevel@@UAEXXZ   0044fe60 f   city:citylevel.obj
 0001:0004f2d0       ?AddWidgets@cityLevel@@UAEXAAVbkBank@@@Z 004502d0 f   city:citylevel.obj
 0001:0004fc10       ??_GcityLevel@@UAEPAXI@Z   00450c10 f i city:citylevel.obj
 0001:0004fc10       ??_EcityLevel@@UAEPAXI@Z   00450c10 f i city:citylevel.obj
 0001:0004fc40       ?ClampToWorld@lvlLevel@@UAE_NAAVVector3@@@Z 00450c40 f i city:citylevel.obj
 0001:0004fc50       ?InitNoArea@sdlPoly@@IAE_NHHHHH@Z 00450c50 f   city:psdl.obj
 0001:0004fdc0       ?SetQuad@sdlPoly@@QAE_NHHMHMHMHM@Z 00450dc0 f   city:psdl.obj
 0001:000500d0       ?SetFlatQuad@sdlPoly@@QAE_NHHHHHM@Z 004510d0 f   city:psdl.obj
 0001:00050390       ?SetQuad@sdlPoly@@QAE_NHABVVector3@@000@Z 00451390 f   city:psdl.obj
 0001:000505e0       ?SetTri@sdlPoly@@QAE_NHABVVector3@@00@Z 004515e0 f   city:psdl.obj
 0001:000507a0       ?SetFlatTri@sdlPoly@@QAE_NHHHHM@Z 004517a0 f   city:psdl.obj
 0001:000509c0       ?SetWall@sdlPoly@@QAE_NHHHMM@Z 004519c0 f   city:psdl.obj
 0001:00050b10       ?SetWall@sdlPoly@@QAE_NHABVVector3@@0MM@Z 00451b10 f   city:psdl.obj
 0001:00050d50       ?InitFromPoly@sdlPolyCached@@QAEXPBVsdlPoly@@@Z 00451d50 f   city:psdl.obj
 0001:00050ee0       ??0sdlCommon@@QAE@XZ       00451ee0 f   city:psdl.obj
 0001:00050f40       ?UpdateLighting@sdlCommon@@SAXXZ 00451f40 f   city:psdl.obj
 0001:000511f0       ?DebugLighting@sdlCommon@@SAXHABVVector3@@0MM@Z 004521f0 f   city:psdl.obj
 0001:000512f0       ??1sdlCommon@@QAE@XZ       004522f0 f   city:psdl.obj
 0001:00051310       ?CollideEdgePoint@sdlCommon@@UBEHAAVlvlSegment@@PAVlvlIntersectionPoint@@H@Z 00452310 f   city:psdl.obj
 0001:00051320       ?CollideProbePoint@sdlCommon@@UBE_NAAVlvlSegment@@PAVlvlIntersectionPoint@@M@Z 00452320 f   city:psdl.obj
 0001:00051330       ?CollideAIPoint@sdlCommon@@UBE_NAAVlvlSegment@@PAVlvlIntersectionPoint@@@Z 00452330 f   city:psdl.obj
 0001:00051340       ?AllocateState@sdlCommon@@UBEPADXZ 00452340 f   city:psdl.obj
 0001:00051360       ?Draw@sdlPage16@@QBEXHI@Z  00452360 f   city:psdl.obj
 0001:00059810       ?GetDrawnSDLPrims@sdlPage16@@QBEHHPAHH@Z 0045a810 f   city:psdl.obj
 0001:00060600       ?Collect@sdlPage16@@QBEHPBVVector4@@PAVsdlPoly@@HAAH@Z 00461600 f   city:psdl.obj
 0001:00065640       ??0sdlPage16@@QAE@HH@Z     00466640 f   city:psdl.obj
 0001:00065690       ??0lvlSDL@@QAE@XZ          00466690 f   city:psdl.obj
 0001:000656b0       ??1lvlSDL@@QAE@XZ          004666b0 f   city:psdl.obj
 0001:000656c0       ?ArcMap@sdlPage16@@QBEXPAMPBGHHH@Z 004666c0 f   city:psdl.obj
 0001:000658c0       ?WallMap@sdlPage16@@QBEXPAMPBGMHH@Z 004668c0 f   city:psdl.obj
 0001:00065a60       ?PointInPerimeter@sdlPage16@@QBE_NMM@Z 00466a60 f   city:psdl.obj
 0001:00065b80       ?GetCentroid@sdlPage16@@QBEXAAVVector3@@@Z 00466b80 f   city:psdl.obj
 0001:00065cd0       ?FindBoundingIsoParams@sdlPage16@@SAXPBVVector4@@PBVVector3@@PBGHHAAH3@Z 00466cd0 f   city:psdl.obj
 0001:00065f80       ?ComputeBoundSphere@sdlPage16@@QBEXAAVVector4@@@Z 00466f80 f   city:psdl.obj
 0001:00066030       ?CollideSegment@sdlPage16@@QBE_NPBVVector4@@AAVlvlSegment@@AAVlvlIntersection@@MM@Z 00467030 f   city:psdl.obj
 0001:00066200       ?CollidePolyToLevel@lvlSDL@@UBEHPBVphBoundPolygonal@@PAHHPAVphColliderBase@@PBVMatrix34@@3PAVlvlIntersection@@H1_N@Z 00467200 f   city:psdl.obj
 0001:00066de0       ?CollideEdge@lvlSDL@@UBEHAAVlvlSegment@@PAVlvlIntersection@@HPAHH@Z 00467de0 f   city:psdl.obj
 0001:00066e00       ?CollideProbe@lvlSDL@@UBE_NAAVlvlSegment@@PAVlvlIntersection@@M@Z 00467e00 f   city:psdl.obj
 0001:00067110       ?CollideAI@lvlSDL@@UBE_NAAVlvlSegment@@PAVlvlIntersection@@PAHH@Z 00468110 f   city:psdl.obj
 0001:00067130       ?Enumerate@lvlSDL@@QBEXHP6AXABV1@HHHPBGPAX@Z2@Z 00468130 f   city:psdl.obj
 0001:00067270       ?LoadBinary@sdlPage16@@SAPAV1@PAVStream@@@Z 00468270 f   city:psdl.obj
 0001:00067320       ?LoadBinary@lvlSDL@@QAE_NPBD@Z 00468320 f   city:psdl.obj
 0001:00067870       ?IsoLerp@lvlSDL@@CA_NAAVVector3@@AAHPBV2@HPBGHM_N4@Z 00468870 f   city:psdl.obj
 0001:00067990       ?Propulate@lvlSDL@@SAXABV1@HHHPBGPAX@Z 00468990 f   city:psdl.obj
 0001:00067ea0       ?GetVertex@lvlSDL@@UBEABVVector3@@H@Z 00468ea0 f   city:psdl.obj
 0001:00067ec0       _sqrtf                     00468ec0 f i city:psdl.obj
 0001:00067ed0       ?BACKFACE@sdlCommon@@SA_NABVVector3@@0@Z 00468ed0 f i city:psdl.obj
 0001:00067f20       ?Max@@YAMMM@Z              00468f20 f i city:psdl.obj
 0001:00067f40       ?Lerp@@YAMMMM@Z            00468f40 f i city:psdl.obj
 0001:00067f60       ??0Vector2@@QAE@XZ         00468f60 f i city:psdl.obj
 0001:00067f70       ?Mag@Vector2@@QBEMXZ       00468f70 f i city:psdl.obj
 0001:00067f90       ?Mag2@Vector2@@QBEMXZ      00468f90 f i city:psdl.obj
 0001:00067fb0       ?Set@Vector3@@QAEXMMM@Z    00468fb0 f i city:psdl.obj
 0001:00067fd0       ?Subtract@Vector3@@QAEXABV1@@Z 00468fd0 f i city:psdl.obj
 0001:00068000       ?Subtract@Vector3@@QAEXABV1@0@Z 00469000 f i city:psdl.obj
 0001:00068030       ?Normalize@Vector3@@QAEXXZ 00469030 f i city:psdl.obj
 0001:00068090       ?InvMag@Vector3@@QBEMXZ    00469090 f i city:psdl.obj
 0001:000680d0       ??HVector3@@QBE?AV0@ABV0@@Z 004690d0 f i city:psdl.obj
 0001:00068110       ?Cross@Vector3@@QAEXABV1@@Z 00469110 f i city:psdl.obj
 0001:00068150       ?Dist@Vector3@@QBEMABV1@@Z 00469150 f i city:psdl.obj
 0001:00068190       ?FlatDist@Vector3@@QBEMABV1@@Z 00469190 f i city:psdl.obj
 0001:000681c0       ?GetNumMaterials@phBound@@UBEHXZ 004691c0 f i city:psdl.obj
 0001:000681d0       ?SetFriction@phBound@@UAEXM@Z 004691d0 f i city:psdl.obj
 0001:000681e0       ?SetElasticity@phBound@@UAEXM@Z 004691e0 f i city:psdl.obj
 0001:000681f0       ?SetFriction@phBound@@UAEMXZ 004691f0 f i city:psdl.obj
 0001:00068200       ?SetElasticity@phBound@@UAEMXZ 00469200 f i city:psdl.obj
 0001:00068210       ?ModifyInvMassMatrix@phBound@@UBEXPAVMatrix34@@HABVVector3@@@Z 00469210 f i city:psdl.obj
 0001:00068220       ?ModifyInvMassMatrix@phBound@@UBEXPAVMatrix34@@HABVVector3@@1@Z 00469220 f i city:psdl.obj
 0001:00068230       ?EffectiveMass@phBound@@UBEMABVVector3@@0HM@Z 00469230 f i city:psdl.obj
 0001:00068240       ?DrawPhysics@lvlLevelBound@@UBEXABVVector3@@@Z 00469240 f i city:psdl.obj
 0001:00068250       ?FindImpactsSphereOneRoom@lvlLevelBound@@EBEHHPBVphBoundSphere@@ABVVector3@@PAVphColliderBase@@2PAVphImpactBase@@H@Z 00469250 f i city:psdl.obj
 0001:00068260       ?FindImpactsHotdogOneRoom@lvlLevelBound@@EBEHHQBVVector3@@PBVphBoundHotdog@@PBVMatrix34@@2PAVphColliderBase@@3PAVphImpactBase@@HABV2@@Z 00469260 f i city:psdl.obj
 0001:00068270       ?vglTexCoord2f@@YAXMM@Z    00469270 f i city:psdl.obj
 0001:00068290       ?vglVertex3f@@YAXMMM@Z     00469290 f i city:psdl.obj
 0001:00068320       ?vglVertex3f@@YAXVVector3@@@Z 00469320 f i city:psdl.obj
 0001:000683b0       ?GetPerimeterCount@sdlPage16@@QBEHXZ 004693b0 f i city:psdl.obj
 0001:000683c0       ?GetPerimeterVertexIndex@sdlPage16@@QBEHH@Z 004693c0 f i city:psdl.obj
 0001:000683e0       ?GetCodedVertex@sdlPage16@@QBEABVVector3@@H@Z 004693e0 f i city:psdl.obj
 0001:00068400       ?GetFloat@sdlPage16@@QBEMH@Z 00469400 f i city:psdl.obj
 0001:00068410       ?GetTexture@sdlPage16@@QBEPAVgfxTexture@@H@Z 00469410 f i city:psdl.obj
 0001:00068420       ?GetColor@gfxTexture@@QBEIXZ 00469420 f i city:psdl.obj
 0001:00068430       ?SphereApprox2@@YA_NABVVector3@@M00@Z 00469430 f i city:psdl.obj
 0001:00068490       ?GetMaterialIndex@sdlPage16@@QBEHH@Z 00469490 f i city:psdl.obj
 0001:000684b0       ?IsZero@Vector3@@QBE_NXZ   004694b0 f i city:psdl.obj
 0001:00068560       ??0cityPropulator@@QAE@ABVlvlSDL@@@Z 00469560 f   city:propulate.obj
 0001:000685b0       ?Load@cityPropulator@@QAE_NPBD00@Z 004695b0 f   city:propulate.obj
 0001:00068600       ??1cityPropulator@@QAE@XZ  00469600 f   city:propulate.obj
 0001:00068620       ?LookupRule@cityPropulator@@QAEHPBD@Z 00469620 f   city:propulate.obj
 0001:00068650       ?Propulate@cityPropulator@@QAEXHHHP6AXHPBDABVMatrix34@@@Z@Z 00469650 f   city:propulate.obj
 0001:000688b0       ?Init@lvlAiMap@@SAXH@Z     004698b0 f   city:ai.obj
 0001:00068920       ?LoadCurrent@lvlAiMap@@SAXABVlvlSDL@@HHHPBGPAX@Z 00469920 f   city:ai.obj
 0001:00068a90       ?SetRoad@lvlAiMap@@SAXABVlvlSDL@@H_N@Z 00469a90 f   city:ai.obj
 0001:00068ab0       ?SetRoad@lvlAiMap@@SAXPBVlvlSDL@@H_N@Z 00469ab0 f   city:ai.obj
 0001:00068bd0       ?GetRoad@lvlAiMap@@SAPAVlvlAiRoad@@H@Z 00469bd0 f   city:ai.obj
 0001:00068bf0       ?GetNumRoads@lvlAiMap@@SAIXZ 00469bf0 f   city:ai.obj
 0001:00068c00       ?Draw@lvlAiMap@@SAXABVlvlSDL@@@Z 00469c00 f   city:ai.obj
 0001:00068e10       ?SaveBinary@lvlAiRoad@@QAEXPAVStream@@@Z 00469e10 f   city:ai.obj
 0001:00068e90       ?SaveBinary@lvlAiMap@@SAXPAVStream@@@Z 00469e90 f   city:ai.obj
 0001:00068ee0       ?LoadBinary@lvlAiRoad@@QAEXPAVStream@@@Z 00469ee0 f   city:ai.obj
 0001:00068fb0       ?LoadBinary@lvlAiMap@@SAXPAVStream@@@Z 00469fb0 f   city:ai.obj
 0001:00069060       ?Delete@lvlAiMap@@SAXXZ    0046a060 f   city:ai.obj
 0001:000690a0       ?GetRoom@lvlAiMap@@SAHH@Z  0046a0a0 f   city:ai.obj
 0001:000690c0       ?GetRoomChop@lvlAiMap@@SA_NH@Z 0046a0c0 f   city:ai.obj
 0001:000690f0       ?GetNumRooms@lvlAiMap@@SAHXZ 0046a0f0 f   city:ai.obj
 0001:00069100       ?GetNumVertexs@lvlAiMap@@SAHXZ 0046a100 f   city:ai.obj
 0001:00069110       ?GetNumLanes@lvlAiMap@@SAHH@Z 0046a110 f   city:ai.obj
 0001:00069140       ?GetNumCablecarLanes@lvlAiMap@@SAHH@Z 0046a140 f   city:ai.obj
 0001:00069150       ?GetNumSubwayLanes@lvlAiMap@@SAHH@Z 0046a150 f   city:ai.obj
 0001:00069180       ?GetNumSidewalks@lvlAiMap@@SAHH@Z 0046a180 f   city:ai.obj
 0001:00069190       ?GetNormal@lvlAiMap@@SA?AVVector3@@H@Z 0046a190 f   city:ai.obj
 0001:000692d0       ?GetSidewalkVertex@lvlAiMap@@SA?AVVector3@@HHH@Z 0046a2d0 f   city:ai.obj
 0001:00069600       ?GetSidewalkVertexMulti@lvlAiMap@@SA?AVVector3@@HHH@Z 0046a600 f   city:ai.obj
 0001:000697d0       ?GetSidewalkVertexSingle@lvlAiMap@@SA?AVVector3@@HHH@Z 0046a7d0 f   city:ai.obj
 0001:00069900       ?GetCablecarVertex@lvlAiMap@@SA?AVVector3@@HHH@Z 0046a900 f   city:ai.obj
 0001:00069940       ?GetSubwayVertex@lvlAiMap@@SA?AVVector3@@HHH@Z 0046a940 f   city:ai.obj
 0001:00069980       ?GetVertex@lvlAiMap@@SA?AVVector3@@HHH@Z 0046a980 f   city:ai.obj
 0001:00069c90       ?GetVertexMulti@lvlAiMap@@SA?AVVector3@@HHH@Z 0046ac90 f   city:ai.obj
 0001:00069db0       ?GetVertexSingle@lvlAiMap@@SA?AVVector3@@HHH@Z 0046adb0 f   city:ai.obj
 0001:00069e90       ?GetVertexSingleCenter@lvlAiMap@@SA?AVVector3@@HHH@Z 0046ae90 f   city:ai.obj
 0001:00069f60       ?IsBlocked@lvlAiMap@@SAHH@Z 0046af60 f   city:ai.obj
 0001:00069f70       ?IsPedBlocked@lvlAiMap@@SAHH@Z 0046af70 f   city:ai.obj
 0001:00069f80       ?IsDivided@lvlAiMap@@SAHXZ 0046af80 f   city:ai.obj
 0001:00069f90       ?IsAlley@lvlAiMap@@SAHXZ   0046af90 f   city:ai.obj
 0001:00069fa0       ?IsFreeway@lvlAiMap@@SAHXZ 0046afa0 f   city:ai.obj
 0001:00069fb0       ?GetRoadIntersection@lvlAiMap@@SAHH@Z 0046afb0 f   city:ai.obj
 0001:00069fd0       ?GetIntersectionType@lvlAiMap@@SAHH@Z 0046afd0 f   city:ai.obj
 0001:0006a020       ?GetStopLightPos@lvlAiMap@@SAXHAAVVector3@@0_N@Z 0046b020 f   city:ai.obj
 0001:0006a320       ?GetStopLightName@lvlAiMap@@SAPADH@Z 0046b320 f   city:ai.obj
 0001:0006a360       ?GetStopLightType@lvlAiMap@@SAHH@Z 0046b360 f   city:ai.obj
 0001:0006a380       ?draw_textured_tri@@YAXPAVgfxTexture@@ABVMatrix34@@MMM@Z 0046b380 f   effects:shard.obj
 0001:0006a450       ??0fxShard@@QAE@XZ         0046b450 f   effects:shard.obj
 0001:0006a4d0       ??1fxShard@@QAE@XZ         0046b4d0 f   effects:shard.obj
 0001:0006a4e0       ?AddShard@fxShard@@QAEXVVector3@@00M@Z 0046b4e0 f   effects:shard.obj
 0001:0006a550       ?Update@fxShard@@QAEXXZ    0046b550 f   effects:shard.obj
 0001:0006a5e0       ?Draw@fxShard@@QAEXPAVmodShader@@@Z 0046b5e0 f   effects:shard.obj
 0001:0006a620       ??0fxShardManager@@QAE@XZ  0046b620 f   effects:shard.obj
 0001:0006a6e0       ??1fxShardManager@@UAE@XZ  0046b6e0 f   effects:shard.obj
 0001:0006a760       ?GetInstance@fxShardManager@@SAPAV1@H@Z 0046b760 f   effects:shard.obj
 0001:0006a780       ?Init@fxShardManager@@QAEXHPAVmodShader@@H@Z 0046b780 f   effects:shard.obj
 0001:0006a830       ?SetShader@fxShardManager@@QAEXPAVmodShader@@H@Z 0046b830 f   effects:shard.obj
 0001:0006a850       ?EmitShards@fxShardManager@@QAEXVVector3@@MMABVMatrix34@@@Z 0046b850 f   effects:shard.obj
 0001:0006a8d0       ?EmitAllShards@fxShardManager@@QAEXVVector3@@MABVMatrix34@@@Z 0046b8d0 f   effects:shard.obj
 0001:0006a920       ?EmitShard@fxShardManager@@QAEXVVector3@@MABVMatrix34@@@Z 0046b920 f   effects:shard.obj
 0001:0006aac0       ?Update@fxShardManager@@UAEXXZ 0046bac0 f   effects:shard.obj
 0001:0006aaf0       ?Draw@fxShardManager@@QAEXXZ 0046baf0 f   effects:shard.obj
 0001:0006abb0       ?AddWidgets@fxShardManager@@QAEXPAVbkBank@@@Z 0046bbb0 f   effects:shard.obj
 0001:0006ad60       ??_GfxShardManager@@UAEPAXI@Z 0046bd60 f i effects:shard.obj
 0001:0006ad60       ??_EfxShardManager@@UAEPAXI@Z 0046bd60 f i effects:shard.obj
 0001:0006ad90       ??_EfxShard@@QAEPAXI@Z     0046bd90 f i effects:shard.obj
 0001:0006ae40       ?Get@asSparkLut@@SAPAV1@PAD@Z 0046be40 f   effects:linespark.obj
 0001:0006ae80       ?Init@asSparkLut@@QAEXPAD@Z 0046be80 f   effects:linespark.obj
 0001:0006b060       ??0asLineSparks@@QAE@XZ    0046c060 f   effects:linespark.obj
 0001:0006b080       ??1asLineSparks@@UAE@XZ    0046c080 f   effects:linespark.obj
 0001:0006b130       ?Init@asLineSparks@@QAEXHPAD@Z 0046c130 f   effects:linespark.obj
 0001:0006b280       ?AddWidgets@asLineSparks@@QAEXAAVbkBank@@@Z 0046c280 f   effects:linespark.obj
 0001:0006b520       ?RadialBlast@asLineSparks@@QAEXHAAVVector3@@0@Z 0046c520 f   effects:linespark.obj
 0001:0006b8c0       ?Update@asLineSparks@@QAEXXZ 0046c8c0 f   effects:linespark.obj
 0001:0006b900       ?Update@asLineSparks@@QAEXM@Z 0046c900 f   effects:linespark.obj
 0001:0006bac0       ?Draw@asLineSparks@@QAEXXZ 0046cac0 f   effects:linespark.obj
 0001:0006bb60       ??_GasLineSparks@@UAEPAXI@Z 0046cb60 f i effects:linespark.obj
 0001:0006bb60       ??_EasLineSparks@@UAEPAXI@Z 0046cb60 f i effects:linespark.obj
 0001:0006bb90       ??1asCullable@@UAE@XZ      0046cb90 f i effects:linespark.obj
 0001:0006bba0       ??0asBirthRule@@QAE@XZ     0046cba0 f   effects:birth.obj
 0001:0006bca0       ?GetDirName@asBirthRule@@UAEPBDXZ 0046cca0 f   effects:birth.obj
 0001:0006bcb0       ?InitSpark@asBirthRule@@QAEXPAUasSparkInfo@@AAVasParticles@@H@Z 0046ccb0 f   effects:birth.obj
 0001:0006bf90       ?Copy@asBirthRule@@QAEXPAV1@@Z 0046cf90 f   effects:birth.obj
 0001:0006c100       ?AddWidgets@asBirthRule@@UAEXAAVbkBank@@@Z 0046d100 f   effects:birth.obj
 0001:0006c990       ?Indent@asBirthRule@@QAEXPAVdatBaseTokenizer@@H@Z 0046d990 f   effects:birth.obj
 0001:0006c9c0       ?Save@asBirthRule@@QAEXPAVdatBaseTokenizer@@H@Z 0046d9c0 f   effects:birth.obj
 0001:0006cea0       ?Load@asBirthRule@@QAEXPAVdatBaseTokenizer@@@Z 0046dea0 f   effects:birth.obj
 0001:0006d080       ?FileIO@asBirthRule@@UAEXAAVdatParser@@@Z 0046e080 f   effects:birth.obj
 0001:0006d340       ??_EasBirthRule@@UAEPAXI@Z 0046e340 f i effects:birth.obj
 0001:0006d340       ??_GasBirthRule@@UAEPAXI@Z 0046e340 f i effects:birth.obj
 0001:0006d370       ??1asBirthRule@@UAE@XZ     0046e370 f i effects:birth.obj
 0001:0006d380       ?AddValue@datParser@@QAEXPBDPAHPAVdatCallback@@@Z 0046e380 f i effects:birth.obj
 0001:0006d3a0       ?GetClassName@asBirthRule@@UAEPADXZ 0046e3a0 f i effects:birth.obj
 0001:0006d3b0       ??0asParticles@@QAE@XZ     0046e3b0 f   effects:ptx.obj
 0001:0006d430       ??1asParticles@@UAE@XZ     0046e430 f   effects:ptx.obj
 0001:0006d4c0       ?Init@asParticles@@QAEXHHHHPAUasMeshCardVertex@@@Z 0046e4c0 f   effects:ptx.obj
 0001:0006d570       ?Reset@asParticles@@QAEXXZ 0046e570 f   effects:ptx.obj
 0001:0006d580       ?SetTexture@asParticles@@QAEXPAVgfxTexture@@@Z 0046e580 f   effects:ptx.obj
 0001:0006d5c0       ?SetTexture@asParticles@@QAEXPBD@Z 0046e5c0 f   effects:ptx.obj
 0001:0006d620       ?Update@asParticles@@QAEXXZ 0046e620 f   effects:ptx.obj
 0001:0006d9c0       ?Blast@asParticles@@QAEXHPAVasBirthRule@@@Z 0046e9c0 f   effects:ptx.obj
 0001:0006dab0       ?cmpPtx@@YAHPBX0@Z         0046eab0 f   effects:ptx.obj
 0001:0006dad0       ?Cull@asParticles@@UAEXXZ  0046ead0 f   effects:ptx.obj
 0001:0006db40       ?Init@asMeshCardInfo@@QAEXHPAUasMeshCardVertex@@HHH@Z 0046eb40 f   effects:ptx.obj
 0001:0006dd10       ?Draw@asMeshCardInfo@@QAEXPBUasSparkPos@@H@Z 0046ed10 f   effects:ptx.obj
 0001:0006de50       ?DrawShadows@asMeshCardInfo@@QAEXPBUasSparkPos@@H@Z 0046ee50 f   effects:ptx.obj
 0001:0006dfb0       ?AddWidgets@asParticles@@QAEXAAVbkBank@@@Z 0046efb0 f   effects:ptx.obj
 0001:0006e0f0       ??_EasParticles@@UAEPAXI@Z 0046f0f0 f i effects:ptx.obj
 0001:0006e0f0       ??_GasParticles@@UAEPAXI@Z 0046f0f0 f i effects:ptx.obj
 0001:0006e120       ?Init@ptxGlass@@QAEXHHPAVgfxTexture@@@Z 0046f120 f   effects:glassptx.obj
 0001:0006e220       ?AddShards@ptxGlass@@QAEXABVVector3@@00ABVVector2@@11000@Z 0046f220 f   effects:glassptx.obj
 0001:0006e6e0       ?CreateShards@ptxGlass@@QAEXMMQAVVector2@@AAVMatrix34@@ABVVector3@@2@Z 0046f6e0 f   effects:glassptx.obj
 0001:0006ef40       ?Update@ptxGlass@@QAEXM@Z  0046ff40 f   effects:glassptx.obj
 0001:0006f330       ?DrawShards@ptxGlass@@QAEXH@Z 00470330 f   effects:glassptx.obj
 0001:0006f550       ?SetCentroidFromVerts@ptxShard@ptxGlass@@QAEXXZ 00470550 f   effects:glassptx.obj
 0001:0006f5f0       ?AddWidgets@ptxGlassBirthRules@@UAEXAAVbkBank@@@Z 004705f0 f   effects:glassptx.obj
 0001:0006f770       ?FileIO@ptxGlassBirthRules@@UAEXAAVdatParser@@@Z 00470770 f   effects:glassptx.obj
 0001:0006f810       ?BeginTask@lvlProgress@@SAXPBD@Z 00470810 f   level:progress.obj
 0001:0006f860       ?UpdateTask@lvlProgress@@SAXM_N@Z 00470860 f   level:progress.obj
 0001:0006f8e0       ?PushSubTask@lvlProgress@@SAXMPAD@Z 004708e0 f   level:progress.obj
 0001:0006f920       ?PushSubTask@lvlProgress@@SAXMMPAD@Z 00470920 f   level:progress.obj
 0001:0006f9d0       ?PopSubTask@lvlProgress@@SAMXZ 004709d0 f   level:progress.obj
 0001:0006fa10       ?GetPercent@lvlProgress@@SAMXZ 00470a10 f   level:progress.obj
 0001:0006fa40       ?EndTask@lvlProgress@@SAXXZ 00470a40 f   level:progress.obj
 0001:0006fa60       ?SetCallback@lvlProgress@@SAXP6AXPBDH@Z@Z 00470a60 f   level:progress.obj
 0001:0006fa70       ??0lvlMaterial@@QAE@XZ     00470a70 f   level:material.obj
 0001:0006fac0       ?Load@lvlMaterial@@QAEXAAVdatAsciiTokenizer@@@Z 00470ac0 f   level:material.obj
 0001:0006fca0       ?Save@lvlMaterial@@UAEXAAVdatAsciiTokenizer@@@Z 00470ca0 f   level:material.obj
 0001:0006fe90       ?Copy@lvlMaterial@@QAEXABV1@@Z 00470e90 f   level:material.obj
 0001:0006fee0       ?AddWidgets@lvlMaterial@@QAEXAAVbkBank@@@Z 00470ee0 f   level:material.obj
 0001:000701d0       ?CreateInstance@lvlMaterialMgr@@SAAAV1@XZ 004711d0 f   level:material.obj
 0001:00070230       ??0lvlMaterialMgr@@IAE@XZ  00471230 f   level:material.obj
 0001:000702a0       ?DeleteInstance@lvlMaterialMgr@@SAXXZ 004712a0 f   level:material.obj
 0001:000702d0       ?Find@lvlMaterialMgr@@QAEPAVlvlMaterial@@PBD@Z 004712d0 f   level:material.obj
 0001:000702e0       ?Lookup@lvlMaterialMgr@@QAEPAVlvlMaterial@@H@Z 004712e0 f   level:material.obj
 0001:000702f0       ?Load@lvlMaterialMgr@@UAEPAVphMaterial@@PAVdatAsciiTokenizer@@@Z 004712f0 f   level:material.obj
 0001:00070400       ?AddWidgets@lvlMaterialMgr@@QAEXAAVbkBank@@@Z 00471400 f   level:material.obj
 0001:00070470       ??0lvlLevel@@QAE@XZ        00471470 f   level:level.obj
 0001:000704e0       ??1lvlLevel@@UAE@XZ        004714e0 f   level:level.obj
 0001:00070540       ?Update@lvlLevel@@UAEXXZ   00471540 f   level:level.obj
 0001:00070550       ?SetObjectDetail@lvlLevel@@UAEXH@Z 00471550 f   level:level.obj
 0001:00070560       ?MoveToRoom@lvlLevel@@QAEXPAVlvlInstance@@H@Z 00471560 f   level:level.obj
 0001:000706c0       ?Collide@lvlLevel@@UAE_NHAAVlvlSegment@@PAVlvlIntersection@@@Z 004716c0 f   level:level.obj
 0001:000706d0       ?GetBoundSphere@lvlLevel@@UAE_NAAVVector4@@H@Z 004716d0 f   level:level.obj
 0001:000706e0       ?GetVisitList@lvlLevel@@UAEHPAHHABVVector3@@1HH@Z 004716e0 f   level:level.obj
 0001:000706f0       ?RegisterDrawable@lvlLevel@@QAEXHVdatCallback@@@Z 004716f0 f   level:level.obj
 0001:00070780       ?CallCallbacks@lvlLevel@@IAEXH@Z 00471780 f   level:level.obj
 0001:000707d0       ?ResetCallbacks@lvlLevel@@QAEXXZ 004717d0 f   level:level.obj
 0001:000707e0       ?GetEnvMap@lvlLevel@@UAEPAVgfxTexture@@HABVVector3@@AAM@Z 004717e0 f   level:level.obj
 0001:000707f0       ?LabelInstances@lvlLevel@@QAEXH@Z 004717f0 f   level:level.obj
 0001:00070870       ?AddLabels@lvlLevel@@UAEXAAVbkBank@@@Z 00471870 f   level:level.obj
 0001:00070960       ??_GlvlLevel@@UAEPAXI@Z    00471960 f i level:level.obj
 0001:00070960       ??_ElvlLevel@@UAEPAXI@Z    00471960 f i level:level.obj
 0001:00070a60       ?GetLightInfo@lvlInstance@@UAEXHPAVcltLight@@@Z 00471a60 f   level:inst.obj
 0001:00070ac0       ??2lvlInstance@@SAPAXI@Z   00471ac0 f   level:inst.obj
 0001:00070b50       ??3lvlInstance@@SAXPAX@Z   00471b50 f   level:inst.obj
 0001:00070b60       ?IsLandmark@lvlInstance@@UAE_NXZ 00471b60 f   level:inst.obj
 0001:00070b70       ?Init@@YAHPBDABVMatrix34@@@Z 00471b70 f   level:inst.obj
 0001:00070b80       ?ResetInstanceHeap@lvlInstance@@SAXXZ 00471b80 f   level:inst.obj
 0001:00070bc0       ?ResetAll@lvlInstance@@SAXXZ 00471bc0 f   level:inst.obj
 0001:00070bd0       ??0lvlInstance@@QAE@XZ     00471bd0 f   level:inst.obj
 0001:00070c00       ??1lvlInstance@@QAE@XZ     00471c00 f   level:inst.obj
 0001:00070c60       ?Reset@lvlInstance@@UAEXXZ 00471c60 f   level:inst.obj
 0001:00070c70       ?SetShadowBillboardMtx@lvlInstance@@SAXAAVMatrix44@@@Z 00471c70 f   level:inst.obj
 0001:00070c90       ?GetNumLightSources@lvlInstance@@UAEHXZ 00471c90 f   level:inst.obj
 0001:00070ca0       ?GetGeomSet@lvlInstance@@KAHPBD0H@Z 00471ca0 f   level:inst.obj
 0001:00071390       ?LoadBoundOnLastEntry@lvlInstance@@QAE_NPBD@Z 00472390 f   level:inst.obj
 0001:00071490       ?GetBoundSphere@lvlInstance@@QAEAAVVector4@@AAV2@@Z 00472490 f   level:inst.obj
 0001:000714d0       ?BeginGeom@lvlInstance@@QAE_NPBD0H@Z 004724d0 f   level:inst.obj
 0001:00071610       ?AddGeom@lvlInstance@@QAEHPBD0H@Z 00472610 f   level:inst.obj
 0001:00071650       ?EndGeom@lvlInstance@@QAEXXZ 00472650 f   level:inst.obj
 0001:00071840       ?AddSphere@lvlInstance@@SAHM@Z 00472840 f   level:inst.obj
 0001:00071880       ?Init@lvlInstance@@UAEHPBDABVMatrix34@@H@Z 00472880 f   level:inst.obj
 0001:00071890       ?InitBoundTerrain@lvlInstance@@QAE_NPBD@Z 00472890 f   level:inst.obj
 0001:00071a50       ?InitBoundTerrainLocal@lvlInstance@@QAE_NPBD@Z 00472a50 f   level:inst.obj
 0001:00071cc0       ?NeedGhostBound@lvlInstance@@QAE_NPBVVector3@@H@Z 00472cc0 f   level:inst.obj
 0001:00071d40       ?InitGhostBound@lvlInstance@@QAE_NPAVphBound@@PBVVector3@@H@Z 00472d40 f   level:inst.obj
 0001:00071ea0       ?InitGhost@lvlInstance@@QAEHPBDABVMatrix34@@@Z 00472ea0 f   level:inst.obj
 0001:00071f30       ?GetVelocity@lvlInstance@@UAEABVVector3@@XZ 00472f30 f   level:inst.obj
 0001:00071f40       ?GetEntity@lvlInstance@@UAEPAVdgPhysEntity@@XZ 00472f40 f   level:inst.obj
 0001:00071f50       ?AttachEntity@lvlInstance@@UAEPAVdgPhysEntity@@XZ 00472f50 f   level:inst.obj
 0001:00071f60       ?SetVariant@lvlInstance@@UAEXH@Z 00472f60 f   level:inst.obj
 0001:00071f70       ?GetRadius@lvlInstance@@UAE?BMXZ 00472f70 f   level:inst.obj
 0001:00071f80       ?DrawShadow@lvlInstance@@UAEXXZ 00472f80 f   level:inst.obj
 0001:00071f90       ?DrawShadowMap@lvlInstance@@UAEXXZ 00472f90 f   level:inst.obj
 0001:00071fa0       ?DrawGlow@lvlInstance@@UAEXXZ 00472fa0 f   level:inst.obj
 0001:00071fb0       ?DrawReflected@lvlInstance@@UAEXM@Z 00472fb0 f   level:inst.obj
 0001:00071fc0       ?DrawPhysics@lvlInstance@@UAEXABVVector3@@@Z 00472fc0 f   level:inst.obj
 0001:00072050       ?ComputeShadowMatrix@lvlInstance@@SA_NAAVMatrix34@@HABV2@@Z 00473050 f   level:inst.obj
 0001:000722a0       ?SetupGfxLights@lvlInstance@@UAEHABVMatrix34@@@Z 004732a0 f   level:inst.obj
 0001:000722b0       ?CreateTempBounds@lvlInstance@@KAXXZ 004732b0 f   level:inst.obj
 0001:00072410       ?DeleteTempBounds@lvlInstance@@KAXXZ 00473410 f   level:inst.obj
 0001:000724e0       ?DrawReflectedParts@lvlInstance@@UAEXH@Z 004734e0 f   level:inst.obj
 0001:000724f0       ?GetBound@lvlInstance@@UAEPBVphBound@@H@Z 004734f0 f   level:inst.obj
 0001:00072630       ?IsVisible@lvlInstance@@UAEHABVgfxViewport@@@Z 00473630 f   level:inst.obj
 0001:00072860       ?PreLoadShader@lvlInstance@@QAEXH@Z 00473860 f   level:inst.obj
 0001:000728d0       ?Optimize@lvlInstance@@QAEXH@Z 004738d0 f   level:inst.obj
 0001:00072960       ?AddWidgets@lvlInstance@@SAXAAVbkBank@@@Z 00473960 f   level:inst.obj
 0001:00072a80       ?CleanName@@YAPBDPBD@Z     00473a80 f   level:level2.obj
 0001:00072aa0       ?LoadInstances@lvlLevel@@UAE_NPBD0@Z 00473aa0 f   level:level2.obj
 0001:00073320       ?ResetInstances@lvlLevel@@QAEXXZ 00474320 f   level:level2.obj
 0001:00073380       ?IsCollidable@lvlLandmark@@UAE_NXZ 00474380 f i level:level2.obj
 0001:00073390       ??0lvlSky@@QAE@XZ          00474390 f   level:sky.obj
 0001:00073420       ?Reset@lvlSky@@UAEXXZ      00474420 f   level:sky.obj
 0001:00073430       ??1lvlSky@@UAE@XZ          00474430 f   level:sky.obj
 0001:00073450       ?AutoInit@lvlSky@@QAEXPBD0H@Z 00474450 f   level:sky.obj
 0001:00073660       ?Save@lvlSky@@AAEXXZ       00474660 f   level:sky.obj
 0001:00073700       ?Init@lvlSky@@QAEXPBDMMMH@Z 00474700 f   level:sky.obj
 0001:00073800       ?Update@lvlSky@@UAEXXZ     00474800 f   level:sky.obj
 0001:00073820       ?Draw@lvlSky@@UAEXXZ       00474820 f   level:sky.obj
 0001:00073920       ?DrawWithNoZState@lvlSky@@UAEXXZ 00474920 f   level:sky.obj
 0001:000739b0       ?DrawHat@lvlSky@@UAEXXZ    004749b0 f   level:sky.obj
 0001:00073b20       ?SetupFog@lvlSky@@QAEXM@Z  00474b20 f   level:sky.obj
 0001:00073bf0       ?AddWidgets@lvlSky@@QAEXAAVbkBank@@@Z 00474bf0 f   level:sky.obj
 0001:00073e70       ??_ElvlSky@@UAEPAXI@Z      00474e70 f i level:sky.obj
 0001:00073e70       ??_GlvlSky@@UAEPAXI@Z      00474e70 f i level:sky.obj
 0001:00073ea0       ??0lvlTrackManager@@QAE@XZ 00474ea0 f   level:track.obj
 0001:00073ee0       ??1lvlTrackManager@@QAE@XZ 00474ee0 f   level:track.obj
 0001:00073ef0       ?Init@lvlTrackManager@@QAEXABVMatrix34@@MH@Z 00474ef0 f   level:track.obj
 0001:00073fa0       ?Reset@lvlTrackManager@@QAEXXZ 00474fa0 f   level:track.obj
 0001:00073fb0       ?VerifyTrack@lvlTrackManager@@AAEXXZ 00474fb0 f   level:track.obj
 0001:00074030       ?Update@lvlTrackManager@@QAEXABVVector3@@0PAVgfxTexture@@@Z 00475030 f   level:track.obj
 0001:00074450       ?Draw@lvlTrackManager@@QAEXXZ 00475450 f   level:track.obj
 0001:00074510       ?AddVertex@lvlTrackManager@@AAEXPAVgfxTexture@@MABVVector3@@1@Z 00475510 f i level:track.obj
 0001:000745a0       ?Dot@Vector3@@QBEMABV1@@Z  004755a0 f i level:track.obj
 0001:000745c0       ?Mag@Vector3@@QBEMXZ       004755c0 f i level:track.obj
 0001:000745f0       ??0dgPath@@QAE@PBD@Z       004755f0 f   level:pathset.obj
 0001:00074630       ?SetName@dgPath@@QAEXPBD@Z 00475630 f   level:pathset.obj
 0001:00074670       ??1dgPath@@QAE@XZ          00475670 f   level:pathset.obj
 0001:00074680       ?Load@dgPath@@SAPAV1@PAVStream@@@Z 00475680 f   level:pathset.obj
 0001:00074810       ?Enumerate@dgPath@@QBEXP6AXPBDABVMatrix34@@_N@ZMM@Z 00475810 f   level:pathset.obj
 0001:00074c80       ??0dgPathSet@@QAE@XZ       00475c80 f   level:pathset.obj
 0001:00074ca0       ??1dgPathSet@@UAE@XZ       00475ca0 f   level:pathset.obj
 0001:00074cf0       ?Kill@dgPathSet@@QAEXXZ    00475cf0 f   level:pathset.obj
 0001:00074d40       ?Load@dgPathSet@@QAE_NPBD0@Z 00475d40 f   level:pathset.obj
 0001:00074e00       ??_EdgPathSet@@UAEPAXI@Z   00475e00 f i level:pathset.obj
 0001:00074e00       ??_GdgPathSet@@UAEPAXI@Z   00475e00 f i level:pathset.obj
 0001:00074e30       ?AddScaled@Vector3@@QAEXABV1@M@Z 00475e30 f i level:pathset.obj
 0001:00074e60       ?GetVert@dgPath@@QBEAAUdgPathVertex@@H@Z 00475e60 f i level:pathset.obj
 0001:00074ea0       ??0lvlFixedAny@@QAE@XZ     00475ea0 f   level:fixed.obj
 0001:00074ec0       ?DrawReflectedParts@lvlFixedAny@@UAEXH@Z 00475ec0 f   level:fixed.obj
 0001:00074fe0       ?Draw@lvlFixedAny@@UAEXH@Z 00475fe0 f   level:fixed.obj
 0001:00075130       ?SetVariant@lvlFixedAny@@UAEXH@Z 00476130 f   level:fixed.obj
 0001:00075170       ?Init@lvlFixedAny@@UAEHPBDABVMatrix34@@H@Z 00476170 f   level:fixed.obj
 0001:00075330       ?DrawShadowMap@lvlFixedAny@@UAEXXZ 00476330 f   level:fixed.obj
 0001:000753d0       ?DrawShadow@lvlFixedAny@@UAEXXZ 004763d0 f   level:fixed.obj
 0001:00075550       ??0lvlFixedRotY@@QAE@XZ    00476550 f   level:fixed.obj
 0001:00075570       ?SizeOf@lvlFixedRotY@@UAEIXZ 00476570 f   level:fixed.obj
 0001:00075580       ?GetPosition@lvlFixedRotY@@UAEABVVector3@@XZ 00476580 f   level:fixed.obj
 0001:00075590       ?IsVisible@lvlFixedRotY@@UAEHABVgfxViewport@@@Z 00476590 f   level:fixed.obj
 0001:000755e0       ?GetMatrix@lvlFixedRotY@@UAEABVMatrix34@@AAV2@@Z 004765e0 f   level:fixed.obj
 0001:00075630       ?SetMatrix@lvlFixedRotY@@UAEXABVMatrix34@@@Z 00476630 f   level:fixed.obj
 0001:00075660       ??0lvlFixedMatrix@@QAE@XZ  00476660 f   level:fixed.obj
 0001:000756a0       ?SizeOf@lvlFixedMatrix@@UAEIXZ 004766a0 f   level:fixed.obj
 0001:000756b0       ?GetPosition@lvlFixedMatrix@@UAEABVVector3@@XZ 004766b0 f   level:fixed.obj
 0001:000756c0       ?IsVisible@lvlFixedMatrix@@UAEHABVgfxViewport@@@Z 004766c0 f   level:fixed.obj
 0001:00075710       ?GetMatrix@lvlFixedMatrix@@UAEABVMatrix34@@AAV2@@Z 00476710 f   level:fixed.obj
 0001:00075720       ?SetMatrix@lvlFixedMatrix@@UAEXABVMatrix34@@@Z 00476720 f   level:fixed.obj
 0001:00075740       ?GetPosition@lvlMultiRoomInstance@@UAEABVVector3@@XZ 00476740 f   level:multiroom.obj
 0001:00075750       ?GetMatrix@lvlMultiRoomInstance@@UAEABVMatrix34@@AAV2@@Z 00476750 f   level:multiroom.obj
 0001:00075770       ?SetMatrix@lvlMultiRoomInstance@@UAEXABVMatrix34@@@Z 00476770 f   level:multiroom.obj
 0001:00075790       ?GetEntity@lvlMultiRoomInstance@@UAEPAVdgPhysEntity@@XZ 00476790 f   level:multiroom.obj
 0001:000757a0       ?AttachEntity@lvlMultiRoomInstance@@UAEPAVdgPhysEntity@@XZ 004767a0 f   level:multiroom.obj
 0001:000757b0       ?GetVelocity@lvlMultiRoomInstance@@UAEABVVector3@@XZ 004767b0 f   level:multiroom.obj
 0001:000757c0       ?IsLandmark@lvlMultiRoomInstance@@UAE_NXZ 004767c0 f   level:multiroom.obj
 0001:000757d0       ?IsCollidable@lvlMultiRoomInstance@@UAE_NXZ 004767d0 f   level:multiroom.obj
 0001:000757e0       ?IsTerrainCollidable@lvlMultiRoomInstance@@UAE_NXZ 004767e0 f   level:multiroom.obj
 0001:00075800       ?Draw@lvlMultiRoomInstance@@UAEXH@Z 00476800 f   level:multiroom.obj
 0001:000758e0       ?GetBound@lvlMultiRoomInstance@@UAEPBVphBound@@H@Z 004768e0 f   level:multiroom.obj
 0001:000758f0       ?SizeOf@lvlMultiRoomInstance@@UAEIXZ 004768f0 f   level:multiroom.obj
 0001:00075900       ?Create@lvlMultiRoomInstance@@SAXPAVlvlInstance@@H@Z 00476900 f   level:multiroom.obj
 0001:00075ce0       ??0lvlMultiRoomInstance@@AAE@PAVlvlInstance@@PAUlvlMultiRoomState@@H@Z 00476ce0 f   level:multiroom.obj
 0001:00075d60       ?IsLandmark@lvlLandmark@@UAE_NXZ 00476d60 f   level:landmark.obj
 0001:00075d70       ?SizeOf@lvlLandmark@@UAEIXZ 00476d70 f   level:landmark.obj
 0001:00075d80       ?Init@lvlLandmark@@UAEHPBDABVMatrix34@@H@Z 00476d80 f   level:landmark.obj
 0001:00075da0       ?IsVisible@lvlLandmark@@UAEHABVgfxViewport@@@Z 00476da0 f   level:landmark.obj
 0001:000761f0       ??0dgPhysManager@@QAE@XZ   004771f0 f   phys:physmgr.obj
 0001:000762c0       ??1dgPhysManager@@UAE@XZ   004772c0 f   phys:physmgr.obj
 0001:00076340       ?Reset@dgPhysManager@@QAEXXZ 00477340 f   phys:physmgr.obj
 0001:000763e0       ?DeclareMover@dgPhysManager@@QAEXPAVlvlInstance@@HH@Z 004773e0 f   phys:physmgr.obj
 0001:000765d0       ?NewMover@dgPhysManager@@QAEXPAVlvlInstance@@0@Z 004775d0 f   phys:physmgr.obj
 0001:00076710       ?NewMover@dgPhysManager@@QAEXPAVlvlInstance@@@Z 00477710 f   phys:physmgr.obj
 0001:000767c0       ?NewMover@dgPhysManager@@QAEXPAVlvlInstance@@00@Z 004777c0 f   phys:physmgr.obj
 0001:00076900       ?IgnoreMover@dgPhysManager@@QAEXPAVlvlInstance@@@Z 00477900 f   phys:physmgr.obj
 0001:00076950       ?Update@dgPhysManager@@QAEXXZ 00477950 f   phys:physmgr.obj
 0001:00076ec0       ?ResetTable@dgPhysManager@@QAEXXZ 00477ec0 f   phys:physmgr.obj
 0001:00076ef0       ?Collide@dgPhysManager@@QAE_NAAVlvlSegment@@PAVlvlIntersection@@HPAVlvlInstance@@HH@Z 00477ef0 f   phys:physmgr.obj
 0001:00077350       ?CollideProbe@dgPhysManager@@QAE_NAAVlvlSegment@@PAVlvlIntersection@@PAVlvlInstance@@@Z 00478350 f   phys:physmgr.obj
 0001:00077530       ?TrivialCollideInstances@dgPhysManager@@QAE_NPAVlvlInstance@@0@Z 00478530 f   phys:physmgr.obj
 0001:000777b0       ?GatherCollidables@dgPhysManager@@QAEXPAUCollisionTableEntry@1@@Z 004787b0 f   phys:physmgr.obj
 0001:000779b0       ?CollideInstances@dgPhysManager@@QAE_NPAVlvlInstance@@0@Z 004789b0 f   phys:physmgr.obj
 0001:00077ee0       ?CollideTerrain@dgPhysManager@@QAE_NPAUCollisionTableEntry@1@@Z 00478ee0 f   phys:physmgr.obj
 0001:000783f0       ?Draw@dgPhysManager@@QAEXXZ 004793f0 f   phys:physmgr.obj
 0001:00078680       ?AddWidgets@dgPhysManager@@QAEXAAVbkBank@@@Z 00479680 f   phys:physmgr.obj
 0001:000788d0       ?Stats@dgPhysManager@@UAEXXZ 004798d0 f   phys:physmgr.obj
 0001:00078b50       ??_EdgPhysManager@@UAEPAXI@Z 00479b50 f i phys:physmgr.obj
 0001:00078b50       ??_GdgPhysManager@@UAEPAXI@Z 00479b50 f i phys:physmgr.obj
 0001:00078b80       ?TestProbe@dgPhysManager@@UBE_NABVphSegment@@PAVphIntersection@@IH@Z 00479b80 f i phys:physmgr.obj
 0001:00078b90       ?TestSphere@dgPhysManager@@UBE_NABVVector3@@MPAVphImpact@@IH@Z 00479b90 f i phys:physmgr.obj
 0001:00078ba0       ?PromoteInstance@dgPhysManager@@UAEPAVphColliderBase@@PAVphInstance@@@Z 00479ba0 f i phys:physmgr.obj
 0001:00078bb0       ?DemoteInstance@dgPhysManager@@UAEXPAVphInstance@@@Z 00479bb0 f i phys:physmgr.obj
 0001:00078bc0       ?KillInstance@dgPhysManager@@UAEXPAVphInstance@@@Z 00479bc0 f i phys:physmgr.obj
 0001:00078bd0       ?DisableInstance@dgPhysManager@@UAEXPAVphInstance@@@Z 00479bd0 f i phys:physmgr.obj
 0001:00078be0       ?EnableInstance@dgPhysManager@@UAEXPAVphInstance@@H@Z 00479be0 f i phys:physmgr.obj
 0001:00078bf0       ?GetCollider@dgPhysManager@@UBEPAVphColliderBase@@PBVphInstance@@@Z 00479bf0 f i phys:physmgr.obj
 0001:00078c00       ?CreateInstance@dgPhysManager@@UAEPAVphInstance@@XZ 00479c00 f i phys:physmgr.obj
 0001:00078c10       ?UnTransform@Matrix34@@QBEXABVVector3@@AAV2@@Z 00479c10 f i phys:physmgr.obj
 0001:00078c70       ?Update@dgPhysEntity@@UAEXXZ 00479c70 f   phys:physentity.obj
 0001:00078d20       ?Set@lvlSegment@@QAEXABVVector3@@0HPAVlvlSegmentInfo@@@Z 00479d20 f   phys:segment.obj
 0001:00078df0       ?CalculateInfo@lvlSegment@@QAEXXZ 00479df0 f   phys:segment.obj
 0001:00078e80       ?AllocateState@lvlSegmentInfo@@QAEXXZ 00479e80 f   phys:segment.obj
 0001:00078eb0       ??0dgBoundGeometry@@QAE@XZ 00479eb0 f   phys:bound.obj
 0001:00078f30       ??1dgBoundGeometry@@QAE@XZ 00479f30 f   phys:bound.obj
 0001:00078f90       ?SetFriction@dgBoundGeometry@@UAEXM@Z 00479f90 f   phys:bound.obj
 0001:00078fa0       ?SetElasticity@dgBoundGeometry@@UAEXM@Z 00479fa0 f   phys:bound.obj
 0001:00078fb0       ??0dgBoundBox@@QAE@XZ      00479fb0 f   phys:bound.obj
 0001:00079020       ??1dgBoundBox@@QAE@XZ      0047a020 f   phys:bound.obj
 0001:00079080       ?SetFriction@dgBoundBox@@UAEXM@Z 0047a080 f   phys:bound.obj
 0001:000790a0       ?SetElasticity@dgBoundBox@@UAEXM@Z 0047a0a0 f   phys:bound.obj
 0001:000790c0       ??0dgBoundHotdog@@QAE@XZ   0047a0c0 f   phys:bound.obj
 0001:00079130       ??1dgBoundHotdog@@QAE@XZ   0047a130 f   phys:bound.obj
 0001:00079190       ?SetFriction@dgBoundHotdog@@UAEXM@Z 0047a190 f   phys:bound.obj
 0001:000791b0       ?SetElasticity@dgBoundHotdog@@UAEXM@Z 0047a1b0 f   phys:bound.obj
 0001:000791d0       ??0dgBoundSphere@@QAE@XZ   0047a1d0 f   phys:bound.obj
 0001:00079240       ??1dgBoundSphere@@QAE@XZ   0047a240 f   phys:bound.obj
 0001:000792a0       ?SetFriction@dgBoundSphere@@UAEXM@Z 0047a2a0 f   phys:bound.obj
 0001:000792c0       ?SetElasticity@dgBoundSphere@@UAEXM@Z 0047a2c0 f   phys:bound.obj
 0001:000792e0       ?GetVertex@phBoundPolygonal@@UBEABVVector3@@H@Z 0047a2e0 f i phys:bound.obj
 0001:00079300       ?GetEdgeCosine@phBoundGeometry@@UBEMH@Z 0047a300 f i phys:bound.obj
 0001:00079310       ?GetEdgeNormal@phBoundGeometry@@UBEABVVector3@@HAAV2@@Z 0047a310 f i phys:bound.obj
 0001:00079330       ?GetMaterial@dgBoundGeometry@@UBEPBVphMaterial@@H@Z 0047a330 f i phys:bound.obj
 0001:00079340       ?GetNumMaterials@dgBoundGeometry@@UBEHXZ 0047a340 f i phys:bound.obj
 0001:00079350       ?GetEdgeCosine@phBoundBox@@UBEMH@Z 0047a350 f i phys:bound.obj
 0001:00079360       ?GetMaterial@dgBoundBox@@UBEPBVphMaterial@@H@Z 0047a360 f i phys:bound.obj
 0001:00079370       ?GetNumMaterials@dgBoundBox@@UBEHXZ 0047a370 f i phys:bound.obj
 0001:00079380       ?GetMaterial@dgBoundHotdog@@UBEPBVphMaterial@@H@Z 0047a380 f i phys:bound.obj
 0001:00079390       ?GetNumMaterials@dgBoundHotdog@@UBEHXZ 0047a390 f i phys:bound.obj
 0001:000793a0       ?GetMaterial@dgBoundSphere@@UBEPBVphMaterial@@H@Z 0047a3a0 f i phys:bound.obj
 0001:000793b0       ?GetNumMaterials@dgBoundSphere@@UBEHXZ 0047a3b0 f i phys:bound.obj
 0001:000793c0       ?AllocateState@lvlLevelBound@@UBEPADXZ 0047a3c0 f   phys:levelbound.obj
 0001:000793d0       ?TestEdge@lvlLevelBound@@UBEHAAVphSegment@@PAVphIntersection@@H@Z 0047a3d0 f   phys:levelbound.obj
 0001:000793f0       ?TestProbe@lvlLevelBound@@UBE_NAAVphSegment@@PAVphIntersection@@M@Z 0047a3f0 f   phys:levelbound.obj
 0001:00079410       ?TestAI@lvlLevelBound@@UBE_NAAVphSegment@@PAVphIntersection@@@Z 0047a410 f   phys:levelbound.obj
 0001:00079430       ?TestEdgePoint@lvlLevelBound@@UBEHAAVphSegment@@PAVphIntersectionPoint@@H@Z 0047a430 f   phys:levelbound.obj
 0001:00079450       ?TestProbePoint@lvlLevelBound@@UBE_NAAVphSegment@@PAVphIntersectionPoint@@M@Z 0047a450 f   phys:levelbound.obj
 0001:00079470       ?TestAIPoint@lvlLevelBound@@UBE_NAAVphSegment@@PAVphIntersectionPoint@@@Z 0047a470 f   phys:levelbound.obj
 0001:00079490       ?TestSphere@lvlLevelBound@@UBE_NABVVector3@@MAAV2@1AAM@Z 0047a490 f   phys:levelbound.obj
 0001:000794a0       ?GetEdgeCosine@lvlLevelBound@@UBEMH@Z 0047a4a0 f   phys:levelbound.obj
 0001:000794b0       ?GetEdgeNormal@lvlLevelBound@@UBEABVVector3@@HAAV2@@Z 0047a4b0 f   phys:levelbound.obj
 0001:000794c0       ?GetMaterial@lvlLevelBound@@UBEPBVphMaterial@@H@Z 0047a4c0 f   phys:levelbound.obj
 0001:000794f0       ?CollidePolyToLevel@lvlLevelBound@@UBEHPBVphBoundPolygonal@@PAHHPAVphColliderBase@@PBVMatrix34@@3PAVlvlIntersection@@H1_N@Z 0047a4f0 f   phys:levelbound.obj
 0001:00079a20       ?AddWidgets@lvlLevelBound@@QAEXAAVbkBank@@@Z 0047aa20 f   phys:levelbound.obj
 0001:00079a30       ?FindImpactsPolyToPoly@lvlLevelBound@@QBEHPBVphBound@@PBVMatrix34@@1PAVphColliderBase@@2PAVlvlIntersection@@3PAVphImpactBase@@HHH@Z 0047aa30 f   phys:levelbound.obj
 0001:0007a0f0       ?FindImpactsSphere@lvlLevelBound@@QBEHPBVphBoundSphere@@ABVVector3@@PAVphColliderBase@@2PAVphImpactBase@@HH@Z 0047b0f0 f   phys:levelbound.obj
 0001:0007a1b0       ?FindImpactsHotdog@lvlLevelBound@@QBEHPBVphBoundHotdog@@PBVMatrix34@@1PAVphColliderBase@@2PAVphImpactBase@@HABVVector3@@H@Z 0047b1b0 f   phys:levelbound.obj
 0001:0007a400       ?TrivialCollideBoxToLevel@lvlLevelBound@@UBE_NPBVphBoundBox@@HPAVphColliderBase@@PBVMatrix34@@2@Z 0047b400 f   phys:levelbound.obj
 0001:0007a580       ?CalcImpact@dgImpact@@SAHPAV1@MM@Z 0047b580 f   phys:impact.obj
 0001:0007a7a0       ?CalcCollision@dgImpact@@QAEHABVVector3@@MPAV2@111M@Z 0047b7a0 f   phys:impact.obj
 0001:0007af50       ?CalcCollision@dgImpact@@QAEHABVVector3@@MPAV2@11111_N2HHM@Z 0047bf50 f   phys:impact.obj
 0001:0007b520       ??XVector3@@QAEXM@Z        0047c520 f i phys:impact.obj
 0001:0007b540       ?Negate@Vector3@@QAEXXZ    0047c540 f i phys:impact.obj
 0001:0007b560       ??YVector3@@QAEXABV0@@Z    0047c560 f i phys:impact.obj
 0001:0007b590       ?Dot@Vector3@@QAEXABVMatrix34@@@Z 0047c590 f i phys:impact.obj
 0001:0007b5f0       ?InitArray@phSleep@@SAXQAV1@H@Z 0047c5f0 f   phcollide:sleep.obj
 0001:0007b660       ??0phSleep@@QAE@XZ         0047c660 f   phcollide:sleep.obj
 0001:0007b690       ??0phSleep@@QAE@PAVphInertialCS@@PAVphColliderBase@@@Z 0047c690 f   phcollide:sleep.obj
 0001:0007b6e0       ??1phSleep@@QAE@XZ         0047c6e0 f   phcollide:sleep.obj
 0001:0007b6f0       ?Init@phSleep@@QAEXPAVphInertialCS@@PAVphColliderBase@@@Z 0047c6f0 f   phcollide:sleep.obj
 0001:0007b750       ?WakeUp@phSleep@@QAEXXZ    0047c750 f   phcollide:sleep.obj
 0001:0007b780       ?WakeUpNextTime@phSleep@@QAEXXZ 0047c780 f   phcollide:sleep.obj
 0001:0007b790       ?Reset@phSleep@@QAEXXZ     0047c790 f   phcollide:sleep.obj
 0001:0007b7a0       ?SendToSleep@phSleep@@QAEXXZ 0047c7a0 f   phcollide:sleep.obj
 0001:0007b7e0       ?Update@phSleep@@QAEXXZ    0047c7e0 f   phcollide:sleep.obj
 0001:0007bad0       ?SetAsleepCB@phSleep@@QAEXPAVdatCallback@@@Z 0047cad0 f   phcollide:sleep.obj
 0001:0007bb00       ?SmoothAngInertia@phSleep@@SAXAAVphInertialCS@@M@Z 0047cb00 f   phcollide:sleep.obj
 0001:0007bbb0       ?AddWidgets@phSleep@@QAEXPAVbkBank@@@Z 0047cbb0 f   phcollide:sleep.obj
 0001:0007bc80       ?Mag2@Vector3@@QBEMXZ      0047cc80 f i phcollide:sleep.obj
 0001:0007bca0       ??0phColliderJointed@@QAE@XZ 0047cca0 f   phcollide:colliderjointed.obj
 0001:0007bd40       ?InitArray@phColliderJointed@@SAXQAV1@H@Z 0047cd40 f   phcollide:colliderjointed.obj
 0001:0007be00       ?Attach@phColliderJointed@@QAEXPBVphJoint@@@Z 0047ce00 f   phcollide:colliderjointed.obj
 0001:0007be10       ?Impact@phColliderJointed@@UAEXPBVphImpactBase@@ABVVector3@@1@Z 0047ce10 f   phcollide:colliderjointed.obj
 0001:0007be30       ?Impact@phColliderJointed@@UAEXPBVphImpactBase@@ABVVector3@@@Z 0047ce30 f   phcollide:colliderjointed.obj
 0001:0007be50       ?Contact@phColliderJointed@@UAEXPBVphImpactBase@@ABVVector3@@11ABVMatrix34@@@Z 0047ce50 f   phcollide:colliderjointed.obj
 0001:0007be70       ?Contact@phColliderJointed@@UAEXABVVector3@@PBVphContact@@ABVMatrix34@@@Z 0047ce70 f   phcollide:colliderjointed.obj
 0001:0007be90       ?Contact@phColliderJointed@@UAEXABVVector3@@PBVphContact@@@Z 0047ce90 f   phcollide:colliderjointed.obj
 0001:0007beb0       ?GetInvMassMatrix@phColliderJointed@@UBEXABVVector3@@AAVMatrix34@@H@Z 0047ceb0 f   phcollide:colliderjointed.obj
 0001:0007bf20       ?GetInvMassMatrix@phColliderJointed@@UBEXABVVector3@@0AAVMatrix34@@H@Z 0047cf20 f   phcollide:colliderjointed.obj
 0001:0007bf40       ?DebugReplay@phCollider@@QAEXXZ 0047cf40 f   phcollide:collider.obj
 0001:0007bf60       ?InitArray@phCollider@@SAXQAV1@H@Z 0047cf60 f   phcollide:collider.obj
 0001:0007c030       ?Init@phCollider@@QAEXPBVphBound@@PAVInstanceData@@PAVphInertialCS@@PAVphSleep@@@Z 0047d030 f   phcollide:collider.obj
 0001:0007c090       ?Init@phCollider@@QAEXPBVphBound@@PAVphInertialCS@@PAVphSleep@@@Z 0047d090 f   phcollide:collider.obj
 0001:0007c0f0       ?Init@phCollider@@QAEXPBVphBound@@PAVMatrix34@@PAVphInertialCS@@PAVphSleep@@@Z 0047d0f0 f   phcollide:collider.obj
 0001:0007c150       ?Init@phCollider@@QAEXPBVphBound@@PAVMatrix34@@@Z 0047d150 f   phcollide:collider.obj
 0001:0007c1c0       ?Init@phCollider@@QAEXPAVMatrix34@@PBVphBound@@@Z 0047d1c0 f   phcollide:collider.obj
 0001:0007c220       ?Reset@phCollider@@QAEXXZ  0047d220 f   phcollide:collider.obj
 0001:0007c240       ?EffectiveMass@phImpact@@QBEMXZ 0047d240 f   phcollide:impact.obj
 0001:0007c400       ?GetLocalVelocities@phImpact@@QBEXAAVVector3@@0@Z 0047d400 f   phcollide:impact.obj
 0001:0007c4e0       ?GetRelDisplacement@phImpact@@QBEXPAVVector3@@@Z 0047d4e0 f   phcollide:impact.obj
 0001:0007c5e0       ?CalcCollision@phImpact@@QAEXABVVector3@@MPAV2@11@Z 0047d5e0 f   phcollide:impact.obj
 0001:0007cbf0       ?Contact@phImpact@@QAEXABVVector3@@00ABVMatrix34@@@Z 0047dbf0 f   phcollide:impact.obj
 0001:0007cc50       ?Impact@phImpact@@QAEXABVVector3@@00@Z 0047dc50 f   phcollide:impact.obj
 0001:0007cca0       ?CalcCollisionNoFriction@phImpact@@SAMABVphInertialCS@@ABVVector3@@M1@Z 0047dca0 f   phcollide:impact.obj
 0001:0007cd60       ?FindFrictionAndElasticity@phImpact@@QAEXXZ 0047dd60 f   phcollide:impact.obj
 0001:0007cdc0       ?GetMaterial@phImpact@@QAEPBVphMaterial@@PAVphColliderBase@@H@Z 0047ddc0 f   phcollide:impact.obj
 0001:0007cf60       ?SetColliderPenetration@phColliderBase@@SAXM@Z 0047df60 f   phcollide:colliderbase.obj
 0001:0007cf80       ?Reset@phColliderBase@@QAEXXZ 0047df80 f   phcollide:colliderbase.obj
 0001:0007cfc0       ?UpdateMtx@phColliderBase@@QAEXXZ 0047dfc0 f   phcollide:colliderbase.obj
 0001:0007d000       ?Update@phColliderBase@@QAEXXZ 0047e000 f   phcollide:colliderbase.obj
 0001:0007d050       ?CalcMaxMoved@phColliderBase@@QAEXXZ 0047e050 f   phcollide:colliderbase.obj
 0001:0007d170       ?ToWorldCoords@phColliderBase@@QBEXPAVphIntersection@@H@Z 0047e170 f   phcollide:colliderbase.obj
 0001:0007d310       ?ColliderIsActive@phColliderBase@@QBE_NXZ 0047e310 f   phcollide:colliderbase.obj
 0001:0007d320       ?GetDisp@phColliderBase@@QBEXABVVector3@@PAV2@@Z 0047e320 f   phcollide:colliderbase.obj
 0001:0007d360       ?GetDisp@phColliderBase@@QBEXABVVector3@@PAV2@J@Z 0047e360 f   phcollide:colliderbase.obj
 0001:0007d3b0       ?GetDisp@phColliderBase@@QBEXABVVector3@@HHHPAV2@@Z 0047e3b0 f   phcollide:colliderbase.obj
 0001:0007d760       ?GetLocalVelocity@phColliderBase@@QBEXABVVector3@@HHHAAV2@@Z 0047e760 f   phcollide:colliderbase.obj
 0001:0007d940       ?Impact@phColliderBase@@UAEXPBVphImpactBase@@ABVVector3@@1@Z 0047e940 f   phcollide:colliderbase.obj
 0001:0007db20       ?Impact@phColliderBase@@UAEXPBVphImpactBase@@ABVVector3@@@Z 0047eb20 f   phcollide:colliderbase.obj
 0001:0007dc80       ?Contact@phColliderBase@@UAEXPBVphImpactBase@@ABVVector3@@11ABVMatrix34@@@Z 0047ec80 f   phcollide:colliderbase.obj
 0001:0007dd70       ?Contact@phColliderBase@@UAEXABVVector3@@PBVphContact@@ABVMatrix34@@@Z 0047ed70 f   phcollide:colliderbase.obj
 0001:0007dde0       ?Contact@phColliderBase@@UAEXABVVector3@@PBVphContact@@@Z 0047ede0 f   phcollide:colliderbase.obj
 0001:0007df30       ?SetImpactCB@phColliderBase@@QAEXPAVdatCallback@@@Z 0047ef30 f   phcollide:colliderbase.obj
 0001:0007df40       ?SetBoundCB@phColliderBase@@QAEXPAVdatCallback@@@Z 0047ef40 f   phcollide:colliderbase.obj
 0001:0007df50       ?SetHitCB@phColliderBase@@QAEXPAVdatCallback@@@Z 0047ef50 f   phcollide:colliderbase.obj
 0001:0007df60       ?CallBoundCallback@phColliderBase@@QAEXPBVphImpactBase@@PBVphContact@@ABVVector3@@2_NPBVMatrix34@@@Z 0047ef60 f   phcollide:colliderbase.obj
 0001:0007e270       ?GetBoundCBImpactInfo@phColliderBase@@QBEXPBVphImpactBase@@PBVphContact@@PAUBoundCallbackData@2@PAVVector3@@@Z 0047f270 f   phcollide:colliderbase.obj
 0001:0007e350       ?TestSegment@phColliderBase@@QBEHABVphSegment@@PAVphIntersection@@H@Z 0047f350 f   phcollide:colliderbase.obj
 0001:0007e4c0       ?TestSegmentPoint@phColliderBase@@QBEHABVphSegment@@PAVphIntersectionPoint@@H@Z 0047f4c0 f   phcollide:colliderbase.obj
 0001:0007e620       ?GetInvMassMatrix@phColliderBase@@UBEXABVVector3@@AAVMatrix34@@H@Z 0047f620 f   phcollide:colliderbase.obj
 0001:0007e670       ?GetInvMassMatrix@phColliderBase@@UBEXABVVector3@@0AAVMatrix34@@H@Z 0047f670 f   phcollide:colliderbase.obj
 0001:0007e6d0       ?ApplyGravity@phColliderBase@@QAEXXZ 0047f6d0 f   phcollide:colliderbase.obj
 0001:0007e7a0       ?ApplyAirResistance@phColliderBase@@QAEXMABVVector3@@PBVphBound@@@Z 0047f7a0 f   phcollide:colliderbase.obj
 0001:0007ead0       ?DebugReplay@phColliderBase@@QAEXXZ 0047fad0 f   phcollide:colliderbase.obj
 0001:0007eb50       ?Transform@Matrix34@@QBEXABVVector3@@AAV2@@Z 0047fb50 f i phcollide:colliderbase.obj
 0001:0007ebb0       ?RecordPusher@phColliderBase@@QAEXABVVector3@@J@Z 0047fbb0 f i phcollide:colliderbase.obj
 0001:0007eca0       ?DisableContacts@phContact@@SAXXZ 0047fca0 f   phcollide:contact.obj
 0001:0007ecb0       ?SetContactPenetrationScale@phContact@@SAXM@Z 0047fcb0 f   phcollide:contact.obj
 0001:0007ecd0       ?SetContactPenetration@phContact@@SAXXZ 0047fcd0 f   phcollide:contact.obj
 0001:0007ed10       ?Init@phContact@@QAEXABVphImpact@@@Z 0047fd10 f   phcollide:contact.obj
 0001:0007ee30       ?Set@phContact@@QAEXABV1@@Z 0047fe30 f   phcollide:contact.obj
 0001:0007ef40       ?IsEqual@phContact@@QAE_NABVphImpact@@@Z 0047ff40 f   phcollide:contact.obj
 0001:0007f000       ?SetContactForceLimit@phContact@@QAEXABVphImpact@@ABVVector3@@@Z 00480000 f   phcollide:contact.obj
 0001:0007f2d0       ?CalcContactForce@phContact@@QAE_NPBVphImpact@@ABVVector3@@11PAV3@PAVMatrix34@@PAMMM@Z 004802d0 f   phcollide:contact.obj
 0001:00080110       ?SwapAB@phContact@@QAEXXZ  00481110 f   phcollide:contact.obj
 0001:000801d0       ??TVector3@@QBEMABV0@@Z    004811d0 f i phcollide:contact.obj
 0001:000801f0       ??ZVector3@@QAEXABV0@@Z    004811f0 f i phcollide:contact.obj
 0001:00080220       ??0phContactMgr@@QAE@XZ    00481220 f   phcollide:contactmgr.obj
 0001:00080300       ??1phContactMgr@@QAE@XZ    00481300 f   phcollide:contactmgr.obj
 0001:00080320       ?Reset@phContactMgr@@QAEXXZ 00481320 f   phcollide:contactmgr.obj
 0001:00080350       ?ClearContactList@phContactMgr@@AAEXXZ 00481350 f   phcollide:contactmgr.obj
 0001:00080390       ?Resize@phContactMgr@@QAEXXZ 00481390 f   phcollide:contactmgr.obj
 0001:000805a0       ?AllocNewContact@phContactMgr@@QAEJJ@Z 004815a0 f   phcollide:contactmgr.obj
 0001:00080640       ?RemoveContact@phContactMgr@@QAEXJ@Z 00481640 f   phcollide:contactmgr.obj
 0001:000807f0       ?SeekContact@phContactMgr@@QAEJJABVphImpact@@@Z 004817f0 f   phcollide:contactmgr.obj
 0001:00080860       ?CalcHeldContacts@phContactMgr@@QAEXPAVphColliderBase@@0H@Z 00481860 f   phcollide:contactmgr.obj
 0001:00080a70       ?CalcNextOverSamples@phContactMgr@@QAEXXZ 00481a70 f   phcollide:contactmgr.obj
 0001:00080c50       ?Update@phContactMgr@@QAEXXZ 00481c50 f   phcollide:contactmgr.obj
 0001:00080d40       ?CalcContact@phContactMgr@@QAE_NAAVphImpact@@ABVVector3@@111PAV3@PAVMatrix34@@@Z 00481d40 f   phcollide:contactmgr.obj
 0001:00080f80       ?TestHeldContact@phContactMgr@@QAE_NPBVphColliderBase@@0PAH@Z 00481f80 f   phcollide:contactmgr.obj
 0001:000810f0       ?EstMaxMoved@phContactMgr@@CAMABVMatrix34@@PBVphColliderBase@@1@Z 004820f0 f   phcollide:contactmgr.obj
 0001:000811c0       ?SeekHeldContact@phContactMgr@@QAEHJJH@Z 004821c0 f   phcollide:contactmgr.obj
 0001:00081230       ?ClearHeldContactTable@phContactMgr@@AAEXXZ 00482230 f   phcollide:contactmgr.obj
 0001:00081260       ?RemoveHeldContact@phContactMgr@@AAEXH@Z 00482260 f   phcollide:contactmgr.obj
 0001:00081410       ?AddHeldContact@phContactMgr@@AAEHPBVphColliderBase@@0@Z 00482410 f   phcollide:contactmgr.obj
 0001:00081570       ?AddHCEntry@phContactMgr@@AAE_NHJ@Z 00482570 f   phcollide:contactmgr.obj
 0001:000815f0       ?HCContactGone@phContactMgr@@AAE_NPAVphHeldContact@@@Z 004825f0 f   phcollide:contactmgr.obj
 0001:00081620       ?CalcHeldContact@phContactMgr@@QAEXHAAJABVVector3@@11PAV2@PAVMatrix34@@@Z 00482620 f   phcollide:contactmgr.obj
 0001:00081740       ?HeldContactResize@phContactMgr@@AAEXXZ 00482740 f   phcollide:contactmgr.obj
 0001:000818c0       ?GetNextHeldContact@phContactMgr@@AAE_NHPAHPAJPA_N@Z 004828c0 f   phcollide:contactmgr.obj
 0001:00081910       ?SearchContact@phContactMgr@@QAE_NJPAJ@Z 00482910 f   phcollide:contactmgr.obj
 0001:00081960       ?FindNextContact@phContactMgr@@QAE_NJPAJ0@Z 00482960 f   phcollide:contactmgr.obj
 0001:000819d0       ?CalcImpact@phContactMgr@@QAEXPAVphImpact@@M@Z 004829d0 f   phcollide:contactmgr.obj
 0001:00081b90       ?CullImpactList@phContactMgr@@QAEXPAHPAVphImpact@@@Z 00482b90 f   phcollide:contactmgr.obj
 0001:00082120       ?Calc2Impacts@phContactMgr@@QAEXPAVphImpact@@@Z 00483120 f   phcollide:contactmgr.obj
 0001:00082e80       ?Calc2ImpactsFixed@phContactMgr@@QAEXPAVphImpact@@_N@Z 00483e80 f   phcollide:contactmgr.obj
 0001:00083540       ?Calc3Impacts@phContactMgr@@QAEXHPAVphImpact@@@Z 00484540 f   phcollide:contactmgr.obj
 0001:00083ad0       ?ResolveThreePlusImpacts@phContactMgr@@QAEXHPAVphImpact@@ABVVector3@@11_N@Z 00484ad0 f   phcollide:contactmgr.obj
 0001:00084120       ?Calc3ImpactsFixed@phContactMgr@@QAEXHPAVphImpact@@_N@Z 00485120 f   phcollide:contactmgr.obj
 0001:00084260       ?ApplyImpact@phContactMgr@@QAEXPAVphImpact@@ABVVector3@@@Z 00485260 f   phcollide:contactmgr.obj
 0001:000848e0       ?GetCMSeconds@phContactMgr@@QBEMXZ 004858e0 f   phcollide:contactmgr.obj
 0001:00084910       ?GetCMInvSeconds@phContactMgr@@QBEMXZ 00485910 f   phcollide:contactmgr.obj
 0001:00084940       ?SetCMOversampleTime@phContactMgr@@QAEXM@Z 00485940 f   phcollide:contactmgr.obj
 0001:00084960       ?CalcContactHash@phContactMgr@@QAEJHHHJJ@Z 00485960 f i phcollide:contactmgr.obj
 0001:00084a40       ?SubtractScaled@Vector3@@QAEXABV1@M@Z 00485a40 f i phcollide:contactmgr.obj
 0001:00084a70       ?Transform3x3@Matrix34@@QBEXABVVector3@@AAV2@@Z 00485a70 f i phcollide:contactmgr.obj
 0001:00084ad0       ?SphereApplyCenterForceToPoly@phCollision@@SA_NPBVphForceSphere@@AAVphColliderBase@@PBVphBoundPolygonal@@1@Z 00485ad0 f   phcollide:collision.obj
 0001:00085200       ?SphereApplyCenterForceToSphere@phCollision@@SAXPBVphForceSphere@@AAVphColliderBase@@PBVphBoundSphere@@1@Z 00486200 f   phcollide:collision.obj
 0001:000853a0       ?SphereApplyCenterForceToHotdog@phCollision@@SAXPBVphForceSphere@@AAVphColliderBase@@PBVphBoundHotdog@@1@Z 004863a0 f   phcollide:collision.obj
 0001:000855e0       ?TestBoundGeneric@phCollision@@SAHPBVphBound@@AAVphColliderBase@@01PAVphIntersection@@2PAVphImpact@@HHABVVector3@@@Z 004865e0 f   phcollide:collision.obj
 0001:00086420       ?TestBoundGeneric@phCollision@@SAHPBVphBound@@0PBVMatrix34@@111PAVphIntersection@@2PAVphImpact@@HHABVVector3@@_N@Z 00487420 f   phcollide:collision.obj
 0001:000870a0       ?TestBoundForce@phCollision@@SAXPBVphBound@@AAVphColliderBase@@01PAVphImpact@@HABVVector3@@@Z 004880a0 f   phcollide:collision.obj
 0001:000871a0       ?GetRelDisp@phCollision@@SAXPBVMatrix34@@00ABVVector3@@PAV3@@Z 004881a0 f   phcollide:collision.obj
 0001:000872c0       ?CopyLastMatrix@phColliderBase@@QBEXPAVMatrix34@@J@Z 004882c0 f i phcollide:collision.obj
 0001:00087320       ?InitArray@phInertialCS@@SAXQAV1@H@Z 00488320 f   phinertia:inertia.obj
 0001:000873b0       ??0phInertialCS@@QAE@XZ    004883b0 f   phinertia:inertia.obj
 0001:000875f0       ?Zero@phInertialCS@@QAEXXZ 004885f0 f   phinertia:inertia.obj
 0001:00087620       ?Reset@phInertialCS@@QAEXXZ 00488620 f   phinertia:inertia.obj
 0001:00087630       ?Freeze@phInertialCS@@QAEXXZ 00488630 f   phinertia:inertia.obj
 0001:00087670       ?ZeroForces@phInertialCS@@QAEXXZ 00488670 f   phinertia:inertia.obj
 0001:00087800       ?Init@phInertialCS@@QAEXMMMM@Z 00488800 f   phinertia:inertia.obj
 0001:00087920       ?InitFromValues@phInertialCS@@QAEXMMABVVector3@@0@Z 00488920 f   phinertia:inertia.obj
 0001:00087970       ?InitBoxMass@phInertialCS@@QAEXMMMM@Z 00488970 f   phinertia:inertia.obj
 0001:000879e0       ?InitBoxDensity@phInertialCS@@QAEXMMMM@Z 004889e0 f   phinertia:inertia.obj
 0001:00087a10       ?InitSphereMass@phInertialCS@@QAEXMM@Z 00488a10 f   phinertia:inertia.obj
 0001:00087a40       ?InitSphereDensity@phInertialCS@@QAEXMM@Z 00488a40 f   phinertia:inertia.obj
 0001:00087a70       ?InitCylinderMass@phInertialCS@@QAEXMMMD@Z 00488a70 f   phinertia:inertia.obj
 0001:00087b00       ?InitCylinderDensity@phInertialCS@@QAEXMMMD@Z 00488b00 f   phinertia:inertia.obj
 0001:00087b30       ?InitHotdogMass@phInertialCS@@QAEXMMMD@Z 00488b30 f   phinertia:inertia.obj
 0001:00087ca0       ?InitHotdogDensity@phInertialCS@@QAEXMMMD@Z 00488ca0 f   phinertia:inertia.obj
 0001:00087ce0       ?InitFromGeometry@phInertialCS@@QAEXMPBVVector3@@PBVphPolygon@@HPAVMatrix34@@@Z 00488ce0 f   phinertia:inertia.obj
 0001:000880a0       ?TetrahedronAngInertia@phInertialCS@@QAEXPAVVector3@@PAM11111@Z 004890a0 f   phinertia:inertia.obj
 0001:00088320       ?Rotate@phInertialCS@@QAEXABVVector3@@@Z 00489320 f   phinertia:inertia.obj
 0001:000883a0       ?GetForce@phInertialCS@@QAEXMPAVVector3@@@Z 004893a0 f   phinertia:inertia.obj
 0001:000883f0       ?GetTorque@phInertialCS@@QAEXMPAVVector3@@@Z 004893f0 f   phinertia:inertia.obj
 0001:00088440       ?ClearInertialValues@phInertialCS@@QAEXXZ 00489440 f   phinertia:inertia.obj
 0001:00088460       ?AddInertia@phInertialCS@@QAE?AVMatrix34@@MABVVector3@@0@Z 00489460 f   phinertia:inertia.obj
 0001:00088740       ?AddInertia@phInertialCS@@QAE?AVMatrix34@@MABVVector3@@ABV2@@Z 00489740 f   phinertia:inertia.obj
 0001:00088ae0       ?SubtractInertia@phInertialCS@@QAE?AVMatrix34@@MABVVector3@@0@Z 00489ae0 f   phinertia:inertia.obj
 0001:00088b40       ?SubtractInertia@phInertialCS@@QAE?AVMatrix34@@MABVVector3@@ABV2@@Z 00489b40 f   phinertia:inertia.obj
 0001:00088ba0       ?SubtractInertia@phInertialCS@@QAE?AVMatrix34@@MABVVector3@@0PAV1@@Z 00489ba0 f   phinertia:inertia.obj
 0001:00088cd0       ?SubtractInertia@phInertialCS@@QAE?AVMatrix34@@MABVVector3@@ABV2@PAV1@@Z 00489cd0 f   phinertia:inertia.obj
 0001:00088e00       ?FindPrincipalAxes@phInertialCS@@QAE?AVMatrix34@@MMM@Z 00489e00 f   phinertia:inertia.obj
 0001:000897a0       ?PrincipalAxis@phInertialCS@@QAE?AVVector3@@MMMM@Z 0048a7a0 f   phinertia:inertia.obj
 0001:00089830       ?Update@phInertialCS@@QAEXXZ 0048a830 f   phinertia:inertia.obj
 0001:00089980       ?UpdateOversample@phInertialCS@@QAEXM@Z 0048a980 f   phinertia:inertia.obj
 0001:00089a80       ?UpdateOversampleDone@phInertialCS@@QAEXXZ 0048aa80 f   phinertia:inertia.obj
 0001:00089aa0       ?Update@phInertialCS@@AAEXM@Z 0048aaa0 f   phinertia:inertia.obj
 0001:0008a0e0       ?MoveICS@phInertialCS@@QAEXXZ 0048b0e0 f   phinertia:inertia.obj
 0001:0008a160       ?UpdateTerrainContacts@phInertialCS@@QAEXXZ 0048b160 f   phinertia:inertia.obj
 0001:0008a610       ?CalculateOneTerrainContact@phInertialCS@@QAEXPAPAUTerrainContact@1@PAPBVVector3@@PAV3@2@Z 0048b610 f   phinertia:inertia.obj
 0001:0008a7b0       ?CalculateTwoTerrainContacts@phInertialCS@@QAEXPAPAUTerrainContact@1@PAPBVVector3@@PAV3@2@Z 0048b7b0 f   phinertia:inertia.obj
 0001:0008a9f0       ?CalculateThreePlusTerrainContacts@phInertialCS@@QAEXHPAPAUTerrainContact@1@PAPBVVector3@@PAV3@2@Z 0048b9f0 f   phinertia:inertia.obj
 0001:0008aa10       ?AddNewTerrainContactPoint@phInertialCS@@QAE?B_NPBVphImpactBase@@_N@Z 0048ba10 f   phinertia:inertia.obj
 0001:0008abb0       ?CalcNetPush@phInertialCS@@QAEXABVVector3@@@Z 0048bbb0 f   phinertia:inertia.obj
 0001:0008acd0       ?CalcNetTurn@phInertialCS@@QAEXABVVector3@@@Z 0048bcd0 f   phinertia:inertia.obj
 0001:0008adf0       ?ApplyContactForce@phInertialCS@@QAEXABVVector3@@0ABVMatrix34@@@Z 0048bdf0 f   phinertia:inertia.obj
 0001:0008b020       ?GetInertiaMatrix@phInertialCS@@QBEXPAVMatrix34@@@Z 0048c020 f   phinertia:inertia.obj
 0001:0008b090       ?GetInertiaMatrix@phInertialCS@@QBEXABVVector3@@PAVMatrix34@@@Z 0048c090 f   phinertia:inertia.obj
 0001:0008b140       ?GetInverseInertiaMatrix@phInertialCS@@QBEXPAVMatrix34@@@Z 0048c140 f   phinertia:inertia.obj
 0001:0008b1e0       ?GetInvMassMatrix@phInertialCS@@QBEXABVVector3@@AAVMatrix34@@@Z 0048c1e0 f   phinertia:inertia.obj
 0001:0008b2f0       ?GetInvMassMatrix@phInertialCS@@QBEXABVVector3@@0AAVMatrix34@@@Z 0048c2f0 f   phinertia:inertia.obj
 0001:0008b4f0       ?GetLocalVelocity@phInertialCS@@QBEXABVVector3@@AAV2@@Z 0048c4f0 f   phinertia:inertia.obj
 0001:0008b580       ?GetLocalFilteredVelocity@phInertialCS@@QBEXABVVector3@@AAV2@@Z 0048c580 f   phinertia:inertia.obj
 0001:0008b5d0       ?GetOffsetVelocity@phInertialCS@@QBEXABVVector3@@AAV2@@Z 0048c5d0 f   phinertia:inertia.obj
 0001:0008b6a0       ?GetLocalFilteredVelocity2@phInertialCS@@QBEXABVVector3@@AAV2@@Z 0048c6a0 f   phinertia:inertia.obj
 0001:0008b760       ?GetLocalDisp@phInertialCS@@QBEXABVVector3@@AAV2@@Z 0048c760 f   phinertia:inertia.obj
 0001:0008b790       ?GetLocalFilteredDisp@phInertialCS@@QBEXABVVector3@@AAV2@@Z 0048c790 f   phinertia:inertia.obj
 0001:0008b7f0       ?GetCMFilteredVelocity@phInertialCS@@QBEXAAVVector3@@@Z 0048c7f0 f   phinertia:inertia.obj
 0001:0008b850       ?GetCMDisp@phInertialCS@@QBEXAAVVector3@@@Z 0048c850 f   phinertia:inertia.obj
 0001:0008b8a0       ?GetLocalAcceleration@phInertialCS@@QBEXABVVector3@@AAV2@@Z 0048c8a0 f   phinertia:inertia.obj
 0001:0008bab0       ?AddWidgets@phInertialCS@@QAEXPAVbkBank@@@Z 0048cab0 f   phinertia:inertia.obj
 0001:0008bb50       ?DebugReplay@phInertialCS@@QAEXXZ 0048cb50 f   phinertia:inertia.obj
 0001:0008bc90       ??0TerrainContact@phInertialCS@@QAE@XZ 0048cc90 f i phinertia:inertia.obj
 0001:0008bcb0       ?Dot3x3@Vector3@@QAEXABVMatrix34@@@Z 0048ccb0 f i phinertia:inertia.obj
 0001:0008bd10       ?Dot3x3Transpose@Vector3@@QAEXABVMatrix34@@@Z 0048cd10 f i phinertia:inertia.obj
 0001:0008c5c0       ??0phBoundBox@@QAE@XZ      0048d5c0 f   phbound:boundbox.obj
 0001:0008c730       ??0phBoundBox@@QAE@ABVVector3@@@Z 0048d730 f   phbound:boundbox.obj
 0001:0008c890       ??1phBoundBox@@QAE@XZ      0048d890 f   phbound:boundbox.obj
 0001:0008c8b0       ?GetMaterial@phBoundBox@@UBEPBVphMaterial@@H@Z 0048d8b0 f   phbound:boundbox.obj
 0001:0008c8d0       ?SetSize@phBoundBox@@QAEXABVVector3@@@Z 0048d8d0 f   phbound:boundbox.obj
 0001:0008c970       ?CreateOffset@phBoundBox@@QAEXABVVector3@@@Z 0048d970 f   phbound:boundbox.obj
 0001:0008c9a0       ?ShiftCentroid@phBoundBox@@QAEXABVVector3@@@Z 0048d9a0 f   phbound:boundbox.obj
 0001:0008c9e0       ?ScaleSize@phBoundBox@@QAEXABVVector3@@@Z 0048d9e0 f   phbound:boundbox.obj
 0001:0008ca30       ?SetQuickTestInfo@phBoundBox@@QAEXXZ 0048da30 f   phbound:boundbox.obj
 0001:0008cad0       ?Load@phBoundBox@@QAE_NPBD@Z 0048dad0 f   phbound:boundbox.obj
 0001:0008cde0       ?GetEdgeNormal@phBoundBox@@UBEABVVector3@@HAAV2@@Z 0048dde0 f   phbound:boundbox.obj
 0001:0008ce00       ?FindImpactSphereToBox@phBoundBox@@QBEHPBVphBoundSphere@@ABVMatrix34@@1PAVphColliderBase@@2PAVphImpactBase@@ABVVector3@@4@Z 0048de00 f   phbound:boundbox.obj
 0001:0008d740       ?FindImpactsBoxToBox@phBoundBox@@QBEHPBV1@PBVMatrix34@@111PAVphColliderBase@@2PAVphImpactBase@@HABVVector3@@@Z 0048e740 f   phbound:boundbox.obj
 0001:0008e2c0       ?FindImpactsBoxToBoxOffset@phBoundBox@@QBEHPBV1@PBVMatrix34@@111PAVphColliderBase@@2PAVphImpactBase@@HABVVector3@@@Z 0048f2c0 f   phbound:boundbox.obj
 0001:0008ee80       ?AddEdgeChecks@phBoundBox@@CAXHH_N@Z 0048fe80 f   phbound:boundbox.obj
 0001:0008ef40       ?AvoidEdgeChecks@phBoundBox@@CAXHH_N@Z 0048ff40 f   phbound:boundbox.obj
 0001:0008efc0       ?AvoidEdgeChecks@phBoundBox@@CAXHH@Z 0048ffc0 f   phbound:boundbox.obj
 0001:0008f040       ?MakeTransformedCorners@phBoundBox@@CAXABVVector3@@0_N@Z 00490040 f   phbound:boundbox.obj
 0001:0008f310       ?FindFaceDots@phBoundBox@@CAXMPAH0@Z 00490310 f   phbound:boundbox.obj
 0001:0008f3c0       ?RemoveFaceDotZero@phBoundBox@@CAXXZ 004903c0 f   phbound:boundbox.obj
 0001:0008f460       ?CheckFourFaceDotPattern@phBoundBox@@CA_NXZ 00490460 f   phbound:boundbox.obj
 0001:0008f4c0       ?VerifyFaceDotPattern@phBoundBox@@CA_NXZ 004904c0 f   phbound:boundbox.obj
 0001:0008f510       ?RemoveFifthFaceDotZero@phBoundBox@@CAXXZ 00490510 f   phbound:boundbox.obj
 0001:0008f5f0       ?UseThisImpact@phBoundBox@@CA_NABVVector3@@0MPBVMatrix34@@111@Z 004905f0 f   phbound:boundbox.obj
 0001:0008f710       ?BoxToBoxFaceImpactsOffset@phBoundBox@@CAXABVVector3@@00PAVphImpactBase@@H_NPBVMatrix34@@333PAVphColliderBase@@4@Z 00490710 f   phbound:boundbox.obj
 0001:00090e00       ?BoxToBoxFaceImpacts@phBoundBox@@IBEXABVVector3@@PAVphImpactBase@@H_NPBVMatrix34@@333PAVphColliderBase@@4@Z 00491e00 f   phbound:boundbox.obj
 0001:00092370       ?TestEdge@phBoundBox@@UBEHAAVphSegment@@PAVphIntersection@@H@Z 00493370 f   phbound:boundbox.obj
 0001:00092a00       ?TestProbe@phBoundBox@@UBE_NAAVphSegment@@PAVphIntersection@@M@Z 00493a00 f   phbound:boundbox.obj
 0001:00092a50       ?TestProbePoint@phBoundBox@@UBE_NAAVphSegment@@PAVphIntersectionPoint@@M@Z 00493a50 f   phbound:boundbox.obj
 0001:00092a70       ?TestAIPoint@phBoundBox@@UBE_NAAVphSegment@@PAVphIntersectionPoint@@@Z 00493a70 f   phbound:boundbox.obj
 0001:00092a90       ?TestProbeSlave@phBoundBox@@IBE_NAAVphSegment@@PAVphIntersectionPoint@@PAJM@Z 00493a90 f   phbound:boundbox.obj
 0001:00092fa0       ?ProbeVsBox@phBoundBox@@SA_NABVVector3@@AAVphSegment@@PAVphIntersectionPoint@@PAJM@Z 00493fa0 f   phbound:boundbox.obj
 0001:00093490       ?Negate@Vector3@@QAEXABV1@@Z 00494490 f i phbound:boundbox.obj
 0001:000934b0       ??0phBoundHotdog@@QAE@XZ   004944b0 f   phbound:boundhotdog.obj
 0001:000934f0       ??0phBoundHotdog@@QAE@MM@Z 004944f0 f   phbound:boundhotdog.obj
 0001:00093530       ?SetSize@phBoundHotdog@@QAEXMM@Z 00494530 f   phbound:boundhotdog.obj
 0001:000935a0       ??1phBoundHotdog@@QAE@XZ   004945a0 f   phbound:boundhotdog.obj
 0001:000935b0       ?SetBoundingBox@phBoundHotdog@@QAEXMM@Z 004945b0 f   phbound:boundhotdog.obj
 0001:000935f0       ?ScaleBoundingBox@phBoundHotdog@@QAEXMM@Z 004945f0 f   phbound:boundhotdog.obj
 0001:00093630       ?CalculateBoundingBox@phBoundHotdog@@QAEXXZ 00494630 f   phbound:boundhotdog.obj
 0001:000936b0       ?CreateOffset@phBoundHotdog@@QAEXABVVector3@@@Z 004946b0 f   phbound:boundhotdog.obj
 0001:000936e0       ?ShiftCentroid@phBoundHotdog@@QAEXABVVector3@@@Z 004946e0 f   phbound:boundhotdog.obj
 0001:00093720       ?TestProbePoint@phBoundHotdog@@UBE_NAAVphSegment@@PAVphIntersectionPoint@@M@Z 00494720 f   phbound:boundhotdog.obj
 0001:000938b0       ?TestAIPoint@phBoundHotdog@@UBE_NAAVphSegment@@PAVphIntersectionPoint@@@Z 004948b0 f   phbound:boundhotdog.obj
 0001:00093a00       ?TestEdge@phBoundHotdog@@UBEHAAVphSegment@@PAVphIntersection@@H@Z 00494a00 f   phbound:boundhotdog.obj
 0001:00093cc0       ?TestProbe@phBoundHotdog@@UBE_NAAVphSegment@@PAVphIntersection@@M@Z 00494cc0 f   phbound:boundhotdog.obj
 0001:00093e60       ?TestSphere@phBoundHotdog@@UBE_NABVVector3@@MAAV2@1AAM@Z 00494e60 f   phbound:boundhotdog.obj
 0001:00094100       ?IsInsideHotdog@phBoundHotdog@@QBE_NABVVector3@@@Z 00495100 f   phbound:boundhotdog.obj
 0001:000941f0       ?SegmentToHotdogIntersections@phBoundHotdog@@QBEHABVVector3@@0PAM111PAH2@Z 004951f0 f   phbound:boundhotdog.obj
 0001:00094770       ?FindHotdogIsectNormal@phBoundHotdog@@QBE?AVVector3@@ABV2@H@Z 00495770 f   phbound:boundhotdog.obj
 0001:00094840       ?FindImpactSphereToHotdog@phBoundHotdog@@QBE_NPBVphBoundSphere@@PBVMatrix34@@1PAVphColliderBase@@2PAVphImpactBase@@ABVVector3@@@Z 00495840 f   phbound:boundhotdog.obj
 0001:00094ce0       ?FindImpactsHotdogToPoly@phBoundHotdog@@QBEHPBVphBoundPolygonal@@PBVMatrix34@@1PAVphColliderBase@@2PAVphImpactBase@@HABVVector3@@4@Z 00495ce0 f   phbound:boundhotdog.obj
 0001:00095d40       ?FindImpactsHotdogToHotdog@phBoundHotdog@@QBEHPBV1@PBVMatrix34@@1PAVphColliderBase@@2PAVphImpactBase@@H@Z 00496d40 f   phbound:boundhotdog.obj
 0001:00096510       ?DrawPhysics@phBoundHotdog@@UBEXABVVector3@@@Z 00497510 f   phbound:boundhotdog.obj
 0001:000968f0       ?Load@phBoundHotdog@@QAE_NPBD@Z 004978f0 f   phbound:boundhotdog.obj
 0001:00096c90       ?AddScaled@Vector3@@QAEXABV1@0M@Z 00497c90 f i phbound:boundhotdog.obj
 0001:00096cc0       ?GetMaterial@phBoundHotdog@@UBEPBVphMaterial@@H@Z 00497cc0 f i phbound:boundhotdog.obj
 0001:00096cd0       ??0phBoundSphere@@QAE@XZ   00497cd0 f   phbound:boundsphere.obj
 0001:00096d00       ??0phBoundSphere@@QAE@M@Z  00497d00 f   phbound:boundsphere.obj
 0001:00096d70       ??1phBoundSphere@@QAE@XZ   00497d70 f   phbound:boundsphere.obj
 0001:00096d80       ?SetRadius@phBoundSphere@@QAEXM@Z 00497d80 f   phbound:boundsphere.obj
 0001:00096dc0       ?ScaleRadius@phBoundSphere@@QAEXM@Z 00497dc0 f   phbound:boundsphere.obj
 0001:00096e00       ?CreateOffset@phBoundSphere@@QAEXABVVector3@@@Z 00497e00 f   phbound:boundsphere.obj
 0001:00096e30       ?ShiftCentroid@phBoundSphere@@QAEXABVVector3@@@Z 00497e30 f   phbound:boundsphere.obj
 0001:00096ed0       ?Load@phBoundSphere@@QAE_NPBD@Z 00497ed0 f   phbound:boundsphere.obj
 0001:00097250       ?FindImpactSphereToSphere@phBoundSphere@@QBE_NPBV1@PBVMatrix34@@1PAVphColliderBase@@2PAVphImpactBase@@ABVVector3@@@Z 00498250 f   phbound:boundsphere.obj
 0001:00097430       ?TestProbePoint@phBoundSphere@@UBE_NAAVphSegment@@PAVphIntersectionPoint@@M@Z 00498430 f   phbound:boundsphere.obj
 0001:000975e0       ?TestAIPoint@phBoundSphere@@UBE_NAAVphSegment@@PAVphIntersectionPoint@@@Z 004985e0 f   phbound:boundsphere.obj
 0001:00097780       ?TestEdge@phBoundSphere@@UBEHAAVphSegment@@PAVphIntersection@@H@Z 00498780 f   phbound:boundsphere.obj
 0001:00097aa0       ?TestProbe@phBoundSphere@@UBE_NAAVphSegment@@PAVphIntersection@@M@Z 00498aa0 f   phbound:boundsphere.obj
 0001:00097c70       ?TestSphere@phBoundSphere@@UBE_NABVVector3@@MAAV2@1AAM@Z 00498c70 f   phbound:boundsphere.obj
 0001:00097d40       ?TestSphere@phBoundSphere@@UBE_NABVVector3@@MAAVphImpactBase@@@Z 00498d40 f   phbound:boundsphere.obj
 0001:00097e60       ?DrawPhysics@phBoundSphere@@UBEXABVVector3@@@Z 00498e60 f   phbound:boundsphere.obj
 0001:00098000       ?GetMaterial@phBoundSphere@@UBEPBVphMaterial@@H@Z 00499000 f i phbound:boundsphere.obj
 0001:00098010       ??0phBoundGeometry@@QAE@XZ 00499010 f   phbound:boundgeom.obj
 0001:00098050       ??1phBoundGeometry@@QAE@XZ 00499050 f   phbound:boundgeom.obj
 0001:000980a0       ?Init@phBoundGeometry@@QAEXHHHH@Z 004990a0 f   phbound:boundgeom.obj
 0001:000981d0       ?PostLoadCompute@phBoundGeometry@@UAEXXZ 004991d0 f   phbound:boundgeom.obj
 0001:000981fb       ?Load@phBoundGeometry@@QAE_NPBDPBVVector3@@@Z 004991fb f   phbound:boundgeom.obj
 0001:00098bba       ?Save@phBoundGeometry@@QAE_NPBD@Z 00499bba f   phbound:boundgeom.obj
 0001:00098e4a       ?LoadBinary@phBoundGeometry@@QAE_NPBD@Z 00499e4a f   phbound:boundgeom.obj
 0001:000990da       ?SaveBinary@phBoundGeometry@@QAE_NPBD@Z 0049a0da f   phbound:boundgeom.obj
 0001:0009920a       ?ScaleSize@phBoundGeometry@@QAEXMMM@Z 0049a20a f   phbound:boundgeom.obj
 0001:000992ea       ?ShiftCentroid@phBoundGeometry@@QAEXABVVector3@@@Z 0049a2ea f   phbound:boundgeom.obj
 0001:0009933a       ?WeldVertices@phBoundGeometry@@QAE_NXZ 0049a33a f   phbound:boundgeom.obj
 0001:00099d2a       ?ConvertTrianglesToQuads@phBoundGeometry@@QAE_NXZ 0049ad2a f   phbound:boundgeom.obj
 0001:0009a53a       ?EdgeHasTheseVerts@phBoundGeometry@@QAE_NHHH@Z 0049b53a f   phbound:boundgeom.obj
 0001:0009a58a       ?ComputeEdges@phBoundGeometry@@QAEXXZ 0049b58a f   phbound:boundgeom.obj
 0001:0009a7ca       ?EdgeInList@phBoundGeometry@@KAJHHJPAVphHotEdge@@@Z 0049b7ca f   phbound:boundgeom.obj
 0001:0009a81a       ?ComputeEdgeNums@phBoundGeometry@@QAEXXZ 0049b81a f   phbound:boundgeom.obj
 0001:0009a8fa       ?ComputeEdgeNormals@phBoundGeometry@@QAEXXZ 0049b8fa f   phbound:boundgeom.obj
 0001:0009a97a       ?ReComputeEdgeNormals@phBoundGeometry@@QAEXXZ 0049b97a f   phbound:boundgeom.obj
 0001:0009ad6a       ?SetQuickTestInfo@phBoundGeometry@@QAEXXZ 0049bd6a f   phbound:boundgeom.obj
 0001:0009ae3a       ?CalculatePolyNormals@phBoundGeometry@@QAEXXZ 0049be3a f   phbound:boundgeom.obj
 0001:0009ae6a       ?OverlapRegion@phBoundGeometry@@QAE_NPBVVector3@@HMM@Z 0049be6a f   phbound:boundgeom.obj
 0001:0009af5a       ?GhostSection@phBoundGeometry@@QAE_NPBV1@PBVVector3@@HMM@Z 0049bf5a f   phbound:boundgeom.obj
 0001:0009b400       ?GetMaterial@phBoundGeometry@@UBEPBVphMaterial@@H@Z 0049c400 f i phbound:boundgeom.obj
 0001:0009b410       ??0phBound@@QAE@H@Z        0049c410 f   phbound:bound.obj
 0001:0009b470       ?CalculateSphereFromBoundingBox@phBound@@QAEXXZ 0049c470 f   phbound:bound.obj
 0001:0009b510       ?CenterBound@phBound@@UAEXXZ 0049c510 f   phbound:bound.obj
 0001:0009b520       ?IsOffset@phBound@@QBE?B_NXZ 0049c520 f   phbound:bound.obj
 0001:0009b530       ?SetOffset@phBound@@QAEXABVVector3@@@Z 0049c530 f   phbound:bound.obj
 0001:0009b590       ?GetCenter@phBound@@QBEXPBVMatrix34@@PAVVector3@@@Z 0049c590 f   phbound:bound.obj
 0001:0009b610       ?GetCenter@phBound@@QBE?AVVector3@@PBVMatrix34@@@Z 0049c610 f   phbound:bound.obj
 0001:0009b6c0       ?SetPenetration@phBound@@QAEXXZ 0049c6c0 f   phbound:bound.obj
 0001:0009b740       ?SetFlexibility@phBound@@QAEXM@Z 0049c740 f   phbound:bound.obj
 0001:0009b770       ?GetFricElas@phBound@@SAXPBV1@PBVphIntersection@@01PAM2@Z 0049c770 f   phbound:bound.obj
 0001:0009b7e0       ?GetFricElas@phBound@@QBEXPBVphIntersection@@PAM1@Z 0049c7e0 f   phbound:bound.obj
 0001:0009b850       ?TestSegment@phBound@@QBEHAAVphSegment@@PAVphIntersection@@H@Z 0049c850 f   phbound:bound.obj
 0001:0009b8e0       ?TestSegmentPoint@phBound@@QBEHAAVphSegment@@PAVphIntersectionPoint@@H@Z 0049c8e0 f   phbound:bound.obj
 0001:0009b980       ?TestSphere@phBound@@UBE_NABVVector3@@MAAV2@1AAM@Z 0049c980 f   phbound:bound.obj
 0001:0009b990       ?TestSphere@phBound@@UBE_NABVVector3@@MAAVphImpactBase@@@Z 0049c990 f   phbound:bound.obj
 0001:0009ba20       ?GetVertex@phBound@@UBEABVVector3@@H@Z 0049ca20 f   phbound:bound.obj
 0001:0009ba40       ?DrawPhysics@phBound@@UBEXABVVector3@@@Z 0049ca40 f i phbound:bound.obj
 0001:0009ba70       ?BackupDispByPenetration@phBoundPolygonal@@KAXAAVVector3@@ABV2@M@Z 0049ca70 f   phbound:boundpolygonal.obj
 0001:0009bb50       ?MaxDot@phBoundPolygonal@@QBEMABVVector3@@ABVMatrix34@@AAV2@@Z 0049cb50 f   phbound:boundpolygonal.obj
 0001:0009bc20       ?MinDot@phBoundPolygonal@@QBEMABVVector3@@ABVMatrix34@@AAV2@@Z 0049cc20 f   phbound:boundpolygonal.obj
 0001:0009bc60       ?CenterBound@phBoundPolygonal@@UAEXXZ 0049cc60 f   phbound:boundpolygonal.obj
 0001:0009bcb0       ?DrawPhysics@phBoundPolygonal@@UBEXABVVector3@@@Z 0049ccb0 f   phbound:boundpolygonal.obj
 0001:0009c0a0       ?TestSphere@phBoundPolygonal@@UBE_NABVVector3@@MAAV2@1AAM@Z 0049d0a0 f   phbound:boundpolygonal.obj
 0001:0009c0d0       ?FindImpactsSphereToPoly@phBoundPolygonal@@QBEHPBVphBoundSphere@@PBVMatrix34@@1PAVphColliderBase@@2PAVphImpactBase@@HABVVector3@@4@Z 0049d0d0 f   phbound:boundpolygonal.obj
 0001:0009c5b0       ?TestBoundPolyPoly@phBoundPolygonal@@UBEHPBV1@PBVMatrix34@@111PAVphColliderBase@@2PAVphIntersection@@3HPAH4ABVVector3@@_N@Z 0049d5b0 f   phbound:boundpolygonal.obj
 0001:0009c6d0       ?TestBoundPolyPolyUseDot@phBoundPolygonal@@UBEHPBV1@PAVphColliderBase@@PBVMatrix34@@222PAVphIntersection@@HPAHMPBVVector3@@_N@Z 0049d6d0 f   phbound:boundpolygonal.obj
 0001:0009caa0       ?RewindSegments@phBoundPolygonal@@QBEX_NPBVMatrix34@@111PAV2@2AAH3@Z 0049daa0 f   phbound:boundpolygonal.obj
 0001:0009cb30       ?RewindSegments@phBoundPolygonal@@QBEX_NPBVMatrix34@@1PAV2@2AAH3@Z 0049db30 f   phbound:boundpolygonal.obj
 0001:0009cb80       ?GetNextSegment@phBoundPolygonal@@QBEHAAVphSegment@@PAJPBVMatrix34@@2AAH3@Z 0049db80 f   phbound:boundpolygonal.obj
 0001:0009cd70       ?GetNextSegment@phBoundPolygonal@@QBEHAAVphSegment@@PAJPBVMatrix34@@2MPBVVector3@@PAEPAV4@AAH6@Z 0049dd70 f   phbound:boundpolygonal.obj
 0001:0009cfe0       ?BackupAbyPenetration@phBoundPolygonal@@SAXAAVphSegment@@@Z 0049dfe0 f   phbound:boundpolygonal.obj
 0001:0009d0c0       ?MakeBsInside@phBoundPolygonal@@KAXPAVphIntersection@@H@Z 0049e0c0 f   phbound:boundpolygonal.obj
 0001:0009d1d0       ?CheckSaveEdgeEdge@phBoundPolygonal@@KAXPAVphIntersection@@H_N1ABVVector3@@22MM1MM@Z 0049e1d0 f   phbound:boundpolygonal.obj
 0001:0009d370       ?GetCollideEdgePoly@phBoundPolygonal@@KA_NPBVphIntersection@@ABVVector3@@ABVMatrix34@@21PAV3@3PAMPAHPA_N@Z 0049e370 f   phbound:boundpolygonal.obj
 0001:0009da50       ?AddInteriorEdges@phBoundPolygonal@@IBEHPAVphIntersection@@H0HH@Z 0049ea50 f   phbound:boundpolygonal.obj
 0001:0009dcf0       ?GetNextEdgeIsect@phBoundPolygonal@@KAXAAHAAPAVphIntersection@@_N@Z 0049ecf0 f   phbound:boundpolygonal.obj
 0001:0009dd20       ?DoEndPtSearch@phBoundPolygonal@@KAXPBVphBound@@PBVMatrix34@@111PAVphColliderBase@@2HPAVphIntersection@@HPAPAVphImpactBase@@AAH_N@Z 0049ed20 f   phbound:boundpolygonal.obj
 0001:0009e4f0       ?RetryVertPolyCollide@phBoundPolygonal@@KAXPBVphBound@@PAVphColliderBase@@1PAVphIntersection@@HPAPAVphImpactBase@@PAH_N@Z 0049f4f0 f   phbound:boundpolygonal.obj
 0001:0009e690       ?FindImpactsPolyToPoly@phBoundPolygonal@@QBEHPBV1@PBVMatrix34@@111PAVphColliderBase@@2PAVphIntersection@@3PAVphImpactBase@@HHPAH5@Z 0049f690 f   phbound:boundpolygonal.obj
 0001:0009e980       ?FindImpacts@phBoundPolygonal@@IBEHPBVphBound@@PBVMatrix34@@111PAVphColliderBase@@2PAVphIntersection@@3HHPAVphImpactBase@@H@Z 0049f980 f   phbound:boundpolygonal.obj
 0001:0009fbe0       ?ResetVertNeedsH@phBoundPolygonal@@KAXPAVphIntersection@@0_N1@Z 004a0be0 f   phbound:boundpolygonal.obj
 0001:0009fc20       ?ResetVertNeedsH@phBoundPolygonal@@KAXPAVphIntersection@@0_N1M@Z 004a0c20 f   phbound:boundpolygonal.obj
 0001:0009fcb0       ?TestProbePoint@phBoundPolygonal@@UBE_NAAVphSegment@@PAVphIntersectionPoint@@M@Z 004a0cb0 f   phbound:boundpolygonal.obj
 0001:0009fd20       ?TestAIPoint@phBoundPolygonal@@UBE_NAAVphSegment@@PAVphIntersectionPoint@@@Z 004a0d20 f   phbound:boundpolygonal.obj
 0001:0009fd90       ?TestProbe@phBoundPolygonal@@UBE_NAAVphSegment@@PAVphIntersection@@M@Z 004a0d90 f   phbound:boundpolygonal.obj
 0001:0009fe00       ?TestEdge@phBoundPolygonal@@UBEHAAVphSegment@@PAVphIntersection@@H@Z 004a0e00 f   phbound:boundpolygonal.obj
 0001:0009ff70       ?GetAllSegments@phBoundPolygonal@@QBEXMPAUDispSegment@1@PAUSegment@1@ABVMatrix34@@2MABVVector3@@PAEPAVVector4@@AAH6@Z 004a0f70 f   phbound:boundpolygonal.obj
 0001:000a0180       ?TestBoundPolyPolyUseDotSmall@phBoundPolygonal@@UBEHPBV1@PAVphColliderBase@@PBVMatrix34@@222PAVphIntersection@@PAHMABVVector3@@_N@Z 004a1180 f   phbound:boundpolygonal.obj
 0001:000a0be0       ??0phBoundTerrain@@QAE@XZ  004a1be0 f   phbound:boundterrain.obj
 0001:000a0c80       ??1phBoundTerrain@@QAE@XZ  004a1c80 f   phbound:boundterrain.obj
 0001:000a0d20       ?SetHotEdges@phBoundTerrain@@QAEX_N@Z 004a1d20 f   phbound:boundterrain.obj
 0001:000a0d80       ?PostLoadCompute@phBoundTerrain@@UAEXXZ 004a1d80 f   phbound:boundterrain.obj
 0001:000a0d90       ?Load@phBoundTerrain@@QAE_NPBD@Z 004a1d90 f   phbound:boundterrain.obj
 0001:000a1210       ?Save@phBoundTerrain@@QAE_NPBD@Z 004a2210 f   phbound:boundterrain.obj
 0001:000a1420       ?TestBoundTerrainPoly@phBoundTerrain@@QBEHPBVphBoundPolygonal@@PBVMatrix34@@1PAVphColliderBase@@2PAVphIntersection@@3HPAH4ABVVector3@@_N@Z 004a2420 f   phbound:boundterrain.obj
 0001:000a14e0       ?TestBoundTerrainEdgesVsPoly@phBoundTerrain@@QBEHPBVphBoundPolygonal@@PAVphColliderBase@@PBVMatrix34@@PAVphIntersection@@HPAH@Z 004a24e0 f   phbound:boundterrain.obj
 0001:000a18a0       ?TestBoundPolyTerrain@phBoundTerrain@@QBEHPBVphBoundPolygonal@@PAVphColliderBase@@PBVMatrix34@@2PAVphIntersection@@HPAHPBVVector3@@_N@Z 004a28a0 f   phbound:boundterrain.obj
 0001:000a2c10       ?TestSphere@phBoundTerrain@@UBE_NABVVector3@@MAAV2@1AAM@Z 004a3c10 f   phbound:boundterrain.obj
 0001:000a2e70       ?DrawPhysics@phBoundTerrain@@UBEXABVVector3@@@Z 004a3e70 f   phbound:boundterrain.obj
 0001:000a3460       ?InitPolyIterator@phBoundTerrain@@QBEXABVVector3@@M@Z 004a4460 f   phbound:boundterrain.obj
 0001:000a39a0       ?InitPolyIterator@phBoundTerrain@@QBEXABVphSegment@@@Z 004a49a0 f   phbound:boundterrain.obj
 0001:000a3de0       ?ClearPolyTouched@phBoundTerrain@@QBEXXZ 004a4de0 f   phbound:boundterrain.obj
 0001:000a3e20       ?TestAIPoint@phBoundTerrain@@UBE_NAAVphSegment@@PAVphIntersectionPoint@@@Z 004a4e20 f   phbound:boundterrain.obj
 0001:000a3f20       ?TestProbePoint@phBoundTerrain@@UBE_NAAVphSegment@@PAVphIntersectionPoint@@M@Z 004a4f20 f   phbound:boundterrain.obj
 0001:000a44c0       ?TestProbe@phBoundTerrain@@UBE_NAAVphSegment@@PAVphIntersection@@M@Z 004a54c0 f   phbound:boundterrain.obj
 0001:000a4ad0       ?TestEdge@phBoundTerrain@@UBEHAAVphSegment@@PAVphIntersection@@H@Z 004a5ad0 f   phbound:boundterrain.obj
 0001:000a5220       ?CalculateBuckets@phBoundTerrain@@IBEXMMMM@Z 004a6220 f   phbound:boundterrain.obj
 0001:000a5b90       ?FindImpactsSphereToTerrain@phBoundTerrain@@QBEHPBVphBoundSphere@@PBVMatrix34@@1PAVphColliderBase@@2PAVphImpactBase@@HABVVector3@@4@Z 004a6b90 f   phbound:boundterrain.obj
 0001:000a6180       ?FindImpactsHotdogToTerrain@phBoundTerrain@@QBEHPBVphBoundHotdog@@PBVMatrix34@@1PAVphColliderBase@@2PAVphImpactBase@@HABVVector3@@4@Z 004a7180 f   phbound:boundterrain.obj
 0001:000a7070       ?PackNormal@phBoundTerrain@@SAXAAIABVVector4@@@Z 004a8070 f   phbound:boundterrain.obj
 0001:000a7100       ?UnpackNormal@phBoundTerrain@@SAXAAVVector4@@I@Z 004a8100 f   phbound:boundterrain.obj
 0001:000a7170       ??0phBoundTerrainLocal@@QAE@XZ 004a8170 f   phbound:boundterrainlocal.obj
 0001:000a7190       ?TestBoundTerrainPoly@phBoundTerrainLocal@@QBEHPBVphBoundPolygonal@@PBVMatrix34@@11PAVphColliderBase@@2PAVphIntersection@@3HPAH4ABVVector3@@_N@Z 004a8190 f   phbound:boundterrainlocal.obj
 0001:000a7250       ?TestBoundTerrainEdgesVsPoly@phBoundTerrainLocal@@QBEHPBVphBoundPolygonal@@PAVphColliderBase@@PBVMatrix34@@2PAVphIntersection@@HPAH@Z 004a8250 f   phbound:boundterrainlocal.obj
 0001:000a7270       ?TestBoundPolyTerrain@phBoundTerrainLocal@@QBEHPBVphBoundPolygonal@@PAVphColliderBase@@PBVMatrix34@@22PAVphIntersection@@HPAHPBVVector3@@_N@Z 004a8270 f   phbound:boundterrainlocal.obj
 0001:000a7280       ?FindImpactsHotdogToTerrainLocal@phBoundTerrainLocal@@QBEHPBVphBoundHotdog@@PBVMatrix34@@1PAVphColliderBase@@2PAVphImpactBase@@HABVVector3@@4@Z 004a8280 f   phbound:boundterrainlocal.obj
 0001:000a8270       ?DrawPhysics@phBoundTerrainLocal@@UBEXABVVector3@@@Z 004a9270 f   phbound:boundterrainlocal.obj
 0001:000a8870       ?SegSegDistNorm@phBoundCollision@@SAXABVVector3@@00000AAV2@11AAMAAH@Z 004a9870 f   phbound:collision.obj
 0001:000a8c80       ?GetDisp@phBoundCollision@@SAXPBVMatrix34@@0ABVVector3@@AAV3@@Z 004a9c80 f   phbound:collision.obj
 0001:000a8d70       ?SetPenetration@phBoundCollision@@SAXM@Z 004a9d70 f   phbound:collision.obj
 0001:000a8d90       ?testNoOverlap@phBoundCollision@@CAHQBM0@Z 004a9d90 f i phbound:collision.obj
 0001:000a8e00       ??GVector3@@QBE?AV0@ABV0@@Z 004a9e00 f i phbound:collision.obj
 0001:000a8e40       ??KVector3@@QBE?AV0@M@Z    004a9e40 f i phbound:collision.obj
 0001:000a8e80       ??D@YA?AVVector3@@MABV0@@Z 004a9e80 f i phbound:collision.obj
 0001:000a8ec0       ?StartMakingNewImpact@phImpactBase@@QAEXMABVVector3@@0PAVphColliderBase@@1PBVMatrix34@@HHH@Z 004a9ec0 f   phbound:impact.obj
 0001:000a8fd0       ?FinishMakingNewImpact@phImpactBase@@QAEXHHPAVphColliderBase@@0PBVphBound@@1H@Z 004a9fd0 f   phbound:impact.obj
 0001:000a9070       ?MakeNewImpact@phImpactBase@@QAEXPAVphColliderBase@@0ABVVector3@@1MPBVphBound@@2HHH@Z 004aa070 f   phbound:impact.obj
 0001:000a9140       ?AddImpactSpherePlaneTest@phImpactBase@@SA_NPAV1@PAHABVVector3@@M@Z 004aa140 f   phbound:impact.obj
 0001:000a9400       ?AddImpactShaftPlaneTest@phImpactBase@@SA_NPAV1@PAHABVVector3@@M2@Z 004aa400 f   phbound:impact.obj
 0001:000a9800       ?SetColliders@phImpactBase@@QAEXPAVphColliderBase@@0@Z 004aa800 f   phbound:impact.obj
 0001:000a9820       ?SetColliders@phImpactBase@@QAEXPAVphColliderBase@@0HH@Z 004aa820 f   phbound:impact.obj
 0001:000a9840       ?SetComponentA@phImpactBase@@QAEXH@Z 004aa840 f   phbound:impact.obj
 0001:000a9850       ?SetComponentB@phImpactBase@@QAEXH@Z 004aa850 f   phbound:impact.obj
 0001:000a9860       ?SetColliders@phImpactBase@@SAXPAVphColliderBase@@0PAV1@H@Z 004aa860 f   phbound:impact.obj
 0001:000a98a0       ?SwapColliders@phImpactBase@@QAEXXZ 004aa8a0 f   phbound:impact.obj
 0001:000a98f0       ?CullImpactList@phImpactBase@@SAXPAV1@PAHABVVector3@@@Z 004aa8f0 f   phbound:impact.obj
 0001:000a9a10       ?ImpactIsInList@phImpactBase@@SA_NHHHPAV1@H@Z 004aaa10 f   phbound:impact.obj
 0001:000a9af0       ?Reset@phImpactBase@@QAEXXZ 004aaaf0 f   phbound:impact.obj
 0001:000a9b20       ?DebugReplay@phImpactBase@@QAEXXZ 004aab20 f   phbound:impact.obj
 0001:000a9c00       ?SphereToPolygonal@phCollisionPrim@@SA_NABVVector3@@MPBVphBoundPolygonal@@AAV2@2AAM@Z 004aac00 f   phbound:collisionprim.obj
 0001:000a9dd0       ?SphereToPolygonal@phCollisionPrim@@SA_NABVVector3@@MPBVphBoundPolygonal@@ABVMatrix34@@AAV2@3AAM@Z 004aadd0 f   phbound:collisionprim.obj
 0001:000aa080       ?SegmentToSphere@phCollisionPrim@@SA_NABVVector3@@MABVphSegment@@PAVphIntersectionPoint@@@Z 004ab080 f   phbound:collisionprim.obj
 0001:000aa290       ?SegmentSphereTest@phCollisionPrim@@SA_NABVVector3@@M00@Z 004ab290 f   phbound:collisionprim.obj
 0001:000aa380       ?SegmentSphereTest@phCollisionPrim@@SA_NABVVector3@@MABVphSegment@@@Z 004ab380 f   phbound:collisionprim.obj
 0001:000aa480       ?SegmentSphereTest@phCollisionPrim@@SA_NMABVphSegment@@@Z 004ab480 f   phbound:collisionprim.obj
 0001:000aa580       ?SegmentSphereTest@phCollisionPrim@@SA_NMABVVector3@@0@Z 004ab580 f   phbound:collisionprim.obj
 0001:000aa670       ??0phMaterial@@QAE@XZ      004ab670 f   phcore:material.obj
 0001:000aa6d0       ?SetName@phMaterial@@QAEXPBD@Z 004ab6d0 f   phcore:material.obj
 0001:000aa6f0       ?Load@phMaterial@@QAEXAAVdatAsciiTokenizer@@@Z 004ab6f0 f   phcore:material.obj
 0001:000aa7e0       ?Save@phMaterial@@UAEXAAVdatAsciiTokenizer@@@Z 004ab7e0 f   phcore:material.obj
 0001:000aa8f0       ?Copy@phMaterial@@UAEXABV1@@Z 004ab8f0 f   phcore:material.obj
 0001:000aa920       ?LoadBinary@phMaterial@@QAEXPAVStream@@@Z 004ab920 f   phcore:material.obj
 0001:000aa9c0       ?SaveBinary@phMaterial@@UAEXPAVStream@@@Z 004ab9c0 f   phcore:material.obj
 0001:000aaaa0       ?CreateInstance@phMaterialMgr@@SAAAV1@H@Z 004abaa0 f   phcore:material.obj
 0001:000aab20       ??0phMaterialMgr@@IAE@XZ   004abb20 f   phcore:material.obj
 0001:000aab80       ??0phMaterialMgr@@IAE@PAVphMaterial@@H@Z 004abb80 f   phcore:material.obj
 0001:000aac80       ??1phMaterialMgr@@QAE@XZ   004abc80 f   phcore:material.obj
 0001:000aad20       ?Find@phMaterialMgr@@QAEPAVphMaterial@@PBD@Z 004abd20 f   phcore:material.obj
 0001:000aad40       ?AddToTable@phMaterialMgr@@QAEXPAVphMaterial@@@Z 004abd40 f   phcore:material.obj
 0001:000aad60       ?LoadTable@phMaterialMgr@@QAE_NPBD@Z 004abd60 f   phcore:material.obj
 0001:000aae10       ?Load@phMaterialMgr@@UAEPAVphMaterial@@PAVdatAsciiTokenizer@@@Z 004abe10 f   phcore:material.obj
 0001:000aaeb0       ?Load@phMaterialMgr@@UAEPAVphMaterial@@PAVStream@@@Z 004abeb0 f   phcore:material.obj
 0001:000aaf50       ?Save@phMaterialMgr@@QAEXPAVphMaterial@@PAVdatAsciiTokenizer@@@Z 004abf50 f   phcore:material.obj
 0001:000aaf90       ?FindNameOfIndex@phMaterialMgr@@QAEPBDH@Z 004abf90 f   phcore:material.obj
 0001:000aafc0       ?FindIndexOfName@phMaterialMgr@@QAEHPBD@Z 004abfc0 f   phcore:material.obj
 0001:000ab090       ?AddLine@phLine@@SAXABVVector3@@0I@Z 004ac090 f   phcore:line.obj
 0001:000ab200       ?AddBox@phLine@@SAXABVVector3@@ABVMatrix34@@I@Z 004ac200 f   phcore:line.obj
 0001:000ab570       ?DrawLines@phLine@@SAX_N@Z 004ac570 f   phcore:line.obj
 0001:000ab640       ?AddSphere@phLine@@SAXABVVector3@@MIH@Z 004ac640 f   phcore:line.obj
 0001:000ab840       ??0phPolygon@@QAE@XZ       004ac840 f   phcore:poly.obj
 0001:000ab890       ?InitTriangle@phPolygon@@QAEXGGGPBVVector3@@@Z 004ac890 f   phcore:poly.obj
 0001:000ab8c0       ?InitQuad@phPolygon@@QAEXGGGGPBVVector3@@@Z 004ac8c0 f   phcore:poly.obj
 0001:000ab920       ?Rotate@phPolygon@@QAEXXZ  004ac920 f   phcore:poly.obj
 0001:000ab9f0       ?CalculateNormal@phPolygon@@QAEXPBVVector3@@@Z 004ac9f0 f   phcore:poly.obj
 0001:000abbb0       ?ComputeEdgeNormalCross@phPolygon@@IAEXPAVVector4@@PBVVector3@@@Z 004acbb0 f   phcore:poly.obj
 0001:000abcf0       ?TestSegmentDirected@phPolygon@@QBEHPBVVector3@@ABVphSegment@@PAVphIntersectionPoint@@M@Z 004accf0 f   phcore:poly.obj
 0001:000ac070       ?TestSegmentUndirected@phPolygon@@QBEHPBVVector3@@ABVphSegment@@PAVphIntersectionPoint@@MM@Z 004ad070 f   phcore:poly.obj
 0001:000ac420       ?DetectSegmentDirected@phPolygon@@QBEHPBVVector3@@ABV2@1@Z 004ad420 f   phcore:poly.obj
 0001:000ac740       ?DetectSegmentUndirected@phPolygon@@QBEHPBVVector3@@ABVVector4@@1@Z 004ad740 f   phcore:poly.obj
 0001:000aca70       ?SegEdgeCheckUndirected@phPolygon@@KA_NABVVector3@@00ABVVector4@@1@Z 004ada70 f i phcore:poly.obj
 0001:000acb30       ?SegEdgeCheckDirected@phPolygon@@KA_NABVVector3@@00ABVVector4@@1@Z 004adb30 f i phcore:poly.obj
 0001:000acc00       ?Lerp@Vector3@@QAEXMABV1@0@Z 004adc00 f i phcore:poly.obj
 0001:000acc40       ?Subtract@Vector4@@QAEXABVVector3@@0@Z 004adc40 f i phcore:poly.obj
 0001:000acc70       ?Dot3@Vector4@@QBEMABV1@@Z 004adc70 f i phcore:poly.obj
 0001:000acc90       ?Cross@Vector4@@QAEXABV1@0@Z 004adc90 f i phcore:poly.obj
 0001:000acce0       ?Transform@phIntersectionPoint@@QAEXPBVMatrix34@@@Z 004adce0 f   phcore:isectpoint.obj
 0001:000acd90       ?Set@phIntersectionPoint@@QAEXABVVector3@@0MME@Z 004add90 f   phcore:isectpoint.obj
 0001:000acde0       ?DebugReplay@phIntersectionPoint@@QAEXXZ 004adde0 f   phcore:isectpoint.obj
 0001:000ace50       ?AngleToMatrix@@YAXABVVector3@@PAVMatrix34@@@Z 004ade50 f   phcore:phmath.obj
 0001:000acf50       ?QuaternionToMatrix@@YAXABVQuaternion@@PAVMatrix34@@@Z 004adf50 f   phcore:phmath.obj
 0001:000ad020       ?CreateRotatedMatrix@@YA?AVMatrix34@@ABVVector3@@0@Z 004ae020 f   phcore:phmath.obj
 0001:000ad100       ?RotateMatrix@@YAXPAVMatrix34@@ABVVector3@@@Z 004ae100 f   phcore:phmath.obj
 0001:000ad180       ?ReOrderVerts@@YAXPAVVector3@@PAM@Z 004ae180 f   phcore:phmath.obj
 0001:000ad210       ?VertOrderIsOK@@YA_NPBVVector3@@@Z 004ae210 f   phcore:phmath.obj
 0001:000ad2c0       ?CubeRoot@@YAMM@Z          004ae2c0 f   phcore:phmath.obj
 0001:000ad310       ?ArcTangent@@YAMMM@Z       004ae310 f   phcore:phmath.obj
 0001:000ad370       ?RealQuadratic@@YAHMMPAM0M@Z 004ae370 f   phcore:phmath.obj
 0001:000ad3f0       ?RealCubic@@YAHMMMPAM00M@Z 004ae3f0 f   phcore:phmath.obj
 0001:000ad5c0       ?RealQuartic@@YAHMMMMPAM000M@Z 004ae5c0 f   phcore:phmath.obj
 0001:000adae0       ?FindTValuesLineToCircle@@YAHABVVector3@@000MPAMPAV1@1121@Z 004aeae0 f   phcore:phmath.obj
 0001:000ade00       ?FindHomingAccel@@YAMMMMMM@Z 004aee00 f   phcore:phmath.obj
 0001:000ade80       ?FindHomingAccel3D@@YA?AVVector3@@MABV1@000@Z 004aee80 f   phcore:phmath.obj
 0001:000adf20       ?FindHomingAngAccel@@YA?AVVector3@@ABV1@0MM@Z 004aef20 f   phcore:phmath.obj
 0001:000ae090       ?FindHomingAngAccel3D@@YA?AVVector3@@MMABVMatrix34@@ABV1@01@Z 004af090 f   phcore:phmath.obj
 0001:000ae2d0       ?Set@Matrix33@@QAEXABV1@@Z 004af2d0 f   phcore:phmath.obj
 0001:000ae310       ?Add@Matrix33@@QAEXABV1@@Z 004af310 f   phcore:phmath.obj
 0001:000ae370       ?Add@Matrix33@@QAEXABV1@0@Z 004af370 f   phcore:phmath.obj
 0001:000ae3d0       ?Subtract@Matrix33@@QAEXABV1@@Z 004af3d0 f   phcore:phmath.obj
 0001:000ae430       ?Subtract@Matrix33@@QAEXABV1@0@Z 004af430 f   phcore:phmath.obj
 0001:000ae490       ?IsZero@Matrix33@@QBE_NXZ  004af490 f   phcore:phmath.obj
 0001:000ae530       ?Dot@Matrix33@@QAEXABV1@@Z 004af530 f   phcore:phmath.obj
 0001:000ae650       ?Dot@Matrix33@@QAEXABV1@0@Z 004af650 f   phcore:phmath.obj
 0001:000ae740       ?DotCrossProdMtx@Matrix33@@QAEXABVVector3@@@Z 004af740 f   phcore:phmath.obj
 0001:000ae7f0       ?CrossProduct@Matrix33@@QAEXABVVector3@@@Z 004af7f0 f   phcore:phmath.obj
 0001:000ae830       ?Diagonal@Matrix33@@QAEXM@Z 004af830 f   phcore:phmath.obj
 0001:000ae860       ?Diagonal@Matrix33@@QAEXABVVector3@@@Z 004af860 f   phcore:phmath.obj
 0001:000ae890       ?Negate@Matrix33@@QAEXXZ   004af890 f   phcore:phmath.obj
 0001:000ae8e0       ?Transpose@Matrix33@@QAEXXZ 004af8e0 f   phcore:phmath.obj
 0001:000ae910       ?Transpose@Matrix33@@QAEXABV1@@Z 004af910 f   phcore:phmath.obj
 0001:000ae950       ?Inverse@Matrix33@@QAEXXZ  004af950 f   phcore:phmath.obj
 0001:000aea70       ?Inverse@Matrix33@@QAEXABV1@@Z 004afa70 f   phcore:phmath.obj
 0001:000aeac0       ?Set@Matrix66@@QAEXABV1@@Z 004afac0 f   phcore:phmath.obj
 0001:000aeae0       ?Set@Matrix66@@QAEXABVMatrix33@@000@Z 004afae0 f   phcore:phmath.obj
 0001:000aeb20       ?Add@Matrix66@@QAEXABV1@@Z 004afb20 f   phcore:phmath.obj
 0001:000aeb60       ?Add@Matrix66@@QAEXABV1@0@Z 004afb60 f   phcore:phmath.obj
 0001:000aebb0       ?Subtract@Matrix66@@QAEXABV1@@Z 004afbb0 f   phcore:phmath.obj
 0001:000aebf0       ?Subtract@Matrix66@@QAEXABV1@0@Z 004afbf0 f   phcore:phmath.obj
 0001:000aec40       ?Dot@Matrix66@@QAEXABV1@@Z 004afc40 f   phcore:phmath.obj
 0001:000aede0       ?Transpose@Matrix66@@QAEXXZ 004afde0 f   phcore:phmath.obj
 0001:000aee50       ?Transpose@Matrix66@@QAEXABV1@@Z 004afe50 f   phcore:phmath.obj
 0001:000aee90       ?Inverse@Matrix66@@QAEXXZ  004afe90 f   phcore:phmath.obj
 0001:000aef40       ?Inverse@Matrix66@@QAEXABV1@@Z 004aff40 f   phcore:phmath.obj
 0001:000af240       ?ConvexPolyIntersect@phConvexPoly@@SAHHPBVVector2@@H0PAUData@1@@Z 004b0240 f   phcore:convexpoly.obj
 0001:000af9a0       ?PrecomputeRays@phConvexPoly@@SAXHPBVVector2@@PAV2@PAM@Z 004b09a0 f   phcore:convexpoly.obj
 0001:000afa10       ?AdvanceV@phConvexPoly@@SAXXZ 004b0a10 f   phcore:convexpoly.obj
 0001:000afaa0       ?GetvHeadOut@phConvexPoly@@SAXXZ 004b0aa0 f   phcore:convexpoly.obj
 0001:000afb40       ?GetuHeadOut@phConvexPoly@@SAXXZ 004b0b40 f   phcore:convexpoly.obj
 0001:000afbe0       ?GetuTailOut@phConvexPoly@@SAXXZ 004b0be0 f   phcore:convexpoly.obj
 0001:000afc60       ?RecordEE@phConvexPoly@@SAXXZ 004b0c60 f   phcore:convexpoly.obj
 0001:000afd70       ?RecordUTail@phConvexPoly@@SAXXZ 004b0d70 f   phcore:convexpoly.obj
 0001:000afd80       ?RecordVTail@phConvexPoly@@SAXXZ 004b0d80 f   phcore:convexpoly.obj
 0001:000afda0       ?RecordTail@phConvexPoly@@SAX_N@Z 004b0da0 f   phcore:convexpoly.obj
 0001:000afe80       ?RecordNoIsect@phConvexPoly@@SAXH@Z 004b0e80 f   phcore:convexpoly.obj
 0001:000afed0       ?RecordInteriorCollides@phConvexPoly@@SAX_N@Z 004b0ed0 f   phcore:convexpoly.obj
 0001:000aff50       ?InstallJPEGSupport@@YAXXZ 004b0f50 f   djpeg:loadimg.obj
 0001:000affa0       ?UnInstallJPEGSupport@@YAXXZ 004b0fa0 f   djpeg:loadimg.obj
 0001:000affc0       ?gfxLoadJPEGImage@@YAPAVgfxImage@@PBD_N@Z 004b0fc0 f   djpeg:loadimg.obj
 0001:000b00f0       ?jpeg_CreateDecompress@@YAXPAUjpeg_decompress_struct@@HI@Z 004b10f0 f   djpeg:jdapimin.obj
 0001:000b01d0       ?jpeg_destroy_decompress@@YAXPAUjpeg_decompress_struct@@@Z 004b11d0 f   djpeg:jdapimin.obj
 0001:000b01f0       ?jpeg_abort_decompress@@YAXPAUjpeg_decompress_struct@@@Z 004b11f0 f   djpeg:jdapimin.obj
 0001:000b0210       ?jpeg_read_header@@YAHPAUjpeg_decompress_struct@@E@Z 004b1210 f   djpeg:jdapimin.obj
 0001:000b0290       ?jpeg_consume_input@@YAHPAUjpeg_decompress_struct@@@Z 004b1290 f   djpeg:jdapimin.obj
 0001:000b0510       ?jpeg_input_complete@@YAEPAUjpeg_decompress_struct@@@Z 004b1510 f   djpeg:jdapimin.obj
 0001:000b0560       ?jpeg_has_multiple_scans@@YAEPAUjpeg_decompress_struct@@@Z 004b1560 f   djpeg:jdapimin.obj
 0001:000b05b0       ?jpeg_finish_decompress@@YAEPAUjpeg_decompress_struct@@@Z 004b15b0 f   djpeg:jdapimin.obj
 0001:000b0670       ?jpeg_start_decompress@@YAEPAUjpeg_decompress_struct@@@Z 004b1670 f   djpeg:jdapistd.obj
 0001:000b0780       ?jpeg_read_scanlines@@YAIPAUjpeg_decompress_struct@@PAPAEI@Z 004b1780 f   djpeg:jdapistd.obj
 0001:000b0820       ?jpeg_read_raw_data@@YAIPAUjpeg_decompress_struct@@PAPAPAEI@Z 004b1820 f   djpeg:jdapistd.obj
 0001:000b08e0       ?jpeg_stdio_src@@YAXPAUjpeg_decompress_struct@@PAVStream@@@Z 004b18e0 f   djpeg:jdatasrc.obj
 0001:000b0a20       ?jpeg_std_error@@YAPAUjpeg_error_mgr@@PAU1@@Z 004b1a20 f   djpeg:jerror.obj
 0001:000b0be0       ?jinit_input_controller@@YAXPAUjpeg_decompress_struct@@@Z 004b1be0 f   djpeg:jdinput.obj
 0001:000b11f0       ?jpeg_resync_to_restart@@YAEPAUjpeg_decompress_struct@@H@Z 004b21f0 f   djpeg:jdmarker.obj
 0001:000b1410       ?jinit_marker_reader@@YAXPAUjpeg_decompress_struct@@@Z 004b2410 f   djpeg:jdmarker.obj
 0001:000b2ce0       ?jpeg_set_marker_processor@@YAXPAUjpeg_decompress_struct@@HP6AE0@Z@Z 004b3ce0 f   djpeg:jdmarker.obj
 0001:000b2d40       ?jinit_memory_mgr@@YAXPAUjpeg_common_struct@@@Z 004b3d40 f   djpeg:jmemmgr.obj
 0001:000b39b0       ?jpeg_abort@@YAXPAUjpeg_common_struct@@@Z 004b49b0 f   djpeg:jcomapi.obj
 0001:000b39f0       ?jpeg_destroy@@YAXPAUjpeg_common_struct@@@Z 004b49f0 f   djpeg:jcomapi.obj
 0001:000b3a20       ?jpeg_alloc_quant_table@@YAPAUJQUANT_TBL@@PAUjpeg_common_struct@@@Z 004b4a20 f   djpeg:jcomapi.obj
 0001:000b3a40       ?jpeg_alloc_huff_table@@YAPAUJHUFF_TBL@@PAUjpeg_common_struct@@@Z 004b4a40 f   djpeg:jcomapi.obj
 0001:000b3a60       ?jpeg_calc_output_dimensions@@YAXPAUjpeg_decompress_struct@@@Z 004b4a60 f   djpeg:jdmaster.obj
 0001:000b3b20       ?jinit_master_decompress@@YAXPAUjpeg_decompress_struct@@@Z 004b4b20 f   djpeg:jdmaster.obj
 0001:000b3ee0       ?jdiv_round_up@@YAJJJ@Z    004b4ee0 f   djpeg:jutils.obj
 0001:000b3f00       ?jround_up@@YAJJJ@Z        004b4f00 f   djpeg:jutils.obj
 0001:000b3f20       ?jcopy_sample_rows@@YAXPAPAEH0HHI@Z 004b4f20 f   djpeg:jutils.obj
 0001:000b3f70       ?jcopy_block_row@@YAXPAY0EA@F0I@Z 004b4f70 f   djpeg:jutils.obj
 0001:000b3fa0       ?jzero_far@@YAXPAXI@Z      004b4fa0 f   djpeg:jutils.obj
 0001:000b3fc0       ?jpeg_get_small@@YAPAXPAUjpeg_common_struct@@I@Z 004b4fc0 f   djpeg:jmemnobs.obj
 0001:000b3fe0       ?jpeg_free_small@@YAXPAUjpeg_common_struct@@PAXI@Z 004b4fe0 f   djpeg:jmemnobs.obj
 0001:000b4000       ?jpeg_get_large@@YAPAXPAUjpeg_common_struct@@I@Z 004b5000 f   djpeg:jmemnobs.obj
 0001:000b4020       ?jpeg_free_large@@YAXPAUjpeg_common_struct@@PAXI@Z 004b5020 f   djpeg:jmemnobs.obj
 0001:000b4040       ?jpeg_mem_available@@YAJPAUjpeg_common_struct@@JJJ@Z 004b5040 f   djpeg:jmemnobs.obj
 0001:000b4050       ?jpeg_open_backing_store@@YAXPAUjpeg_common_struct@@PAUbacking_store_struct@@J@Z 004b5050 f   djpeg:jmemnobs.obj
 0001:000b4070       ?jpeg_mem_init@@YAJPAUjpeg_common_struct@@@Z 004b5070 f   djpeg:jmemnobs.obj
 0001:000b4080       ?jpeg_mem_term@@YAXPAUjpeg_common_struct@@@Z 004b5080 f   djpeg:jmemnobs.obj
 0001:000b4090       ?jinit_d_main_controller@@YAXPAUjpeg_decompress_struct@@E@Z 004b5090 f   djpeg:jdmainct.obj
 0001:000b4750       ?jinit_d_coef_controller@@YAXPAUjpeg_decompress_struct@@E@Z 004b5750 f   djpeg:jdcoefct.obj
 0001:000b4ac0       ?jpeg_make_d_derived_tbl@@YAXPAUjpeg_decompress_struct@@EHPAPAUd_derived_tbl@@@Z 004b5ac0 f   djpeg:jdhuff.obj
 0001:000b4d80       ?jpeg_fill_bit_buffer@@YAEPAUbitread_working_state@@JHH@Z 004b5d80 f   djpeg:jdhuff.obj
 0001:000b4ea0       ?jpeg_huff_decode@@YAHPAUbitread_working_state@@JHPAUd_derived_tbl@@H@Z 004b5ea0 f   djpeg:jdhuff.obj
 0001:000b4f90       ?jinit_huff_decoder@@YAXPAUjpeg_decompress_struct@@@Z 004b5f90 f   djpeg:jdhuff.obj
 0001:000b55d0       ?jinit_inverse_dct@@YAXPAUjpeg_decompress_struct@@@Z 004b65d0 f   djpeg:jddctmgr.obj
 0001:000b5830       ?jinit_d_post_controller@@YAXPAUjpeg_decompress_struct@@E@Z 004b6830 f   djpeg:jdpostct.obj
 0001:000b59b0       ?jinit_upsampler@@YAXPAUjpeg_decompress_struct@@@Z 004b69b0 f   djpeg:jdsample.obj
 0001:000b60f0       ?jinit_color_deconverter@@YAXPAUjpeg_decompress_struct@@@Z 004b70f0 f   djpeg:jdcolor.obj
 0001:000b6730       ?jpeg_idct_islow@@YAXPAUjpeg_decompress_struct@@PAUjpeg_component_info@@PAFPAPAEI@Z 004b7730 f   djpeg:jidctint.obj
 0001:000b6ce0       ?jpeg_idct_ifast@@YAXPAUjpeg_decompress_struct@@PAUjpeg_component_info@@PAFPAPAEI@Z 004b7ce0 f   djpeg:jidctfst.obj
 0001:000b7150       ?jpeg_idct_float@@YAXPAUjpeg_decompress_struct@@PAUjpeg_component_info@@PAFPAPAEI@Z 004b8150 f   djpeg:jidctflt.obj
 0001:000b7530       ??0string@@QAE@XZ          004b8530 f   node:str.obj
 0001:000b7560       ??Hstring@@QBE?AV0@PBD@Z   004b8560 f   node:str.obj
 0001:000b7690       ??H@YA?AVstring@@PBDABV0@@Z 004b8690 f   node:str.obj
 0001:000b77c0       ??Ystring@@QAEXPBD@Z       004b87c0 f   node:str.obj
 0001:000b78a0       ??Ystring@@QAEXD@Z         004b88a0 f   node:str.obj
 0001:000b7940       ??Gstring@@QBE?AV0@PBD@Z   004b8940 f   node:str.obj
 0001:000b7ab0       ??Zstring@@QAEXPBD@Z       004b8ab0 f   node:str.obj
 0001:000b7b70       ?MinusEqual@string@@QAEXD@Z 004b8b70 f   node:str.obj
 0001:000b7cc0       ?Contains@string@@QBEHAAV1@@Z 004b8cc0 f   node:str.obj
 0001:000b7d50       ?SaveName@string@@QAEXABV1@H00@Z 004b8d50 f   node:str.obj
 0001:000b7f10       ?FindFile@string@@QAEHABV1@H00@Z 004b8f10 f   node:str.obj
 0001:000b8290       ?FileExists@string@@QBEHXZ 004b9290 f   node:str.obj
 0001:000b82c0       ?DirFileExt@string@@QBEXAAV1@00@Z 004b92c0 f   node:str.obj
 0001:000b84e0       ?CommaFile@string@@QBEHXZ  004b94e0 f   node:str.obj
 0001:000b86c0       ?FileName@string@@QBE?AV1@XZ 004b96c0 f   node:str.obj
 0001:000b8840       ?Extension@string@@QBE?AV1@XZ 004b9840 f   node:str.obj
 0001:000b8960       ?ChangeExtension@string@@QAEXABV1@@Z 004b9960 f   node:str.obj
 0001:000b8b10       ?RemoveExtension@string@@QAEXXZ 004b9b10 f   node:str.obj
 0001:000b8b40       ?ExpandEnvs@string@@QAEXXZ 004b9b40 f   node:str.obj
 0001:000b8cf0       ?SubString@string@@QBE?AV1@H@Z 004b9cf0 f   node:str.obj
 0001:000b8e00       ?NumSubStrings@string@@QBEHXZ 004b9e00 f   node:str.obj
 0001:000b8e40       ?IsNumeric@string@@QBEHXZ  004b9e40 f   node:str.obj
 0001:000b8e70       ??4string@@QAEXPBD@Z       004b9e70 f i node:str.obj
 0001:000b8ee0       ??Hstring@@QBE?AV0@ABV0@@Z 004b9ee0 f i node:str.obj
 0001:000b8f50       ??0asRoot@@QAE@XZ          004b9f50 f   node:root.obj
 0001:000b8fe0       ?Init@asRoot@@QAEX_N@Z     004b9fe0 f   node:root.obj
 0001:000b9000       ?Update@asRoot@@UAEXXZ     004ba000 f   node:root.obj
 0001:000b9040       ?Reset@asRoot@@UAEXXZ      004ba040 f   node:root.obj
 0001:000b9050       ?Quit@asRoot@@QAEXXZ       004ba050 f   node:root.obj
 0001:000b9060       ?IsPaused@asRoot@@QAE_NXZ  004ba060 f   node:root.obj
 0001:000b9070       ?TogglePause@asRoot@@QAEXXZ 004ba070 f   node:root.obj
 0001:000b9080       ?SetPause@asRoot@@QAEX_N@Z 004ba080 f   node:root.obj
 0001:000b9090       ??1asRoot@@UAE@XZ          004ba090 f i node:root.obj
 0001:000b90a0       ??_EasRoot@@UAEPAXI@Z      004ba0a0 f i node:root.obj
 0001:000b90a0       ??_GasRoot@@UAEPAXI@Z      004ba0a0 f i node:root.obj
 0001:000b90d0       ?GetClassName@asRoot@@UAEPADXZ 004ba0d0 f i node:root.obj
 0001:000b90e0       ??0asNode@@QAE@XZ          004ba0e0 f   node:node.obj
 0001:000b9100       ??1asNode@@UAE@XZ          004ba100 f   node:node.obj
 0001:000b9170       ?SetName@asNode@@QAEXPBD@Z 004ba170 f   node:node.obj
 0001:000b91a0       ?GetDirName@asNode@@UAEPBDXZ 004ba1a0 f   node:node.obj
 0001:000b91b0       ?Update@asNode@@UAEXXZ     004ba1b0 f   node:node.obj
 0001:000b91d0       ?UpdatePaused@asNode@@UAEXXZ 004ba1d0 f   node:node.obj
 0001:000b9210       ?Reset@asNode@@UAEXXZ      004ba210 f   node:node.obj
 0001:000b9230       ?ResChange@asNode@@UAEXHH@Z 004ba230 f   node:node.obj
 0001:000b9260       ?AddChild@asNode@@QAEHPAV1@@Z 004ba260 f   node:node.obj
 0001:000b92e0       ?InsertChild@asNode@@QAEHHPAV1@@Z 004ba2e0 f   node:node.obj
 0001:000b9350       ?RemoveChild@asNode@@QAEHH@Z 004ba350 f   node:node.obj
 0001:000b93d0       ?RemoveChild@asNode@@QAEHPAV1@@Z 004ba3d0 f   node:node.obj
 0001:000b9410       ?RemoveAllChildren@asNode@@QAEXXZ 004ba410 f   node:node.obj
 0001:000b9430       ?GetChild@asNode@@QAEPAV1@H@Z 004ba430 f   node:node.obj
 0001:000b9460       ?GetNext@asNode@@QAEPAV1@XZ 004ba460 f   node:node.obj
 0001:000b9470       ?GetLastChild@asNode@@QAEPAV1@XZ 004ba470 f   node:node.obj
 0001:000b94a0       ?NumChildren@asNode@@QAEHXZ 004ba4a0 f   node:node.obj
 0001:000b94c0       ?SwitchTo@asNode@@QAEXH@Z  004ba4c0 f   node:node.obj
 0001:000b9520       ?Load@asNode@@UAE_NXZ      004ba520 f   node:node.obj
 0001:000b95d0       ?Save@asNode@@UAE_NXZ      004ba5d0 f   node:node.obj
 0001:000b9660       ?AddWidgets@asNode@@UAEXAAVbkBank@@@Z 004ba660 f   node:node.obj
 0001:000b9710       ?OpenBrowser@asNode@@QAEXXZ 004ba710 f   node:node.obj
 0001:000b9920       ??_GasNode@@UAEPAXI@Z      004ba920 f i node:node.obj
 0001:000b9920       ??_EasNode@@UAEPAXI@Z      004ba920 f i node:node.obj
 0001:000b9950       ??_9@$BCI@AE               004ba950 f i node:node.obj
 0001:000b9960       ??_9@$BCM@AE               004ba960 f i node:node.obj
 0001:000b9970       ??0asCullManager@@QAE@HH@Z 004ba970 f   node:cullmgr.obj
 0001:000b9a70       ??1asCullManager@@UAE@XZ   004baa70 f   node:cullmgr.obj
 0001:000b9b10       ?Reset@asCullManager@@UAEXXZ 004bab10 f   node:cullmgr.obj
 0001:000b9b60       ?DisplayVersionString@asCullManager@@IAEXXZ 004bab60 f   node:cullmgr.obj
 0001:000b9b70       ?Update@asCullManager@@UAEXXZ 004bab70 f   node:cullmgr.obj
 0001:000b9cc0       ?DeclareCamera@asCullManager@@UAEXPAVasCamera@@@Z 004bacc0 f   node:cullmgr.obj
 0001:000b9cf0       ?DeclareCullable@asCullManager@@UAEXPAVasCullable@@@Z 004bacf0 f   node:cullmgr.obj
 0001:000b9d40       ?DeclareCullable2D@asCullManager@@UAEXPAVasCullable@@@Z 004bad40 f   node:cullmgr.obj
 0001:000b9d80       ?DeclareCullable2DFG@asCullManager@@UAEXPAVasCullable@@@Z 004bad80 f   node:cullmgr.obj
 0001:000b9dc0       ?DeclareBitmap@asCullManager@@QAEXPAVasCullable@@PAVgfxBitmap@@@Z 004badc0 f   node:cullmgr.obj
 0001:000b9e00       ??_GasCullManager@@UAEPAXI@Z 004bae00 f i node:cullmgr.obj
 0001:000b9e00       ??_EasCullManager@@UAEPAXI@Z 004bae00 f i node:cullmgr.obj
 0001:000b9e30       ??0eqEventHandler@@QAE@XZ  004bae30 f   node:event.obj
 0001:000b9e70       ??1eqEventHandler@@UAE@XZ  004bae70 f   node:event.obj
 0001:000b9ea0       ?BeginGfx@eqEventHandler@@QAEHHHH@Z 004baea0 f   node:event.obj
 0001:000b9eb0       ?EndGfx@eqEventHandler@@QAEXXZ 004baeb0 f   node:event.obj
 0001:000b9ec0       ?RestoreApp@eqEventHandler@@QAEXXZ 004baec0 f   node:event.obj
 0001:000b9ed0       ?MinimizeApp@eqEventHandler@@QAEXH@Z 004baed0 f   node:event.obj
 0001:000b9ee0       ?SetActive@eqEventHandler@@QAEXH@Z 004baee0 f   node:event.obj
 0001:000b9ef0       ?ClearActive@eqEventHandler@@QAEXH@Z 004baef0 f   node:event.obj
 0001:000b9f00       ?Update@eqEventHandler@@QAEXXZ 004baf00 f   node:event.obj
 0001:000ba4d0       ?EKeyName@eqEventHandler@@SAPADH@Z 004bb4d0 f   node:event.obj
 0001:000ba7a0       ?AddClient@eqEventHandler@@QAEXPAVeqEventMonitor@@@Z 004bb7a0 f   node:event.obj
 0001:000ba800       ?RemoveClient@eqEventHandler@@QAEXPAVeqEventMonitor@@@Z 004bb800 f   node:event.obj
 0001:000ba840       ??0eqEventMonitor@@QAE@XZ  004bb840 f   node:event.obj
 0001:000ba860       ??1eqEventMonitor@@UAE@XZ  004bb860 f   node:event.obj
 0001:000ba880       ?Mouse@eqEventMonitor@@UAEXPAXHHHHHHH@Z 004bb880 f   node:event.obj
 0001:000ba900       ?Keyboard@eqEventMonitor@@UAEXPAXHHHH@Z 004bb900 f   node:event.obj
 0001:000ba980       ??_GeqEventHandler@@UAEPAXI@Z 004bb980 f i node:event.obj
 0001:000ba980       ??_EeqEventHandler@@UAEPAXI@Z 004bb980 f i node:event.obj
 0001:000ba9b0       ??_EeqEventMonitor@@UAEPAXI@Z 004bb9b0 f i node:event.obj
 0001:000ba9b0       ??_GeqEventMonitor@@UAEPAXI@Z 004bb9b0 f i node:event.obj
 0001:000ba9e0       ??0asUnderlay@@QAE@XZ      004bb9e0 f   node:camera.obj
 0001:000ba9f0       ??1asUnderlay@@UAE@XZ      004bb9f0 f   node:camera.obj
 0001:000baa00       ?SetBitmap@asUnderlay@@QAEXPAVgfxBitmap@@@Z 004bba00 f   node:camera.obj
 0001:000baa10       ?AddRef@asUnderlay@@QAEXXZ 004bba10 f   node:camera.obj
 0001:000baa20       ?Cull@asUnderlay@@UAEXXZ   004bba20 f   node:camera.obj
 0001:000baa50       ??1asCamera@@UAE@XZ        004bba50 f   node:camera.obj
 0001:000baab0       ??0asCamera@@QAE@XZ        004bbab0 f   node:camera.obj
 0001:000bacf0       ?Update@asCamera@@UAEXXZ   004bbcf0 f   node:camera.obj
 0001:000baea0       ?SetClipArea@asCamera@@QAEXMMMM@Z 004bbea0 f   node:camera.obj
 0001:000bafe0       ?SetLighting@asCamera@@QAEXH@Z 004bbfe0 f   node:camera.obj
 0001:000bb030       ?SetWorld@asCamera@@QAEXAAVMatrix34@@@Z 004bc030 f   node:camera.obj
 0001:000bb040       ?GetNearClip@asCamera@@QAEXPAVVector3@@AAVMatrix34@@W4kNearClip@1@@Z 004bc040 f   node:camera.obj
 0001:000bb5b0       ?DrawBegin@asCamera@@QAEXXZ 004bc5b0 f   node:camera.obj
 0001:000bb5c0       ?DrawEnd@asCamera@@QAEXXZ  004bc5c0 f   node:camera.obj
 0001:000bb620       ?SetViewport@asCamera@@QAEXMMMMH@Z 004bc620 f   node:camera.obj
 0001:000bb6a0       ?SetView@asCamera@@QAEXMMMM@Z 004bc6a0 f   node:camera.obj
 0001:000bb710       ?SetFog@asCamera@@QAEXMMMM@Z 004bc710 f   node:camera.obj
 0001:000bb740       ?SetUnderlay@asCamera@@QAEXPAD@Z 004bc740 f   node:camera.obj
 0001:000bb780       ?SetUnderlayCB@asCamera@@QAEXPAVgfxBitmap@@PAVdatCallback@@@Z 004bc780 f   node:camera.obj
 0001:000bb7b0       ?GetViewportWidth@asCamera@@QAEHXZ 004bc7b0 f   node:camera.obj
 0001:000bb7c0       ?GetViewportHeight@asCamera@@QAEHXZ 004bc7c0 f   node:camera.obj
 0001:000bb7d0       ?FadeOut@asCamera@@QAEXMH@Z 004bc7d0 f   node:camera.obj
 0001:000bb830       ?FadeIn@asCamera@@QAEXMH@Z 004bc830 f   node:camera.obj
 0001:000bb890       ?SphereVisible@asCamera@@QAEMABVVector3@@MPAM@Z 004bc890 f   node:camera.obj
 0001:000bba60       ?SetAmbient@asCamera@@QAEXABVVector3@@@Z 004bca60 f   node:camera.obj
 0001:000bba70       ?SetMonochrome@asCamera@@QAEXH@Z 004bca70 f   node:camera.obj
 0001:000bba80       ?Regen@asCamera@@AAEXXZ    004bca80 f   node:camera.obj
 0001:000bba90       ?FadeItOut@@YAXPAVasCamera@@@Z 004bca90 f   node:camera.obj
 0001:000bbab0       ?FadeItIn@@YAXPAVasCamera@@@Z 004bcab0 f   node:camera.obj
 0001:000bbad0       ?FritzIt@@YAXPAVasCamera@@@Z 004bcad0 f   node:camera.obj
 0001:000bbae0       ?ViewIt@@YAXPAVasCamera@@@Z 004bcae0 f   node:camera.obj
 0001:000bbb00       ?AspectIt@@YAXPAVasCamera@@@Z 004bcb00 f   node:camera.obj
 0001:000bbb20       ?AddWidgets@asCamera@@UAEXAAVbkBank@@@Z 004bcb20 f   node:camera.obj
 0001:000bbdb0       ??_EasUnderlay@@UAEPAXI@Z  004bcdb0 f i node:camera.obj
 0001:000bbdb0       ??_GasUnderlay@@UAEPAXI@Z  004bcdb0 f i node:camera.obj
 0001:000bbde0       ??_GasCamera@@UAEPAXI@Z    004bcde0 f i node:camera.obj
 0001:000bbde0       ??_EasCamera@@UAEPAXI@Z    004bcde0 f i node:camera.obj
 0001:000bbe10       ?GetClassName@asCamera@@UAEPADXZ 004bce10 f i node:camera.obj
 0001:000bbe60       ?Stats@d3dPage@@UAEXXZ     004bce60 f   node:d3dstats.obj
 0001:000bbf50       ?AddD3DStatsPage@@YAXXZ    004bcf50 f   node:d3dstats.obj
 0001:000bbf60       ??1d3dPage@@UAE@XZ         004bcf60 f i node:d3dstats.obj
 0001:000bbf70       ??0d3dPage@@QAE@XZ         004bcf70 f i node:d3dstats.obj
 0001:000bbf80       ??_Ed3dPage@@UAEPAXI@Z     004bcf80 f i node:d3dstats.obj
 0001:000bbf80       ??_Gd3dPage@@UAEPAXI@Z     004bcf80 f i node:d3dstats.obj
 0001:000bbfb0       ?AddPage@asStatsManager@@SAXPAVasCullable@@@Z 004bcfb0 f   node:stats.obj
 0001:000bc000       ?Next@asStatsManager@@SAXXZ 004bd000 f   node:stats.obj
 0001:000bc030       ?Prev@asStatsManager@@SAXXZ 004bd030 f   node:stats.obj
 0001:000bc060       ?Cull@asStatsManager@@SAXXZ 004bd060 f   node:stats.obj
 0001:000bc090       ?Statsf@@YAXPBDZZ          004bd090 f   node:stats.obj
 0001:000bc170       ??0asLinearCS@@QAE@XZ      004bd170 f   node:linear.obj
 0001:000bc240       ?Update@asLinearCS@@UAEXXZ 004bd240 f   node:linear.obj
 0001:000bc2d0       ?Cull@asLinearCS@@UAEXXZ   004bd2d0 f   node:linear.obj
 0001:000bc360       ??_EasLinearCS@@UAEPAXI@Z  004bd360 f i node:linear.obj
 0001:000bc360       ??_GasLinearCS@@UAEPAXI@Z  004bd360 f i node:linear.obj
 0001:000bc390       ?GetClassName@asLinearCS@@UAEPADXZ 004bd390 f i node:linear.obj
 0001:000bc3a0       ?Cull@asCullable@@UAEXXZ   004bd3a0 f   node:cullable.obj
 0001:000bc3b0       ?Stats@asCullable@@UAEXXZ  004bd3b0 f   node:cullable.obj
 0001:000bc3c0       ??0eqEventQ@@QAE@H@Z       004bd3c0 f   node:eventq.obj
 0001:000bc440       ??1eqEventQ@@UAE@XZ        004bd440 f   node:eventq.obj
 0001:000bc4b0       ?Mouse@eqEventQ@@UAEXPAXHHHHHHH@Z 004bd4b0 f   node:eventq.obj
 0001:000bc540       ?Keyboard@eqEventQ@@UAEXPAXHHHH@Z 004bd540 f   node:eventq.obj
 0001:000bc5a0       ?Queue@eqEventQ@@AAEXAATeqEvent@@@Z 004bd5a0 f   node:eventq.obj
 0001:000bc5e0       ?Pop@eqEventQ@@QAEHPATeqEvent@@@Z 004bd5e0 f   node:eventq.obj
 0001:000bc650       ??_GeqEventQ@@UAEPAXI@Z    004bd650 f i node:eventq.obj
 0001:000bc650       ??_EeqEventQ@@UAEPAXI@Z    004bd650 f i node:eventq.obj
 0001:000bc680       ?nodeGetBitmap@@YAPAVgfxBitmap@@PBD_N1@Z 004bd680 f   node:gfxtranslate.obj
 0001:000bc6c0       ?logf_fast@@YAMM@Z         004bd6c0 f   node:random.obj
 0001:000bc740       ?Seed@Random@@QAEXH@Z      004bd740 f   node:random.obj
 0001:000bc7f0       ?Number@Random@@QAEMXZ     004bd7f0 f   node:random.obj
 0001:000bc850       ?Normal@Random@@QAEMMM@Z   004bd850 f   node:random.obj
 0001:000bc8a0       ?DrawColor@@YAXABVVector3@@@Z 004bd8a0 f   node:gfx.obj
 0001:000bc910       ?DrawColor2@@YAXABVVector3@@@Z 004bd910 f   node:gfx.obj
 0001:000bc970       ?DrawColor@@YAXABVVector4@@@Z 004bd970 f   node:gfx.obj
 0001:000bc9e0       ?DrawColor2@@YAXABVVector4@@@Z 004bd9e0 f   node:gfx.obj
 0001:000bca50       ?DrawLine@@YAXMMMMMM@Z     004bda50 f   node:gfx.obj
 0001:000bcae0       ?DrawLine@@YAXABVVector3@@0@Z 004bdae0 f   node:gfx.obj
 0001:000bcb10       ?DrawTri@@YAXPBVVector3@@ABV1@11@Z 004bdb10 f   node:gfx.obj
 0001:000bcbc0       ?DrawWireSphere@@YAXABVVector3@@M@Z 004bdbc0 f   node:gfx.obj
 0001:000bcd60       ?DrawWireSphere@@YAXABVVector4@@@Z 004bdd60 f   node:gfx.obj
 0001:000bcd80       ?DrawWireBox@@YAXABVVector3@@0@Z 004bdd80 f   node:gfx.obj
 0001:000bcf10       ?DrawBegin@@YAXABVMatrix34@@@Z 004bdf10 f   node:gfx.obj
 0001:000bcf40       ?DrawQuad@@YAXPBVVector3@@ABV1@111@Z 004bdf40 f   node:gfx.obj
 0001:000bd000       ?DrawLabelf@@YAXABVVector3@@PBDZZ 004be000 f   node:gfx.obj
 0001:000bd040       ?DrawEnd@@YAXXZ            004be040 f   node:gfx.obj
 0001:000bd3e0       ?AddStaticMaterial@modShader@@SAPAUgfxMaterial@@ABU2@@Z 004be3e0 f   model:shader.obj
 0001:000bd630       ?KillAll@modShader@@SAXXZ  004be630 f   model:shader.obj
 0001:000bd640       ?Load@modShader@@QAEXPAVStream@@_N@Z 004be640 f   model:shader.obj
 0001:000bda00       ?Save@modShader@@QBEXPAVStream@@_N@Z 004bea00 f   model:shader.obj
 0001:000bdbb0       ?LoadShaderSet@modShader@@SAPAPAV1@PAVStream@@PAH1_N@Z 004bebb0 f   model:shader.obj
 0001:000bdd10       ?PreLoad@modShader@@QAEXXZ 004bed10 f   model:shader.obj
 0001:000bde00       ?BeginEnvMap@modShader@@SAXPAVgfxTexture@@ABVMatrix34@@@Z 004bee00 f   model:shader.obj
 0001:000be0b0       ?EndEnvMap@modShader@@SAXXZ 004bf0b0 f   model:shader.obj
 0001:000be1e0       ?SaveShaderSet@modShader@@SAXPAVStream@@PAPAV1@HH_N@Z 004bf1e0 f   model:shader.obj
 0001:000be270       ?Draw@modStatic@@QBEXPAVmodShader@@@Z 004bf270 f   model:staticdraw.obj
 0001:000be400       ??0modPackage@@QAE@XZ      004bf400 f   model:package.obj
 0001:000be420       ??1modPackage@@QAE@XZ      004bf420 f   model:package.obj
 0001:000be450       ?Open@modPackage@@QAE_NPBD0@Z 004bf450 f   model:package.obj
 0001:000be520       ?Create@modPackage@@QAE_NPBD0@Z 004bf520 f   model:package.obj
 0001:000be580       ?Close@modPackage@@QAEXXZ  004bf580 f   model:package.obj
 0001:000be5a0       ?OpenFile@modPackage@@QAEPAVStream@@PBD@Z 004bf5a0 f   model:package.obj
 0001:000be600       ?CreateFile@modPackage@@QAEPAVStream@@PBD@Z 004bf600 f   model:package.obj
 0001:000be690       ?CloseFile@modPackage@@QAEXXZ 004bf690 f   model:package.obj
 0001:000be6d0       ?NextItem@modPackage@@AAEXXZ 004bf6d0 f   model:package.obj
 0001:000be7a0       ?SkipTo@modPackage@@QAEXPBD@Z 004bf7a0 f   model:package.obj
 0001:000be840       ?Skip@modPackage@@QAEXXZ   004bf840 f   model:package.obj
 0001:000be870       ?FlushPrevious@modPackage@@AAEXXZ 004bf870 f   model:package.obj
 0001:000be8d0       ?Optimize@modStatic@@QAEXPAVmodShader@@@Z 004bf8d0 f   model:static2.obj
 0001:000be950       ?DrawNoAlpha@modStatic@@QBEXPAVmodShader@@@Z 004bf950 f   model:static2.obj
 0001:000be980       ?DrawEnvMapped@modStatic@@QBEXPAVmodShader@@PAVgfxTexture@@M@Z 004bf980 f   model:static2.obj
 0001:000bea70       ?DrawOrthoMapped@modStatic@@QBEXPAVmodShader@@PAVgfxTexture@@MI@Z 004bfa70 f   model:static2.obj
 0001:000beba0       ?DrawWithTexGenAndTexMatrix@modStatic@@QBEXXZ 004bfba0 f   model:static2.obj
 0001:000bebf0       ?Clone@modStatic@@QBEPAV1@XZ 004bfbf0 f   model:static2.obj
 0001:000becb0       ?CopyFrom@modStatic@@QAEXPBV1@@Z 004bfcb0 f   model:static2.obj
 0001:000bed00       ?GetAdjunctCount@modStatic@@QBEHXZ 004bfd00 f   model:static2.obj
 0001:000bed30       ?GetTriCount@modStatic@@QBEHXZ 004bfd30 f   model:static2.obj
 0001:000bed80       ?modGetStatic@@YAPAVmodStatic@@PBDP6AXAAVVector3@@PAX@Z2_N@Z 004bfd80 f   model:static2.obj
 0001:000bf330       ?GetPivot@@YA_NAAVMatrix34@@PBD1@Z 004c0330 f   model:getpivot.obj
 0001:000bf390       ?modGetStatic@@YAPAVmodStatic@@PBDAAM_N@Z 004c0390 f   model:getstatic.obj
 0001:000bf470       ?vgl_VERTEX_VCT1@@YAXMMM@Z 004c0470 f   rgl:vgl.obj
 0001:000bf500       ?vgl_VERTEX_VNT1@@YAXMMM@Z 004c0500 f   rgl:vgl.obj
 0001:000bf590       ?vglSetFormat@@YAXIIII@Z   004c0590 f   rgl:vgl.obj
 0001:000bf650       ?vglBegin@@YAXW4gfxDrawMode@@H@Z 004c0650 f   rgl:vgl.obj
 0001:000bfd00       ?vglEnd@@YAXXZ             004c0d00 f   rgl:vgl.obj
 0001:000bfd80       ?vglBeginBatch@@YAXXZ      004c0d80 f   rgl:vgl.obj
 0001:000bfe00       ?vglEndBatch@@YAXXZ        004c0e00 f   rgl:vgl.obj
 0001:000bfe40       ?vglBindTexture@@YAXPAVgfxTexture@@@Z 004c0e40 f   rgl:vgl.obj
 0001:000bff00       ?vglDrawLabel@@YAXABVVector3@@PBD@Z 004c0f00 f   rgl:vgl.obj
 0001:000bffe0       ?vglDrawLabelf@@YAXABVVector3@@PBDZZ 004c0fe0 f   rgl:vgl.obj
 0001:000c0010       ?vglSetCloudMap@@YAXPBD@Z  004c1010 f   rgl:vgl.obj
 0001:000c00c0       ?vglSetOffset@@YAXMMM@Z    004c10c0 f   rgl:vgl.obj
 0001:000c01e0       ?rglEnableDisable@@YA_NW4rglToken@@_N@Z 004c11e0 f   rgl:vgl.obj
 0001:000c02e0       ?rglIsEnabled@@YA_NW4rglToken@@@Z 004c12e0 f   rgl:vgl.obj
 0001:000c0340       ?rglWorldMatrix@@YAXABVMatrix34@@@Z 004c1340 f   rgl:vgl.obj
 0001:000c03f0       ?rglWorldIdentity@@YAXXZ   004c13f0 f   rgl:vgl.obj
 0001:000c0420       ?rglCard@@YAXABVVector3@@@Z 004c1420 f   rgl:vgl.obj
 0001:000c0440       ?rglBindTexture2@@YAXPBVgfxTexture@@@Z 004c1440 f   rgl:vgl.obj
 0001:000c0480       ?tglDrawParticle@@YAXABVVector3@@MABVVector4@@@Z 004c1480 f   rgl:vgl.obj
 0001:000c07a0       ?tglDrawRotatedParticle@@YAXABVVector3@@MMABVVector4@@@Z 004c17a0 f   rgl:vgl.obj
 0001:000c0b20       ?mkfrgba@@YAIMMMM@Z        004c1b20 f i rgl:vgl.obj
 0001:000c0b80       ?rglOpenPipe@@YAXHH_N@Z    004c1b80 f   rgl:rglext.obj
 0001:000c0c10       ?rglClosePipe@@YAXXZ       004c1c10 f   rgl:rglext.obj
 0001:000c0c20       ?rglBeginFrame@@YAXI@Z     004c1c20 f   rgl:rglext.obj
 0001:000c0c50       ?rglEndFrame@@YAXXZ        004c1c50 f   rgl:rglext.obj
 0001:000c0c60       ?rglCameraMatrix@@YAXABVMatrix34@@@Z 004c1c60 f   rgl:rglext.obj
 0001:000c0c80       ?rglAlive@@YAHXZ           004c1c80 f   rgl:rglext.obj
 0001:000c0cc0       ?rglDrawBox@@YAXABVVector3@@ABVMatrix34@@@Z 004c1cc0 f   rgl:rglext.obj
 0001:000c0f60       ?rglDrawSolidBox@@YAXABVVector3@@ABVMatrix34@@0@Z 004c1f60 f   rgl:rglext.obj
 0001:000c12a0       ?rglDrawAxis@@YAXMABVMatrix34@@@Z 004c22a0 f   rgl:rglext.obj
 0001:000c1380       ?rglDrawSphere@@YAXMH@Z    004c2380 f   rgl:rglext.obj
 0001:000c1490       ?rglDrawSphere@@YAXMABVMatrix34@@H@Z 004c2490 f   rgl:rglext.obj
 0001:000c14c0       ?rglDrawEllipsoid@@YAXABVVector3@@ABVMatrix34@@H@Z 004c24c0 f   rgl:rglext.obj
 0001:000c15a0       ?rglDrawParticle@@YAXABVVector3@@MABVVector4@@@Z 004c25a0 f   rgl:rglext.obj
 0001:000c1790       ?rglResetDrawTexture@@YAXXZ 004c2790 f   rgl:rglext.obj
 0001:000c17b0       ?rglDrawTexture@@YAXPAVgfxTexture@@@Z 004c27b0 f   rgl:rglext.obj
 0001:000c1a10       ?rglPushMatrix@@YAXXZ      004c2a10 f   rgl:rglext.obj
 0001:000c1a50       ?rglPopMatrix@@YAXXZ       004c2a50 f   rgl:rglext.obj
 0001:000c1a90       ?rglMultMatrix@@YAXAAVMatrix34@@@Z 004c2a90 f   rgl:rglext.obj
 0001:000c1b90       ??0datParser@@QAE@PBD@Z    004c2b90 f   parse:parse.obj
 0001:000c1bd0       ??1datParser@@QAE@XZ       004c2bd0 f   parse:parse.obj
 0001:000c1bf0       ??1datParserRecord@@QAE@XZ 004c2bf0 f   parse:parse.obj
 0001:000c1c30       ?AddParser@datParser@@QAEPAV1@PBDPAVdatCallback@@@Z 004c2c30 f   parse:parse.obj
 0001:000c1c80       ?AddRecord@datParser@@AAEAAVdatParserRecord@@HPBDPAXGPAVdatCallback@@@Z 004c2c80 f   parse:parse.obj
 0001:000c1d40       ?Load@datParser@@QAE_NPAVStream@@PBD@Z 004c2d40 f   parse:parse.obj
 0001:000c1da0       ?Load@datParser@@QAE_NPBD0@Z 004c2da0 f   parse:parse.obj
 0001:000c1df0       ?Load@datParser@@QAE_NPBD00@Z 004c2df0 f   parse:parse.obj
 0001:000c1e40       ?Save@datParser@@QAE_NPAVStream@@PBD_N@Z 004c2e40 f   parse:parse.obj
 0001:000c1eb0       ?Save@datParser@@QAE_NPBD0_N@Z 004c2eb0 f   parse:parse.obj
 0001:000c1f00       ?Save@datParser@@QAE_NPBD00_N@Z 004c2f00 f   parse:parse.obj
 0001:000c1f50       ?Read@datParser@@AAEXAAVdatBaseTokenizer@@@Z 004c2f50 f   parse:parse.obj
 0001:000c2220       ?Write@datParser@@AAEXAAVdatBaseTokenizer@@@Z 004c3220 f   parse:parse.obj
 0001:000c2480       ?Indent@datParser@@AAEXAAVdatBaseTokenizer@@@Z 004c3480 f   parse:parse.obj
 0001:000c24b0       ?ParseCSVLine@@YAHPBDHHZZ  004c34b0 f   parse:csv.obj
 0001:000c2520       ?Kill@parCsvFile@@QAEXXZ   004c3520 f   parse:csv.obj
 0001:000c25a0       ?Load@parCsvFile@@QAE_NPBD0_NH@Z 004c35a0 f   parse:csv.obj
 0001:000c28b0       ?Print@parCsvFile@@QBEXXZ  004c38b0 f   parse:csv.obj
 0001:000c2950       ?GetInt@parCsvFile@@QBEHHH@Z 004c3950 f   parse:csv.obj
 0001:000c2980       ?GetFloat@parCsvFile@@QBEMHH@Z 004c3980 f   parse:csv.obj
 0001:000c29b0       ?GetColumn@parCsvFile@@QBEHPBD@Z 004c39b0 f   parse:csv.obj
 0001:000c2a10       ?GetRow@parCsvFile@@QBEHHPBD@Z 004c3a10 f   parse:csv.obj
 0001:000c2a80       ?GetRowSafe@parCsvFile@@QBEHHPBD@Z 004c3a80 f   parse:csv.obj
 0001:000c2ae0       ?SetString@parCsvFile@@QAEXHHPBD@Z 004c3ae0 f   parse:csv.obj
 0001:000c2b20       ?SetInt@parCsvFile@@QAEXHHH@Z 004c3b20 f   parse:csv.obj
 0001:000c2b60       ?SetFloat@parCsvFile@@QAEXHHM@Z 004c3b60 f   parse:csv.obj
 0001:000c2ba0       ?gfxWindowProc@gfxPipeline@@CGJPAUHWND__@@IIJ@Z 004c3ba0 f   gfx:winpipe.obj
 0001:000c2cb0       ?gfxWindowCreate@gfxPipeline@@CAXPBD@Z 004c3cb0 f   gfx:winpipe.obj
 0001:000c2ec0       ?SetWindow@gfxPipeline@@SAX_NHH@Z 004c3ec0 f   gfx:winpipe.obj
 0001:000c2f00       ?SetRes@gfxPipeline@@SAXHHHH_N@Z 004c3f00 f   gfx:winpipe.obj
 0001:000c32e0       ?CreateViewport@gfxPipeline@@SAPAVgfxViewport@@XZ 004c42e0 f   gfx:winpipe.obj
 0001:000c3340       ?Manage@gfxPipeline@@SAXXZ 004c4340 f   gfx:winpipe.obj
 0001:000c33b0       ?SetTitle@gfxPipeline@@SAXPBD@Z 004c43b0 f   gfx:winpipe.obj
 0001:000c33d0       ?gfxEnumZ@gfxPipeline@@CGJPAU_DDPIXELFORMAT@@PAX@Z 004c43d0 f   gfx:d3dpipe.obj
 0001:000c3420       ?gfxEnumTexs@gfxPipeline@@CGJPAU_DDPIXELFORMAT@@PAX@Z 004c4420 f   gfx:d3dpipe.obj
 0001:000c34a0       ?MultiMonCallback@@YGHPAU_GUID@@PAD1PAXPAUHMONITOR__@@@Z 004c44a0 f   gfx:d3dpipe.obj
 0001:000c34e0       ?SafeBeginGfx@gfxPipeline@@SAXXZ 004c44e0 f   gfx:d3dpipe.obj
 0001:000c3580       ?BeginGfx@gfxPipeline@@SA_NXZ 004c4580 f   gfx:d3dpipe.obj
 0001:000c35a0       ?BeginGfx2D@gfxPipeline@@SA_NXZ 004c45a0 f   gfx:d3dpipe.obj
 0001:000c3910       ?BeginGfx3D@gfxPipeline@@SA_NXZ 004c4910 f   gfx:d3dpipe.obj
 0001:000c43e0       ?BeginFrame@gfxPipeline@@SAXXZ 004c53e0 f   gfx:d3dpipe.obj
 0001:000c45f0       ?BeginScene@gfxPipeline@@SAXXZ 004c55f0 f   gfx:d3dpipe.obj
 0001:000c4630       ?EndScene@gfxPipeline@@SAXXZ 004c5630 f   gfx:d3dpipe.obj
 0001:000c46b0       ?EndFrame@gfxPipeline@@SAXXZ 004c56b0 f   gfx:d3dpipe.obj
 0001:000c4c30       ?BeginOffscreen@gfxPipeline@@SAXXZ 004c5c30 f   gfx:d3dpipe.obj
 0001:000c4c40       ?EndOffscreen@gfxPipeline@@SAXXZ 004c5c40 f   gfx:d3dpipe.obj
 0001:000c4c50       ?FlushFrame@gfxPipeline@@SAXXZ 004c5c50 f   gfx:d3dpipe.obj
 0001:000c4c60       ?RefreshFrame@gfxPipeline@@SAXXZ 004c5c60 f   gfx:d3dpipe.obj
 0001:000c4df0       ?EndGfx@gfxPipeline@@SAXXZ 004c5df0 f   gfx:d3dpipe.obj
 0001:000c4e00       ?EndGfx3D@gfxPipeline@@SAXXZ 004c5e00 f   gfx:d3dpipe.obj
 0001:000c50b0       ?EndGfx2D@gfxPipeline@@SAXXZ 004c60b0 f   gfx:d3dpipe.obj
 0001:000c5190       ?Draw@gfxPipeline@@SAXW4gfxDrawMode@@IHABUgfxStridedData@@@Z 004c6190 f   gfx:d3dpipe.obj
 0001:000c5300       ?Draw@gfxPipeline@@SAXW4gfxDrawMode@@IHPAX@Z 004c6300 f   gfx:d3dpipe.obj
 0001:000c5400       ?DrawIdx@gfxPipeline@@SAXW4gfxDrawMode@@IHABUgfxStridedData@@IPAG@Z 004c6400 f   gfx:d3dpipe.obj
 0001:000c5580       ?DrawIdx@gfxPipeline@@SAXW4gfxDrawMode@@IHPAXIPAG@Z 004c6580 f   gfx:d3dpipe.obj
 0001:000c5690       ?CreateReadbackImage@gfxPipeline@@SAPAVgfxImage@@XZ 004c6690 f   gfx:d3dpipe.obj
 0001:000c56c0       ?Readback@gfxPipeline@@SAXPAVgfxImage@@HHHH@Z 004c66c0 f   gfx:d3dpipe.obj
 0001:000c5830       ?Clear@gfxPipeline@@SAXHIMI@Z 004c6830 f   gfx:d3dpipe.obj
 0001:000c5930       ?Blit2D@gfxPipeline@@SAXABVVector4@@PAGPAEHI@Z 004c6930 f   gfx:d3dpipe.obj
 0001:000c5c30       ?BlitText@gfxPipeline@@SAXABVVector4@@PAGPAEHI@Z 004c6c30 f   gfx:d3dpipe.obj
 0001:000c5f30       ?CopyBitmap@gfxPipeline@@SAXHHPAVgfxBitmap@@HHHH_N@Z 004c6f30 f   gfx:d3dpipe.obj
 0001:000c6030       ?ClearRect@gfxPipeline@@SAXHHHHI@Z 004c7030 f   gfx:d3dpipe.obj
 0001:000c6080       ?SetRenderTarget@gfxPipeline@@SA_NPBVgfxTexture@@@Z 004c7080 f   gfx:d3dpipe.obj
 0001:000c6170       ??0gfxVertexBuffer@@QAE@PAUIDirect3DVertexBuffer7@@@Z 004c7170 f   gfx:d3dpipe.obj
 0001:000c61c0       ??0gfxVertexBuffer@@QAE@II@Z 004c71c0 f   gfx:d3dpipe.obj
 0001:000c6230       ??1gfxVertexBuffer@@QAE@XZ 004c7230 f   gfx:d3dpipe.obj
 0001:000c62a0       ?RestoreAll@gfxVertexBuffer@@SAXXZ 004c72a0 f   gfx:d3dpipe.obj
 0001:000c6370       ?KillAll@gfxVertexBuffer@@SAXXZ 004c7370 f   gfx:d3dpipe.obj
 0001:000c63a0       ?CreateVertexBuffer@gfxPipeline@@SAPAUgfxVertexBuffer@@II_N@Z 004c73a0 f   gfx:d3dpipe.obj
 0001:000c64d0       ?DestroyVertexBuffer@gfxPipeline@@SAXPAUgfxVertexBuffer@@@Z 004c74d0 f   gfx:d3dpipe.obj
 0001:000c64f0       ?DoLockVertexBuffer@gfxPipeline@@SAPAXPAUgfxVertexBuffer@@I@Z 004c74f0 f   gfx:d3dpipe.obj
 0001:000c6540       ?DoUnlockVertexBuffer@gfxPipeline@@CAXPAUgfxVertexBuffer@@@Z 004c7540 f   gfx:d3dpipe.obj
 0001:000c6580       ?OptimizeVertexBuffer@gfxPipeline@@CAXPAUgfxVertexBuffer@@@Z 004c7580 f   gfx:d3dpipe.obj
 0001:000c65d0       ?DrawVB@gfxPipeline@@SAXW4gfxDrawMode@@IIPAUgfxVertexBuffer@@@Z 004c75d0 f   gfx:d3dpipe.obj
 0001:000c6750       ?DrawIdxVB@gfxPipeline@@SAXW4gfxDrawMode@@IIPAUgfxVertexBuffer@@IPAG@Z 004c7750 f   gfx:d3dpipe.obj
 0001:000c68f0       ?PersistVertexBuffer@gfxPipeline@@SAXPAUgfxVertexBuffer@@@Z 004c78f0 f   gfx:d3dpipe.obj
 0001:000c69c0       ?gfxSaveSettings@@YA_NXZ   004c79c0 f   gfx:d3dpipe.obj
 0001:000c6a30       ?gfxLoadSettings@@YA_NXZ   004c7a30 f   gfx:d3dpipe.obj
 0001:000c6ac0       ?gfxAutoDetect@@YA_NPA_N@Z 004c7ac0 f   gfx:d3dpipe.obj
 0001:000c74e0       ?gfxSafeMode@@YAXXZ        004c84e0 f   gfx:d3dpipe.obj
 0001:000c7530       ?gfxApplySettings@@YAXXZ   004c8530 f   gfx:d3dpipe.obj
 0001:000c7570       ?ilog2@@YAHH@Z             004c8570 f   gfx:texture.obj
 0001:000c7590       ??0gfxTexture@@AAE@XZ      004c8590 f   gfx:texture.obj
 0001:000c75c0       ??1gfxTexture@@AAE@XZ      004c85c0 f   gfx:texture.obj
 0001:000c7680       ?KillAll@gfxTexture@@SAXXZ 004c8680 f   gfx:texture.obj
 0001:000c76c0       ?SetLODs@gfxTexture@@SAXXZ 004c86c0 f   gfx:texture.obj
 0001:000c76e0       ?MarkFirstUse@gfxTexture@@AAEXXZ 004c86e0 f   gfx:texture.obj
 0001:000c7700       ?MarkHigherUse@gfxTexture@@AAEXXZ 004c8700 f   gfx:texture.obj
 0001:000c7760       ?Create@gfxTexture@@SAPAV1@HHW4gfxImageFormat@gfxImage@@0H@Z 004c8760 f   gfx:texture.obj
 0001:000c7d90       ?Create@gfxTexture@@SAPAV1@PAVgfxImage@@_N@Z 004c8d90 f   gfx:texture.obj
 0001:000c7e00       ?Load@gfxTexture@@QAEXPAVgfxImage@@@Z 004c8e00 f   gfx:texture.obj
 0001:000c8420       ?CreateFromTexture@gfxTexture@@QAEPAV1@PBDHHHH@Z 004c9420 f   gfx:texture.obj
 0001:000c8430       ?SetDefaultMIPMapEnv@gfxTexture@@SAXIM@Z 004c9430 f   gfx:texture.obj
 0001:000c8440       ?GetDefaultMIPMapEnv@gfxTexture@@SAXAAIAAM@Z 004c9440 f   gfx:texture.obj
 0001:000c8450       ?SetMIPMapEnv@gfxTexture@@QAEXIM@Z 004c9450 f   gfx:texture.obj
 0001:000c8460       ?GetMIPMapEnv@gfxTexture@@QAEXAAIAAM@Z 004c9460 f   gfx:texture.obj
 0001:000c8470       ?CalcMIPMapEnv@gfxTexture@@SAXHHAAG0@Z 004c9470 f   gfx:texture.obj
 0001:000c8480       ?EnableTrilinearMipMaping@gfxTexture@@SAX_N@Z 004c9480 f   gfx:texture.obj
 0001:000c8490       ?PreLoad@gfxTexture@@QAEXXZ 004c9490 f   gfx:texture.obj
 0001:000c84e0       ?MakeResident@gfxTexture@@QAEXXZ 004c94e0 f   gfx:texture.obj
 0001:000c8520       ?MakeUnresident@gfxTexture@@QAEXXZ 004c9520 f   gfx:texture.obj
 0001:000c8530       ?MakeAllUnresident@gfxTexture@@SAXXZ 004c9530 f   gfx:texture.obj
 0001:000c8550       ?EnableCache@gfxTexture@@SAX_N@Z 004c9550 f   gfx:texture.obj
 0001:000c8580       ?InitCache@gfxTexture@@SAXXZ 004c9580 f   gfx:texture.obj
 0001:000c87d0       ??0gfxTextureCacheEntry@@AAE@PAUIDirectDrawSurface7@@PAV0@@Z 004c97d0 f   gfx:texture.obj
 0001:000c8800       ?Evict@gfxTextureCacheEntry@@QAEXXZ 004c9800 f   gfx:texture.obj
 0001:000c8830       ?Lease@gfxTextureCacheEntry@@QAEXPAVgfxTexture@@@Z 004c9830 f   gfx:texture.obj
 0001:000c88d0       ??1gfxTextureCacheEntry@@QAE@XZ 004c98d0 f   gfx:texture.obj
 0001:000c8910       ??0gfxTextureCachePool@@QAE@PAV0@@Z 004c9910 f   gfx:texture.obj
 0001:000c8930       ??1gfxTextureCachePool@@QAE@XZ 004c9930 f   gfx:texture.obj
 0001:000c8960       ?IsCompatibleWith@gfxTextureCachePool@@QAE_NPAVgfxTexture@@@Z 004c9960 f   gfx:texture.obj
 0001:000c8a10       ?Init@gfxTextureCachePool@@QAEXPAVgfxTexture@@@Z 004c9a10 f   gfx:texture.obj
 0001:000c8a70       ?FindEntry@gfxTextureCachePool@@QAEXPAVgfxTexture@@@Z 004c9a70 f   gfx:texture.obj
 0001:000c8ab0       ?AddSlot@gfxTextureCachePool@@QAE_NXZ 004c9ab0 f   gfx:texture.obj
 0001:000c8bb0       ?ShutdownCache@gfxTexture@@SAXXZ 004c9bb0 f   gfx:texture.obj
 0001:000c8c50       ?FindEntry@gfxTexture@@QAEPAUIDirectDrawSurface7@@XZ 004c9c50 f   gfx:texture.obj
 0001:000c8c80       ?CreateRenderTarget@gfxTexture@@SAPAV1@HHII@Z 004c9c80 f   gfx:texture.obj
 0001:000c8d50       ?CreateCubeMap@gfxTexture@@SAPAV1@HHQAPAV1@@Z 004c9d50 f   gfx:texture.obj
 0001:000c8f20       ?SetTexEnv@gfxTexture@@QAEXI@Z 004c9f20 f   gfx:texture.obj
 0001:000c8f30       ?SetName@gfxTexture@@QAEXPBD@Z 004c9f30 f   gfx:texture.obj
 0001:000c8f60       ?Blit@gfxTexture@@QAEXHHPAV1@HHHH@Z 004c9f60 f   gfx:texture.obj
 0001:000c8fd0       ?Clone@gfxTexture@@QAEPAV1@XZ 004c9fd0 f   gfx:texture.obj
 0001:000c90f0       ??0gfxBitmap@@AAE@HH@Z     004ca0f0 f   gfx:texture.obj
 0001:000c9130       ?SetName@gfxBitmap@@QAEXPBD@Z 004ca130 f   gfx:texture.obj
 0001:000c9160       ??1gfxBitmap@@AAE@XZ       004ca160 f   gfx:texture.obj
 0001:000c91e0       ?KillAll@gfxBitmap@@SAXXZ  004ca1e0 f   gfx:texture.obj
 0001:000c9220       ?Create@gfxBitmap@@SAPAV1@PAVgfxImage@@_N@Z 004ca220 f   gfx:texture.obj
 0001:000c9270       ?Create@gfxBitmap@@SAPAV1@HH_N@Z 004ca270 f   gfx:texture.obj
 0001:000c9320       ?Clear@gfxBitmap@@QAEXI@Z  004ca320 f   gfx:texture.obj
 0001:000c9360       ?Load@gfxBitmap@@QAE_NPAVgfxImage@@@Z 004ca360 f   gfx:texture.obj
 0001:000c9660       ?AddWidgets@gfxTexture@@SAXAAVbkBank@@@Z 004ca660 f   gfx:texture.obj
 0001:000c9800       ??1gfxImage@@AAE@XZ        004ca800 f   gfx:image.obj
 0001:000c9860       ?Create@gfxImage@@SAPAV1@HHW4gfxImageFormat@1@0H@Z 004ca860 f   gfx:image.obj
 0001:000c9990       ?GetFont@gfxImage@@SAPAV1@AAH0@Z 004ca990 f   gfx:image.obj
 0001:000c9ac0       ?FreeFont@gfxImage@@SAXXZ  004caac0 f   gfx:image.obj
 0001:000c9b00       ?Halve@gfxImage@@QAEXXZ    004cab00 f   gfx:image.obj
 0001:000c9bf0       ?GenerateMipmaps@gfxImage@@QAEXXZ 004cabf0 f   gfx:image.obj
 0001:000c9d20       ?Scale@gfxImage@@QAEXHH@Z  004cad20 f   gfx:image.obj
 0001:000ca100       ?Reformat@gfxImage@@QAEXW4gfxImageFormat@1@0@Z 004cb100 f   gfx:image.obj
 0001:000ca230       ?GetDominantColor@gfxImage@@QBEIXZ 004cb230 f   gfx:image.obj
 0001:000ca3d0       ?Flip@gfxImage@@QAEXXZ     004cb3d0 f   gfx:image.obj
 0001:000ca440       ?gfxSaveTargaImage@@YA_NPBDPAVgfxImage@@@Z 004cb440 f   gfx:loadimg.obj
 0001:000ca870       ?gfxOpenRawBmpStream@@YAPAVStream@@PBDHH@Z 004cb870 f   gfx:loadimg.obj
 0001:000ca9e0       ?gfxWriteRawBmpStream@@YAXPAVStream@@PAXH@Z 004cb9e0 f   gfx:loadimg.obj
 0001:000caa10       ?gfxCloseRawBmpStream@@YAXPAVStream@@@Z 004cba10 f   gfx:loadimg.obj
 0001:000caa30       ?gfxSaveBmpImage@@YA_NPBDPAVgfxImage@@@Z 004cba30 f   gfx:loadimg.obj
 0001:000cad60       ?gfxLoadTargaImage@@YAPAVgfxImage@@PBD_N@Z 004cbd60 f   gfx:loadimg.obj
 0001:000caf80       ?gfxLoadTexImage@@YAPAVgfxImage@@PBD_N@Z 004cbf80 f   gfx:loadimg.obj
 0001:000cbb90       ?gfxLoadRawImage@@YAPAVgfxImage@@PBD_N@Z 004ccb90 f   gfx:loadimg.obj
 0001:000cbd10       ?gfxLoadBmpImage@@YAPAVgfxImage@@PBD_N@Z 004ccd10 f   gfx:loadimg.obj
 0001:000cc030       ?gfxLoadImageAll@@YAPAVgfxImage@@PBD_N@Z 004cd030 f   gfx:loadimg.obj
 0001:000cc180       ?Reset@gfxMaterial@@QAEXXZ 004cd180 f   gfx:rstate.obj
 0001:000cc1d0       ?Reset@gfxLight@@QAEXXZ    004cd1d0 f   gfx:rstate.obj
 0001:000cc240       ?Init@gfxRenderState@@AAEXXZ 004cd240 f   gfx:rstate.obj
 0001:000cc370       ?Default@gfxRenderState@@QAEXXZ 004cd370 f   gfx:rstate.obj
 0001:000cc720       ?LerpRGBA@gfxRenderState@@QAEIIIM@Z 004cd720 f   gfx:rstate.obj
 0001:000cc7f0       ?LightEnable@gfxRenderState@@QAEXH_N@Z 004cd7f0 f   gfx:rstate.obj
 0001:000cc840       ?SetLight@gfxRenderState@@QAEXHPBUgfxLight@@@Z 004cd840 f   gfx:rstate.obj
 0001:000cc8b0       ?DisableAllLights@gfxRenderState@@QAEXXZ 004cd8b0 f   gfx:rstate.obj
 0001:000cc8e0       ?GetLight@gfxRenderState@@QAEXHPAUgfxLight@@@Z 004cd8e0 f   gfx:rstate.obj
 0001:000cc910       ?SetTexSource@gfxRenderState@@QAEXHH@Z 004cd910 f   gfx:rstate.obj
 0001:000cc930       ?SetBlendSet@gfxRenderState@@QAEXW4gfxBlendSet@@E@Z 004cd930 f   gfx:rstate.obj
 0001:000ccb70       ?SetTexTransform@gfxRenderState@@QAEXHH_N@Z 004cdb70 f   gfx:rstate.obj
 0001:000ccba0       ?SetTexMipmapBias@gfxRenderState@@QAEXHM@Z 004cdba0 f   gfx:rstate.obj
 0001:000ccbc0       ?SetTexMatrix@gfxRenderState@@QAEXHABVMatrix44@@@Z 004cdbc0 f   gfx:rstate.obj
 0001:000ccbe0       ?SetBlendMatrix@gfxRenderState@@QAEXHABVMatrix44@@@Z 004cdbe0 f   gfx:rstate.obj
 0001:000ccc00       ?SetCard@gfxRenderState@@SAXABVVector3@@@Z 004cdc00 f   gfx:rstate.obj
 0001:000cccd0       ?SetCard@gfxRenderState@@SAXABVVector4@@@Z 004cdcd0 f   gfx:rstate.obj
 0001:000ccda0       ?Regenerate@gfxRenderState@@CAXXZ 004cdda0 f   gfx:rstate.obj
 0001:000cd0e0       ?SetCamera@gfxRenderState@@SAXABVMatrix34@@@Z 004ce0e0 f   gfx:rstate.obj
 0001:000cd190       ?SetCamera@gfxRenderState@@SAXABVMatrix44@@@Z 004ce190 f   gfx:rstate.obj
 0001:000cd1f0       ?_SetView@gfxRenderState@@SAXABVMatrix34@@@Z 004ce1f0 f   gfx:rstate.obj
 0001:000cd2c0       ?SetCameraFull@gfxRenderState@@SAXABVMatrix34@@@Z 004ce2c0 f   gfx:rstate.obj
 0001:000cd450       ?AddPackedColor@gfxPipeline@@SAXAAVbkBank@@PBDPAI@Z 004ce450 f   gfx:rstate.obj
 0001:000cd680       ?AddPackedColor@gfxPipeline@@SAXAAVbkBank@@PBDPAIAAVdatCallback@@@Z 004ce680 f   gfx:rstate.obj
 0001:000cd800       ?AddWidgets@gfxPipeline@@SAXAAVbkBank@@@Z 004ce800 f   gfx:rstate.obj
 0001:000ce0e0       ?AddWidgets@gfxMaterial@@QAEXAAVbkBank@@@Z 004cf0e0 f   gfx:rstate.obj
 0001:000ce240       ?AddWidgets@gfxLight@@QAEXAAVbkBank@@@Z 004cf240 f   gfx:rstate.obj
 0001:000ce450       ?gfxDrawFont@@YAXABVVector4@@PBDABUgfxFontInfo@@@Z 004cf450 f   gfx:font.obj
 0001:000ce580       ?gfxDrawFont@@YAXHHPBDABUgfxFontInfo@@@Z 004cf580 f   gfx:font.obj
 0001:000ce5c0       ?gfxCreateFont@@YAXXZ      004cf5c0 f   gfx:font.obj
 0001:000ce620       ?gfxFontGetWidth@@YAHXZ    004cf620 f   gfx:font.obj
 0001:000ce630       ?gfxFontGetHeight@@YAHXZ   004cf630 f   gfx:font.obj
 0001:000ce640       ?gfxDrawFont@@YAXHHPBD@Z   004cf640 f   gfx:font.obj
 0001:000ce6c0       ?gfxReleaseFont@@YAXXZ     004cf6c0 f   gfx:font.obj
 0001:000ce720       ?gfxComputeFontExtents@@YAXAAH0PBDABUgfxFontInfo@@@Z 004cf720 f   gfx:font.obj
 0001:000ce790       ?CreateLocalBankManager@@YAPAVbkManager@@XZ 004cf790 f   gfx:bank.obj
 0001:000ce800       ?NewBank@bkLocalManager@@UAEPAVbkBank@@PBDHH_N@Z 004cf800 f   gfx:bank.obj
 0001:000ce870       ??0gfxBank@@QAE@PBDHH_N@Z  004cf870 f   gfx:bank.obj
 0001:000ce9d0       ?Print@gfxBank@@UAEXHHPBD@Z 004cf9d0 f   gfx:bank.obj
 0001:000cea40       ?Input@gfxBank@@UAEHAAM@Z  004cfa40 f   gfx:bank.obj
 0001:000cebd0       ??_EbkLocalManager@@UAEPAXI@Z 004cfbd0 f i gfx:bank.obj
 0001:000cebd0       ??_GbkLocalManager@@UAEPAXI@Z 004cfbd0 f i gfx:bank.obj
 0001:000cec00       ??_EgfxBank@@UAEPAXI@Z     004cfc00 f i gfx:bank.obj
 0001:000cec00       ??_GgfxBank@@UAEPAXI@Z     004cfc00 f i gfx:bank.obj
 0001:000cec30       ??1bkLocBank@@UAE@XZ       004cfc30 f i gfx:bank.obj
 0001:000cec40       ??1gfxBank@@UAE@XZ         004cfc40 f i gfx:bank.obj
 0001:000cec50       ?Resize@bkBank@@UAEXXZ     004cfc50 f i gfx:bank.obj
 0001:000cec60       ?Raise@bkBank@@UAEX_N@Z    004cfc60 f i gfx:bank.obj
 0001:000cec70       ??0gfxViewport@@AAE@XZ     004cfc70 f   gfx:viewport.obj
 0001:000cede0       ?ResetWindow@gfxViewport@@QAEXXZ 004cfde0 f   gfx:viewport.obj
 0001:000cee00       ?SetWindow@gfxViewport@@QAEXHHHHMM@Z 004cfe00 f   gfx:viewport.obj
 0001:000cefb0       ?Perspective@gfxViewport@@QAEXMMMM@Z 004cffb0 f   gfx:viewport.obj
 0001:000cf170       ?Ortho@gfxViewport@@QAEXMMMMMM@Z 004d0170 f   gfx:viewport.obj
 0001:000cf240       ?DoFlush@gfxViewport@@AAEXXZ 004d0240 f   gfx:viewport.obj
 0001:000cf2d0       ?Project@gfxViewport@@QAEXAAVVector4@@0@Z 004d02d0 f   gfx:viewport.obj
 0001:000cf320       ?ComputeVFOV@gfxViewport@@QBEMM@Z 004d0320 f   gfx:viewport.obj
 0001:000cf340       ?IsSphereVisible@gfxViewport@@QBE?AW4gfxCullStatus@@MMMMPAM@Z 004d0340 f   gfx:viewport.obj
 0001:000cf500       ?DoPerspective@gfxViewport@@SAXPAV1@@Z 004d0500 f   gfx:viewport.obj
 0001:000cf530       ?AddWidgets@gfxViewport@@QAEXAAVbkBank@@@Z 004d0530 f   gfx:viewport.obj
 0001:000cf790       ??0Vector4@@QAE@MMMM@Z     004d0790 f i gfx:viewport.obj
 0001:000cf7b0       ?StartFade@gfxPipeline@@SAXIM@Z 004d07b0 f   gfx:pipecom.obj
 0001:000cf7f0       ?SetFade@gfxPipeline@@SAXI@Z 004d07f0 f   gfx:pipecom.obj
 0001:000cf810       ?CopyClippedBitmap@gfxPipeline@@SA_NHHPAVgfxBitmap@@HHHH_N@Z 004d0810 f   gfx:pipecom.obj
 0001:000cf850       ?CopyClippedBitmap@gfxPipeline@@SA_NHHPAVgfxBitmap@@HHHHHHHH_N@Z 004d0850 f   gfx:pipecom.obj
 0001:000cf900       ?gfxFVFSize@@YAII@Z        004d0900 f   gfx:pipecom.obj
 0001:000cf950       ?gfxFVFOffset@@YAIII@Z     004d0950 f   gfx:pipecom.obj
 0001:000cf9b0       ?ForceSetViewport@gfxPipeline@@CAXPAVgfxViewport@@@Z 004d09b0 f   gfx:pipecom.obj
 0001:000cfa50       ?DefaultSaveScreenShot@gfxPipeline@@CAXXZ 004d0a50 f   gfx:pipecom.obj
 0001:000cfab0       ?RequestScreenShot@gfxPipeline@@SAXPBD@Z 004d0ab0 f   gfx:pipecom.obj
 0001:000cfaf0       ?SaveShotDialog@gfxPipeline@@SAXXZ 004d0af0 f   gfx:pipecom.obj
 0001:000cfbd0       ?gfxSetTexReduceSize@@YAHH@Z 004d0bd0 f   gfx:gettex.obj
 0001:000cfbf0       ?gfxDefaultPrepareImage@@YAPAVgfxImage@@PAV1@PBD_N@Z 004d0bf0 f   gfx:gettex.obj
 0001:000cfc50       ?DisplayTexMemUsage@@YAXPAD@Z 004d0c50 f   gfx:gettex.obj
 0001:000cfca0       ?gfxImageSetPixel@@YAXPAVgfxImage@@HHHH@Z 004d0ca0 f   gfx:gettex.obj
 0001:000cfdf0       ?gfxAnnotateImage@@YAXPAVgfxImage@@PBD@Z 004d0df0 f   gfx:gettex.obj
 0001:000cff30       ?gfxGetTexture@@YAPAVgfxTexture@@PBD_N@Z 004d0f30 f   gfx:gettex.obj
 0001:000d0080       ?gfxFreeTexture@@YAXPAVgfxTexture@@@Z 004d1080 f   gfx:gettex.obj
 0001:000d00c0       ?gfxGetBitmap@@YAPAVgfxBitmap@@PBD_N1@Z 004d10c0 f   gfx:gettex.obj
 0001:000d0180       ?gfxFreeBitmap@@YAXPAVgfxBitmap@@@Z 004d1180 f   gfx:gettex.obj
 0001:000d01c0       ?ForceCPV@gfxPacket@@SAXI@Z 004d11c0 f   gfx:packet.obj
 0001:000d01d0       ?BeginRef@gfxPacket@@SAXXZ 004d11d0 f   gfx:packet.obj
 0001:000d01e0       ?BeginProp@gfxPacket@@SAXXZ 004d11e0 f   gfx:packet.obj
 0001:000d01f0       ?Draw@gfxPacket@@QBEXI@Z   004d11f0 f   gfx:packet.obj
 0001:000d0400       ?Draw@gfxPacket@@QBEXPBVMatrix44@@I@Z 004d1400 f   gfx:packet.obj
 0001:000d0850       ??0gfxPacket@@QAE@IIIPBEIPBGIPAVgfxReskin@@IE00_N@Z 004d1850 f   gfx:packet.obj
 0001:000d0bd0       ?GetSkinnedVert@gfxPacket@@QBEXPBVMatrix34@@AAVVector3@@H@Z 004d1bd0 f   gfx:packet.obj
 0001:000d0c00       ?GetPosition@gfxPacket@@QBEXAAVVector3@@H@Z 004d1c00 f   gfx:packet.obj
 0001:000d0c60       ?SetPosition@gfxPacket@@QBEXABVVector3@@H@Z 004d1c60 f   gfx:packet.obj
 0001:000d0ce0       ?GetNormal@gfxPacket@@QBEXAAVVector3@@H@Z 004d1ce0 f   gfx:packet.obj
 0001:000d0d80       ?SetNormal@gfxPacket@@QBEXABVVector3@@H@Z 004d1d80 f   gfx:packet.obj
 0001:000d0e10       ?GetTexCoord@gfxPacket@@QBEXAAVVector2@@H@Z 004d1e10 f   gfx:packet.obj
 0001:000d0eb0       ?GetTri@gfxPacket@@QBEXQAHH@Z 004d1eb0 f   gfx:packet.obj
 0001:000d0ef0       ?SetPacking@gfxPacket@@SAXMEEEME@Z 004d1ef0 f   gfx:packet.obj
 0001:000d0f30       ?SetDefaultPacking@gfxPacket@@SAXXZ 004d1f30 f   gfx:packet.obj
 0001:000d0f50       ?AutoSetPacking@gfxPacket@@SAXIIPBE@Z 004d1f50 f   gfx:packet.obj
 0001:000d10e0       ?Clone@gfxPacket@@QBEPAV1@XZ 004d20e0 f   gfx:packet.obj
 0001:000d1160       ??0gfxPacket@@QAE@PBV0@@Z  004d2160 f   gfx:packet.obj
 0001:000d1250       ?CopyFrom@gfxPacket@@QAEXPBV1@@Z 004d2250 f   gfx:packet.obj
 0001:000d13f0       ?AllocateVertexBuffer@gfxPacket@@IAEXXZ 004d23f0 f   gfx:packet.obj
 0001:000d15b0       ?ReserveVertexBuffer@gfxPacket@@SAXII@Z 004d25b0 f   gfx:packet.obj
 0001:000d1610       ?Persist@gfxPacket@@KAPAEPAUIDirect3DVertexBuffer7@@IPAXI@Z 004d2610 f   gfx:packet.obj
 0001:000d16b0       ?FreeAllVertexBuffers@gfxPacket@@SAXXZ 004d26b0 f   gfx:packet.obj
 0001:000d1700       ?RestoreAllVertexBuffers@gfxPacket@@SAXXZ 004d2700 f   gfx:packet.obj
 0001:000d1790       ?DoLock@gfxPacket@@IAEXXZ  004d2790 f   gfx:packet.obj
 0001:000d17d0       ?DoUnlock@gfxPacket@@IAEXXZ 004d27d0 f   gfx:packet.obj
 0001:000d1810       ?OrthoMap@gfxPacket@@QAEXM@Z 004d2810 f   gfx:packet.obj
 0001:000d1970       ?MakeList@gfxPacket@@SAPAVgfxPacketList@@PAV1@@Z 004d2970 f   gfx:packet.obj
 0001:000d1980       ?DrawList@gfxPacket@@SAXPBVgfxPacketList@@@Z 004d2980 f   gfx:packet.obj
 0001:000d19f0       ?gfxGetTextureMovie@@YAPAVgfxTextureMovie@@AAPAVgfxTexture@@PBD_N@Z 004d29f0 f   gfx:texmovie.obj
 0001:000d1c00       ?UpdateAll@gfxTextureMovie@@SAXM@Z 004d2c00 f   gfx:texmovie.obj
 0001:000d1c30       ?KillAll@gfxTextureMovie@@SAXXZ 004d2c30 f   gfx:texmovie.obj
 0001:000d1c40       ?Update@gfxTextureMovie@@QAEXM@Z 004d2c40 f   gfx:texmovie.obj
 0001:000d1cb0       ??0gfxTextureMovie@@AAE@PBDH@Z 004d2cb0 f   gfx:texmovie.obj
 0001:000d1d10       ?AddClient@gfxTextureMovie@@QAEXPAPAVgfxTexture@@@Z 004d2d10 f   gfx:texmovie.obj
 0001:000d1d50       ?DoFlush@gfxRenderState@@QAEXPAVgfxRenderStateData@@@Z 004d2d50 f   gfx:rstateflush.obj
 0001:000d24c0       ?gfxBuildPackets@@YAPAVgfxPacket@@IIIPBEIPAGIII@Z 004d34c0 f   gfx:buildpkt.obj
 0001:000d2970       ?GenerateTriStrips@@YAPAGIIPBGAAII@Z 004d3970 f   gfx:tristrip.obj
 0001:000d2fb0       ?BeginInternal@gfxPipeline@@SAXXZ 004d3fb0 f   gfx:renderer.obj
 0001:000d2fd0       ?EndInternal@gfxPipeline@@SAXXZ 004d3fd0 f   gfx:renderer.obj
 0001:000d3070       ?Render@gfxPipeline@@SAXW4gfxDrawMode@@IIPAX@Z 004d4070 f   gfx:renderer.obj
 0001:000d5150       ?RenderIdx@gfxPipeline@@SAXW4gfxDrawMode@@IIPAXIPAG@Z 004d6150 f   gfx:renderer.obj
 0001:000d7690       ?GetInfo@AgeDevice@@UAGJKPAXK@Z 004d8690 f   gfx:swdev.obj
 0001:000d76b0       ?GetClipPlane@AgeDevice@@UAGJKPAM@Z 004d86b0 f   gfx:swdev.obj
 0001:000d76d0       ?SetClipPlane@AgeDevice@@UAGJKPAM@Z 004d86d0 f   gfx:swdev.obj
 0001:000d76f0       ?GetLightEnable@AgeDevice@@UAGJKPAH@Z 004d86f0 f   gfx:swdev.obj
 0001:000d7710       ?LightEnable@AgeDevice@@UAGJKH@Z 004d8710 f   gfx:swdev.obj
 0001:000d7730       ?Load@AgeDevice@@UAGJPAUIDirectDrawSurface7@@PAUtagPOINT@@0PAUtagRECT@@K@Z 004d8730 f   gfx:swdev.obj
 0001:000d7790       ?CreateStateBlock@AgeDevice@@UAGJW4_D3DSTATEBLOCKTYPE@@PAK@Z 004d8790 f   gfx:swdev.obj
 0001:000d77b0       ?DeleteStateBlock@AgeDevice@@UAGJK@Z 004d87b0 f   gfx:swdev.obj
 0001:000d77d0       ?CaptureStateBlock@AgeDevice@@UAGJK@Z 004d87d0 f   gfx:swdev.obj
 0001:000d77f0       ?ApplyStateBlock@AgeDevice@@UAGJK@Z 004d87f0 f   gfx:swdev.obj
 0001:000d7810       ?ValidateDevice@AgeDevice@@UAGJPAK@Z 004d8810 f   gfx:swdev.obj
 0001:000d7830       ?SetTextureStageState@AgeDevice@@UAGJKW4_D3DTEXTURESTAGESTATETYPE@@K@Z 004d8830 f   gfx:swdev.obj
 0001:000d7b10       ?GetTextureStageState@AgeDevice@@UAGJKW4_D3DTEXTURESTAGESTATETYPE@@PAK@Z 004d8b10 f   gfx:swdev.obj
 0001:000d7b30       ?SetTexture@AgeDevice@@UAGJKPAUIDirectDrawSurface7@@@Z 004d8b30 f   gfx:swdev.obj
 0001:000d7bd0       ?GetTexture@AgeDevice@@UAGJKPAPAUIDirectDrawSurface7@@@Z 004d8bd0 f   gfx:swdev.obj
 0001:000d7bf0       ?ComputeSphereVisibility@AgeDevice@@UAGJPAU_D3DVECTOR@@PAMKKPAK@Z 004d8bf0 f   gfx:swdev.obj
 0001:000d7c10       ?DrawIndexedPrimitiveVB@AgeDevice@@UAGJW4_D3DPRIMITIVETYPE@@PAUIDirect3DVertexBuffer7@@KKPAGKK@Z 004d8c10 f   gfx:swdev.obj
 0001:000d7c30       ?DrawPrimitiveVB@AgeDevice@@UAGJW4_D3DPRIMITIVETYPE@@PAUIDirect3DVertexBuffer7@@KKK@Z 004d8c30 f   gfx:swdev.obj
 0001:000d7c50       ?DrawIndexedPrimitiveStrided@AgeDevice@@UAGJW4_D3DPRIMITIVETYPE@@KPAU_D3DDRAWPRIMITIVESTRIDEDDATA@@KPAGKK@Z 004d8c50 f   gfx:swdev.obj
 0001:000d7c70       ?DrawPrimitiveStrided@AgeDevice@@UAGJW4_D3DPRIMITIVETYPE@@KPAU_D3DDRAWPRIMITIVESTRIDEDDATA@@KK@Z 004d8c70 f   gfx:swdev.obj
 0001:000d7c90       ?GetClipStatus@AgeDevice@@UAGJPAU_D3DCLIPSTATUS@@@Z 004d8c90 f   gfx:swdev.obj
 0001:000d7cb0       ?SetClipStatus@AgeDevice@@UAGJPAU_D3DCLIPSTATUS@@@Z 004d8cb0 f   gfx:swdev.obj
 0001:000d7cd0       ?DrawIndexedPrimitive@AgeDevice@@UAGJW4_D3DPRIMITIVETYPE@@KPAXKPAGKK@Z 004d8cd0 f   gfx:swdev.obj
 0001:000d7e70       ?DrawPrimitive@AgeDevice@@UAGJW4_D3DPRIMITIVETYPE@@KPAXKK@Z 004d8e70 f   gfx:swdev.obj
 0001:000d7f70       ?PreLoad@AgeDevice@@UAGJPAUIDirectDrawSurface7@@@Z 004d8f70 f   gfx:swdev.obj
 0001:000d7f90       ?EndStateBlock@AgeDevice@@UAGJPAK@Z 004d8f90 f   gfx:swdev.obj
 0001:000d7fb0       ?BeginStateBlock@AgeDevice@@UAGJXZ 004d8fb0 f   gfx:swdev.obj
 0001:000d7fd0       ?GetRenderState@AgeDevice@@UAGJW4_D3DRENDERSTATETYPE@@PAK@Z 004d8fd0 f   gfx:swdev.obj
 0001:000d7ff0       ?SetRenderState@AgeDevice@@UAGJW4_D3DRENDERSTATETYPE@@K@Z 004d8ff0 f   gfx:swdev.obj
 0001:000d8010       ?GetLight@AgeDevice@@UAGJKPAU_D3DLIGHT7@@@Z 004d9010 f   gfx:swdev.obj
 0001:000d8040       ?SetLight@AgeDevice@@UAGJKPAU_D3DLIGHT7@@@Z 004d9040 f   gfx:swdev.obj
 0001:000d8070       ?GetMaterial@AgeDevice@@UAGJPAU_D3DMATERIAL7@@@Z 004d9070 f   gfx:swdev.obj
 0001:000d8090       ?SetMaterial@AgeDevice@@UAGJPAU_D3DMATERIAL7@@@Z 004d9090 f   gfx:swdev.obj
 0001:000d80b0       ?GetViewport@AgeDevice@@UAGJPAU_D3DVIEWPORT7@@@Z 004d90b0 f   gfx:swdev.obj
 0001:000d80d0       ?MultiplyTransform@AgeDevice@@UAGJW4_D3DTRANSFORMSTATETYPE@@PAU_D3DMATRIX@@@Z 004d90d0 f   gfx:swdev.obj
 0001:000d80f0       ?SetViewport@AgeDevice@@UAGJPAU_D3DVIEWPORT7@@@Z 004d90f0 f   gfx:swdev.obj
 0001:000d8100       ?GetTransform@AgeDevice@@UAGJW4_D3DTRANSFORMSTATETYPE@@PAU_D3DMATRIX@@@Z 004d9100 f   gfx:swdev.obj
 0001:000d8120       ?SetTransform@AgeDevice@@UAGJW4_D3DTRANSFORMSTATETYPE@@PAU_D3DMATRIX@@@Z 004d9120 f   gfx:swdev.obj
 0001:000d8130       ?Clear@AgeDevice@@UAGJKPAU_D3DRECT@@KKMK@Z 004d9130 f   gfx:swdev.obj
 0001:000d81f0       ?GetRenderTarget@AgeDevice@@UAGJPAPAUIDirectDrawSurface7@@@Z 004d91f0 f   gfx:swdev.obj
 0001:000d8210       ?SetRenderTarget@AgeDevice@@UAGJPAUIDirectDrawSurface7@@K@Z 004d9210 f   gfx:swdev.obj
 0001:000d83d0       ?GetDirect3D@AgeDevice@@UAGJPAPAUIDirect3D7@@@Z 004d93d0 f   gfx:swdev.obj
 0001:000d83f0       ?EndScene@AgeDevice@@UAGJXZ 004d93f0 f   gfx:swdev.obj
 0001:000d8410       ?BeginScene@AgeDevice@@UAGJXZ 004d9410 f   gfx:swdev.obj
 0001:000d8480       ?EnumTextureFormats@AgeDevice@@UAGJP6GJPAU_DDPIXELFORMAT@@PAX@Z1@Z 004d9480 f   gfx:swdev.obj
 0001:000d84b0       ?GetCaps@AgeDevice@@UAGJPAU_D3DDeviceDesc7@@@Z 004d94b0 f   gfx:swdev.obj
 0001:000d8510       ?Release@AgeDevice@@UAGKXZ 004d9510 f   gfx:swdev.obj
 0001:000d8540       ?AddRef@AgeDevice@@UAGKXZ  004d9540 f   gfx:swdev.obj
 0001:000d8550       ?QueryInterface@AgeDevice@@UAGJABU_GUID@@PAPAX@Z 004d9550 f   gfx:swdev.obj
 0001:000d8570       ?Initialize@AgeDevice@@UAGJPAUIDirectDrawSurface7@@@Z 004d9570 f   gfx:swdev.obj
 0001:000d8710       _CreateAgeDevice           004d9710 f   gfx:swdev.obj
 0001:000d8730       ?Begin@ioInput@@SAX_N@Z    004d9730 f   input:input.obj
 0001:000d8760       ?End@ioInput@@SAXXZ        004d9760 f   input:input.obj
 0001:000d8780       ?Poll@ioInput@@SAXXZ       004d9780 f   input:input.obj
 0001:000d8790       ?Update@ioInput@@SAXXZ     004d9790 f   input:input.obj
 0001:000d87b0       ?Begin@ioKeyboard@@SAX_N@Z 004d97b0 f   input:keyboard.obj
 0001:000d88a0       ?End@ioKeyboard@@SAXXZ     004d98a0 f   input:keyboard.obj
 0001:000d88e0       ?Update@ioKeyboard@@SAXXZ  004d98e0 f   input:keyboard.obj
 0001:000d8960       ?GetBufferedInput@ioKeyboard@@SAHPADH@Z 004d9960 f   input:keyboard.obj
 0001:000d8a10       ?Pop@ioEventQueue@@SA_NAAUioEvent@@@Z 004d9a10 f   input:eventq.obj
 0001:000d8a60       ?Peek@ioEventQueue@@SA_NAAUioEvent@@AAH@Z 004d9a60 f   input:eventq.obj
 0001:000d8ab0       ?Queue@ioEventQueue@@SAXW4ioEventType@ioEvent@@HHH@Z 004d9ab0 f   input:eventq.obj
 0001:000d8b30       ?Command@ioEventQueue@@SAXPAX@Z 004d9b30 f   input:eventq.obj
 0001:000d8b50       ?AddHotKey@ioKeyboard@@SAXPBD000@Z 004d9b50 f   input:winpriv.obj
 0001:000d8be0       ??0winDispatchable@@QAE@I@Z 004d9be0 f   input:winpriv.obj
 0001:000d8c40       ??1winDispatchable@@UAE@XZ 004d9c40 f   input:winpriv.obj
 0001:000d8c70       ?InputWindowProc@@YGJPAUHWND__@@IIJ@Z 004d9c70 f   input:winpriv.obj
 0001:000d9190       ?diInit@@YAXXZ             004da190 f   input:winpriv.obj
 0001:000d91e0       ??_EwinDispatchable@@UAEPAXI@Z 004da1e0 f i input:winpriv.obj
 0001:000d91e0       ??_GwinDispatchable@@UAEPAXI@Z 004da1e0 f i input:winpriv.obj
 0001:000d9210       ?Begin@ioMouse@@SAX_N@Z    004da210 f   input:mouse.obj
 0001:000d9350       ?End@ioMouse@@SAXXZ        004da350 f   input:mouse.obj
 0001:000d9390       ?Update@ioMouse@@SAXXZ     004da390 f   input:mouse.obj
 0001:000d94d0       ?Begin@ioPad@@AAEXH@Z      004da4d0 f   input:pad.obj
 0001:000d9510       ?End@ioPad@@AAEXXZ         004da510 f   input:pad.obj
 0001:000d9520       ?Update@ioPad@@AAEXXZ      004da520 f   input:pad.obj
 0001:000d9710       ?AddDeadZone@@YAMMM@Z      004da710 f   input:pad.obj
 0001:000d97a0       ?BeginAll@ioPad@@SAXXZ     004da7a0 f   input:pad.obj
 0001:000d97c0       ?EndAll@ioPad@@SAXXZ       004da7c0 f   input:pad.obj
 0001:000d97e0       ?UpdateAll@ioPad@@SAXXZ    004da7e0 f   input:pad.obj
 0001:000d9800       ?UpdateDebug@ioPad@@AAEXXZ 004da800 f   input:pad.obj
 0001:000d9880       ??0ioPad@@QAE@XZ           004da880 f i input:pad.obj
 0001:000d98a0       ??1ioPad@@QAE@XZ           004da8a0 f i input:pad.obj
 0001:000d98b0       ?EnumDeviceProc@ioJoystick@@CGHPBUDIDEVICEINSTANCEA@@PAX@Z 004da8b0 f   input:joystick.obj
 0001:000d9ac0       ?BeginAll@ioJoystick@@SAXXZ 004daac0 f   input:joystick.obj
 0001:000d9b20       ?PollAll@ioJoystick@@SAXXZ 004dab20 f   input:joystick.obj
 0001:000d9b50       ?UpdateAll@ioJoystick@@SAXXZ 004dab50 f   input:joystick.obj
 0001:000d9b80       ?EndAll@ioJoystick@@SAXXZ  004dab80 f   input:joystick.obj
 0001:000d9bb0       ?EnumObjectProc@ioJoystick@@CGHPBUDIDEVICEOBJECTINSTANCEA@@PAX@Z 004dabb0 f   input:joystick.obj
 0001:000d9c80       ?Begin@ioJoystick@@AAEXXZ  004dac80 f   input:joystick.obj
 0001:000d9de0       ?Poll@ioJoystick@@AAEXXZ   004dade0 f   input:joystick.obj
 0001:000d9df0       ?Update@ioJoystick@@AAEXXZ 004dadf0 f   input:joystick.obj
 0001:000d9eb0       ?End@ioJoystick@@AAEXXZ    004daeb0 f   input:joystick.obj
 0001:000d9ee0       ??0bkManager@@IAE@XZ       004daee0 f   bank:bkmgr.obj
 0001:000d9ef0       ??1bkManager@@MAE@XZ       004daef0 f   bank:bkmgr.obj
 0001:000d9f40       ?GetNextMessage@bkManager@@UAE_N_N@Z 004daf40 f   bank:bkmgr.obj
 0001:000d9f50       ?DeleteBankManager@bkManager@@SAXXZ 004daf50 f   bank:bkmgr.obj
 0001:000d9fa0       ?CreateBankManager@bkManager@@SAXP6APAV1@XZ@Z 004dafa0 f   bank:bkmgr.obj
 0001:000da1c0       ?GetDefaultConfigName@bkManager@@KAPBDXZ 004db1c0 f   bank:bkmgr.obj
 0001:000da2b0       ?Update@bkManager@@UAEXXZ  004db2b0 f   bank:bkmgr.obj
 0001:000da300       ?Draw@bkManager@@UAEXXZ    004db300 f   bank:bkmgr.obj
 0001:000da310       ?ActivateBankCB@bkManager@@SAXPAVbkBank@@@Z 004db310 f   bank:bkmgr.obj
 0001:000da340       ?CreateBank@bkManager@@QAEAAVbkBank@@PBDHH_N@Z 004db340 f   bank:bkmgr.obj
 0001:000da460       ?DestroyBank@bkManager@@QAEXAAVbkBank@@@Z 004db460 f   bank:bkmgr.obj
 0001:000da550       ?ActivateBank@bkManager@@QAEXPAD@Z 004db550 f   bank:bkmgr.obj
 0001:000da5b0       ?ActivateAllBanks@bkManager@@QAEXXZ 004db5b0 f   bank:bkmgr.obj
 0001:000da5e0       ?RaiseAllBanks@bkManager@@QAEX_N@Z 004db5e0 f   bank:bkmgr.obj
 0001:000da620       ?FindBank@bkManager@@QAEPAVbkBank@@PBD@Z 004db620 f   bank:bkmgr.obj
 0001:000da670       ?SaveConfig@bkManager@@QAEXPBD@Z 004db670 f   bank:bkmgr.obj
 0001:000da750       ?LoadConfig@bkManager@@QAEXPBD@Z 004db750 f   bank:bkmgr.obj
 0001:000da870       ?FindWidget@bkManager@@QAEPAVbkWidget@@PAVbkBank@@PBD@Z 004db870 f   bank:bkmgr.obj
 0001:000da8d0       ??_EbkManager@@MAEPAXI@Z   004db8d0 f i bank:bkmgr.obj
 0001:000da8d0       ??_GbkManager@@MAEPAXI@Z   004db8d0 f i bank:bkmgr.obj
 0001:000da900       ??0bkWinManager@@IAE@XZ    004db900 f   bank:bkwinmgr.obj
 0001:000daa70       ??1bkWinManager@@MAE@XZ    004dba70 f   bank:bkwinmgr.obj
 0001:000daaa0       ?GetBank@bkWinManager@@IAEPAVbkWinBank@@PAUHWND__@@@Z 004dbaa0 f   bank:bkwinmgr.obj
 0001:000daae0       ?GetNextMessage@bkWinManager@@UAE_N_N@Z 004dbae0 f   bank:bkwinmgr.obj
 0001:000dab80       ?bkWinBankProc@@YGJPAUHWND__@@IIJ@Z 004dbb80 f   bank:bkwinmgr.obj
 0001:000db150       ?CreateWin32BankManager@@YAPAVbkManager@@XZ 004dc150 f   bank:bkwinmgr.obj
 0001:000db1b0       ?NewBank@bkWinManager@@UAEPAVbkBank@@PBDHH_N@Z 004dc1b0 f   bank:bkwinmgr.obj
 0001:000db230       ?OpenFile@bkManager@@QAEPBDPBD_N0@Z 004dc230 f   bank:bkwinmgr.obj
 0001:000db3a0       ?OpenFile@bkManager@@QAE_NPADHPBD_N1@Z 004dc3a0 f   bank:bkwinmgr.obj
 0001:000db4b0       ??_GbkWinManager@@MAEPAXI@Z 004dc4b0 f i bank:bkwinmgr.obj
 0001:000db4b0       ??_EbkWinManager@@MAEPAXI@Z 004dc4b0 f i bank:bkwinmgr.obj
 0001:000db4e0       ??0bkBank@@QAE@PBD@Z       004dc4e0 f   bank:bank.obj
 0001:000db510       ??1bkBank@@UAE@XZ          004dc510 f   bank:bank.obj
 0001:000db520       ?Update@bkBank@@UAEXXZ     004dc520 f   bank:bank.obj
 0001:000db550       ?AddTitle@bkBank@@UAEPAVbkButton@@PBD@Z 004dc550 f   bank:bank.obj
 0001:000db600       ?AddButton@bkBank@@UAEPAVbkButton@@PBDVdatCallback@@@Z 004dc600 f   bank:bank.obj
 0001:000db6a0       ?AddText@bkBank@@UAEPAVbkText@@PBDPADI_NVdatCallback@@@Z 004dc6a0 f   bank:bank.obj
 0001:000db750       ?AddToggle@bkBank@@UAEPAVbkToggle@@PBDPA_NVdatCallback@@@Z 004dc750 f   bank:bank.obj
 0001:000db7f0       ?AddToggle@bkBank@@UAEPAVbkToggle@@PBDPAHVdatCallback@@@Z 004dc7f0 f   bank:bank.obj
 0001:000db890       ?AddToggle@bkBank@@UAEPAVbkToggle@@PBDPAIIVdatCallback@@@Z 004dc890 f   bank:bank.obj
 0001:000db930       ?AddToggle@bkBank@@UAEPAVbkToggle@@PBDPAGGVdatCallback@@@Z 004dc930 f   bank:bank.obj
 0001:000db9d0       ?AddToggle@bkBank@@UAEPAVbkToggle@@PBDPAEEVdatCallback@@@Z 004dc9d0 f   bank:bank.obj
 0001:000dba70       ?AddSlider@bkBank@@MAEPAVbkSlider@@PBDAAVbkSliderData@@VdatCallback@@@Z 004dca70 f   bank:bank.obj
 0001:000dbaf0       ?AddSlider@bkBank@@UAEPAVbkSlider@@PBDPAMMMMVdatCallback@@@Z 004dcaf0 f   bank:bank.obj
 0001:000dbc90       ?AddSlider@bkBank@@UAEPAVbkSlider@@PBDPAEEEMVdatCallback@@@Z 004dcc90 f   bank:bank.obj
 0001:000dbdf0       ?AddSlider@bkBank@@UAEPAVbkSlider@@PBDPACCCMVdatCallback@@@Z 004dcdf0 f   bank:bank.obj
 0001:000dbf50       ?AddSlider@bkBank@@UAEPAVbkSlider@@PBDPAIIIMVdatCallback@@@Z 004dcf50 f   bank:bank.obj
 0001:000dc0c0       ?AddSlider@bkBank@@UAEPAVbkSlider@@PBDPAHHHMVdatCallback@@@Z 004dd0c0 f   bank:bank.obj
 0001:000dc210       ?AddSlider@bkBank@@UAEPAVbkSlider@@PBDPAGGGMVdatCallback@@@Z 004dd210 f   bank:bank.obj
 0001:000dc390       ?AddSlider@bkBank@@UAEPAVbkSlider@@PBDPAFFFMVdatCallback@@@Z 004dd390 f   bank:bank.obj
 0001:000dc500       ?AddSlider@bkBank@@UAEPAVbkSlider@@PBDPAVVector2@@MMMVdatCallback@@@Z 004dd500 f   bank:bank.obj
 0001:000dc5b0       ?AddSlider@bkBank@@UAEPAVbkSlider@@PBDPAVVector3@@MMMVdatCallback@@@Z 004dd5b0 f   bank:bank.obj
 0001:000dc6a0       ?AddSlider@bkBank@@UAEPAVbkSlider@@PBDPAVVector4@@MMMVdatCallback@@@Z 004dd6a0 f   bank:bank.obj
 0001:000dc7d0       ?AddCombo@bkBank@@UAEPAVbkCombo@@PBDPAHHPAPBDHVdatCallback@@@Z 004dd7d0 f   bank:bank.obj
 0001:000dc860       ?AddCombo@bkBank@@UAEPAVbkCombo@@PBDPAEHPAPBDHVdatCallback@@@Z 004dd860 f   bank:bank.obj
 0001:000dc8f0       ?AddColor@bkBank@@UAEPAVbkColor@@PBDPAVVector3@@VdatCallback@@@Z 004dd8f0 f   bank:bank.obj
 0001:000dc970       ?AddColor@bkBank@@UAEPAVbkColor@@PBDPAVVector4@@VdatCallback@@@Z 004dd970 f   bank:bank.obj
 0001:000dc9f0       ?PushGroup@bkBank@@UAEPAVbkGroup@@PBD_N@Z 004dd9f0 f   bank:bank.obj
 0001:000dca60       ?PopGroup@bkBank@@UAEPAVbkGroup@@XZ 004dda60 f   bank:bank.obj
 0001:000dca70       ?AddWidget@bkBank@@UAEXPAVbkWidget@@@Z 004dda70 f   bank:bank.obj
 0001:000dcad0       ?SetWidgetWidth@bkBank@@QAEXH@Z 004ddad0 f   bank:bank.obj
 0001:000dcb30       ?UpdateGroup@bkBank@@UAEXABVbkGroup@@_N@Z 004ddb30 f   bank:bank.obj
 0001:000dccd0       ?Truncate@bkBank@@QAEXH@Z  004ddcd0 f   bank:bank.obj
 0001:000dcd30       ?Remove@bkBank@@UAE_NABVbkWidget@@@Z 004ddd30 f   bank:bank.obj
 0001:000dcdd0       ?Remove@bkBank@@UAE_NH@Z   004dddd0 f   bank:bank.obj
 0001:000dce60       ??_EbkBank@@UAEPAXI@Z      004dde60 f i bank:bank.obj
 0001:000dce60       ??_GbkBank@@UAEPAXI@Z      004dde60 f i bank:bank.obj
 0001:000dce90       ?IsShown@bkBank@@UAE_NXZ   004dde90 f i bank:bank.obj
 0001:000dcea0       ?Hide@bkBank@@UAEXXZ       004ddea0 f i bank:bank.obj
 0001:000dceb0       ?Show@bkBank@@UAEXXZ       004ddeb0 f i bank:bank.obj
 0001:000dcec0       ?AddText@bkBank@@UAEPAVbkText@@PBDPADIVdatCallback@@@Z 004ddec0 f i bank:bank.obj
 0001:000dcf00       ?IncrByDelta@?$bkSliderDataInt@E@@UAEXXZ 004ddf00 f i bank:bank.obj
 0001:000dcfb0       ?DecrByDelta@?$bkSliderDataInt@E@@UAEXXZ 004ddfb0 f i bank:bank.obj
 0001:000dd060       ?Incr@?$bkSliderDataInt@E@@UAEXM@Z 004de060 f i bank:bank.obj
 0001:000dd120       ?Update@?$bkSliderDataInt@E@@UAE_NPAD@Z 004de120 f i bank:bank.obj
 0001:000dd160       ?SetValue@?$bkSliderDataInt@E@@UAE_NPBD@Z 004de160 f i bank:bank.obj
 0001:000dd1f0       ?GetValue@?$bkSliderDataInt@E@@UAEXPAD@Z 004de1f0 f i bank:bank.obj
 0001:000dd210       ?SetAddr@?$bkSliderDataInt@E@@UAEXPAX@Z 004de210 f i bank:bank.obj
 0001:000dd220       ?SetRange@?$bkSliderDataInt@E@@UAEXMM@Z 004de220 f i bank:bank.obj
 0001:000dd250       ?IsFloat@?$bkSliderDataInt@E@@UBE_NXZ 004de250 f i bank:bank.obj
 0001:000dd260       ?CanBeNegative@?$bkSliderDataInt@E@@UBE_NXZ 004de260 f i bank:bank.obj
 0001:000dd270       ?IncrByDelta@?$bkSliderDataInt@C@@UAEXXZ 004de270 f i bank:bank.obj
 0001:000dd320       ?DecrByDelta@?$bkSliderDataInt@C@@UAEXXZ 004de320 f i bank:bank.obj
 0001:000dd3d0       ?Incr@?$bkSliderDataInt@C@@UAEXM@Z 004de3d0 f i bank:bank.obj
 0001:000dd490       ?Update@?$bkSliderDataInt@C@@UAE_NPAD@Z 004de490 f i bank:bank.obj
 0001:000dd4d0       ?SetValue@?$bkSliderDataInt@C@@UAE_NPBD@Z 004de4d0 f i bank:bank.obj
 0001:000dd560       ?GetValue@?$bkSliderDataInt@C@@UAEXPAD@Z 004de560 f i bank:bank.obj
 0001:000dd580       ?SetAddr@?$bkSliderDataInt@C@@UAEXPAX@Z 004de580 f i bank:bank.obj
 0001:000dd590       ?SetRange@?$bkSliderDataInt@C@@UAEXMM@Z 004de590 f i bank:bank.obj
 0001:000dd5c0       ?IsFloat@?$bkSliderDataInt@C@@UBE_NXZ 004de5c0 f i bank:bank.obj
 0001:000dd5d0       ?CanBeNegative@?$bkSliderDataInt@C@@UBE_NXZ 004de5d0 f i bank:bank.obj
 0001:000dd5e0       ?IncrByDelta@?$bkSliderDataInt@I@@UAEXXZ 004de5e0 f i bank:bank.obj
 0001:000dd6a0       ?DecrByDelta@?$bkSliderDataInt@I@@UAEXXZ 004de6a0 f i bank:bank.obj
 0001:000dd760       ?Incr@?$bkSliderDataInt@I@@UAEXM@Z 004de760 f i bank:bank.obj
 0001:000dd820       ?Update@?$bkSliderDataInt@I@@UAE_NPAD@Z 004de820 f i bank:bank.obj
 0001:000dd860       ?SetValue@?$bkSliderDataInt@I@@UAE_NPBD@Z 004de860 f i bank:bank.obj
 0001:000dd900       ?GetValue@?$bkSliderDataInt@I@@UAEXPAD@Z 004de900 f i bank:bank.obj
 0001:000dd920       ?SetAddr@?$bkSliderDataInt@I@@UAEXPAX@Z 004de920 f i bank:bank.obj
 0001:000dd930       ?SetRange@?$bkSliderDataInt@I@@UAEXMM@Z 004de930 f i bank:bank.obj
 0001:000dd960       ?IsFloat@?$bkSliderDataInt@I@@UBE_NXZ 004de960 f i bank:bank.obj
 0001:000dd970       ?CanBeNegative@?$bkSliderDataInt@I@@UBE_NXZ 004de970 f i bank:bank.obj
 0001:000dd980       ?IncrByDelta@?$bkSliderDataInt@H@@UAEXXZ 004de980 f i bank:bank.obj
 0001:000dda20       ?DecrByDelta@?$bkSliderDataInt@H@@UAEXXZ 004dea20 f i bank:bank.obj
 0001:000ddac0       ?Incr@?$bkSliderDataInt@H@@UAEXM@Z 004deac0 f i bank:bank.obj
 0001:000ddb70       ?Update@?$bkSliderDataInt@H@@UAE_NPAD@Z 004deb70 f i bank:bank.obj
 0001:000ddbb0       ?SetValue@?$bkSliderDataInt@H@@UAE_NPBD@Z 004debb0 f i bank:bank.obj
 0001:000ddc20       ?GetValue@?$bkSliderDataInt@H@@UAEXPAD@Z 004dec20 f i bank:bank.obj
 0001:000ddc40       ?SetAddr@?$bkSliderDataInt@H@@UAEXPAX@Z 004dec40 f i bank:bank.obj
 0001:000ddc50       ?SetRange@?$bkSliderDataInt@H@@UAEXMM@Z 004dec50 f i bank:bank.obj
 0001:000ddc80       ?IsFloat@?$bkSliderDataInt@H@@UBE_NXZ 004dec80 f i bank:bank.obj
 0001:000ddc90       ?CanBeNegative@?$bkSliderDataInt@H@@UBE_NXZ 004dec90 f i bank:bank.obj
 0001:000ddca0       ?IncrByDelta@?$bkSliderDataInt@G@@UAEXXZ 004deca0 f i bank:bank.obj
 0001:000ddd60       ?IncrByDelta@bkSliderDataFloat@@UAEXXZ 004ded60 f i bank:bank.obj
 0001:000dddb0       ?DecrByDelta@bkSliderDataFloat@@UAEXXZ 004dedb0 f i bank:bank.obj
 0001:000dde00       ?DecrByDelta@?$bkSliderDataInt@G@@UAEXXZ 004dee00 f i bank:bank.obj
 0001:000ddec0       ?Incr@bkSliderDataFloat@@UAEXM@Z 004deec0 f i bank:bank.obj
 0001:000ddf10       ?Update@bkSliderDataFloat@@UAE_NPAD@Z 004def10 f i bank:bank.obj
 0001:000ddf50       ?Incr@?$bkSliderDataInt@G@@UAEXM@Z 004def50 f i bank:bank.obj
 0001:000de010       ?SetValue@bkSliderDataFloat@@UAE_NPBD@Z 004df010 f i bank:bank.obj
 0001:000de090       ?Update@?$bkSliderDataInt@G@@UAE_NPAD@Z 004df090 f i bank:bank.obj
 0001:000de0d0       ?GetValue@bkSliderDataFloat@@UAEXPAD@Z 004df0d0 f i bank:bank.obj
 0001:000de110       ?SetValue@?$bkSliderDataInt@G@@UAE_NPBD@Z 004df110 f i bank:bank.obj
 0001:000de1a0       ?SetAddr@bkSliderDataFloat@@UAEXPAX@Z 004df1a0 f i bank:bank.obj
 0001:000de1b0       ?SetRange@bkSliderDataFloat@@UAEXMM@Z 004df1b0 f i bank:bank.obj
 0001:000de1d0       ?IsFloat@bkSliderDataFloat@@UBE_NXZ 004df1d0 f i bank:bank.obj
 0001:000de1e0       ?GetValue@?$bkSliderDataInt@G@@UAEXPAD@Z 004df1e0 f i bank:bank.obj
 0001:000de210       ?CanBeNegative@bkSliderDataFloat@@UBE_NXZ 004df210 f i bank:bank.obj
 0001:000de230       ?SetAddr@?$bkSliderDataInt@G@@UAEXPAX@Z 004df230 f i bank:bank.obj
 0001:000de240       ?SetRange@?$bkSliderDataInt@G@@UAEXMM@Z 004df240 f i bank:bank.obj
 0001:000de270       ?IsFloat@?$bkSliderDataInt@G@@UBE_NXZ 004df270 f i bank:bank.obj
 0001:000de280       ?CanBeNegative@?$bkSliderDataInt@G@@UBE_NXZ 004df280 f i bank:bank.obj
 0001:000de290       ?IncrByDelta@?$bkSliderDataInt@F@@UAEXXZ 004df290 f i bank:bank.obj
 0001:000de340       ?DecrByDelta@?$bkSliderDataInt@F@@UAEXXZ 004df340 f i bank:bank.obj
 0001:000de3f0       ?Incr@?$bkSliderDataInt@F@@UAEXM@Z 004df3f0 f i bank:bank.obj
 0001:000de4b0       ?Update@?$bkSliderDataInt@F@@UAE_NPAD@Z 004df4b0 f i bank:bank.obj
 0001:000de4f0       ?SetValue@?$bkSliderDataInt@F@@UAE_NPBD@Z 004df4f0 f i bank:bank.obj
 0001:000de580       ?GetValue@?$bkSliderDataInt@F@@UAEXPAD@Z 004df580 f i bank:bank.obj
 0001:000de5a0       ?SetAddr@?$bkSliderDataInt@F@@UAEXPAX@Z 004df5a0 f i bank:bank.obj
 0001:000de5b0       ?SetRange@?$bkSliderDataInt@F@@UAEXMM@Z 004df5b0 f i bank:bank.obj
 0001:000de5e0       ?IsFloat@?$bkSliderDataInt@F@@UBE_NXZ 004df5e0 f i bank:bank.obj
 0001:000de5f0       ?CanBeNegative@?$bkSliderDataInt@F@@UBE_NXZ 004df5f0 f i bank:bank.obj
 0001:000de600       ?RecurseTree@bkTreeViewer@@AAEXPAPAXPAX@Z 004df600 f   bank:bkwintree.obj
 0001:000de650       ?MakeTree@bkTreeViewer@@QAEXP6APAXPAXH@Z0@Z 004df650 f   bank:bkwintree.obj
 0001:000de680       ?WindowProc@bkTreeViewer@@CGJPAUHWND__@@IIJ@Z 004df680 f   bank:bkwintree.obj
 0001:000de710       ??0bkTreeViewer@@QAE@PBDHHHH@Z 004df710 f   bank:bkwintree.obj
 0001:000de790       ?Init@bkTreeViewer@@QAEXXZ 004df790 f   bank:bkwintree.obj
 0001:000de860       ?SetTitle@bkTreeViewer@@QAEXPBD@Z 004df860 f   bank:bkwintree.obj
 0001:000de8a0       ??1bkTreeViewer@@QAE@XZ    004df8a0 f   bank:bkwintree.obj
 0001:000de8c0       ?Insert@bkTreeViewer@@QAEPAPAXPAPAXPAXPAD@Z 004df8c0 f   bank:bkwintree.obj
 0001:000de910       ?Notify@bkTreeViewer@@AAEXPAUtagNMTREEVIEWA@@@Z 004df910 f   bank:bkwintree.obj
 0001:000de9c0       ??0bkMenu@@QAE@XZ          004df9c0 f   bank:bkwinmenu.obj
 0001:000de9d0       ??1bkMenu@@QAE@XZ          004df9d0 f   bank:bkwinmenu.obj
 0001:000de9e0       ?Post@bkMenu@@QBEHHH@Z     004df9e0 f   bank:bkwinmenu.obj
 0001:000dea30       ?AddItem@bkMenu@@QAEXPBDH_N1@Z 004dfa30 f   bank:bkwinmenu.obj
 0001:000dea70       ?AddItem@bkMenu@@QAEXPAUHBITMAP__@@H_N1@Z 004dfa70 f   bank:bkwinmenu.obj
 0001:000deab0       ?AddSeparator@bkMenu@@QAEXXZ 004dfab0 f   bank:bkwinmenu.obj
 0001:000dead0       ?AddSubMenu@bkMenu@@QAEXPBDPAV1@_N@Z 004dfad0 f   bank:bkwinmenu.obj
 0001:000deb00       ?GetNextMessage@bkLocalManager@@UAE_N_N@Z 004dfb00 f   bank:bklocmgr.obj
 0001:000deb10       ??1bkLocalManager@@UAE@XZ  004dfb10 f   bank:bklocmgr.obj
 0001:000deb30       ?Update@bkLocalManager@@UAEXXZ 004dfb30 f   bank:bklocmgr.obj
 0001:000deb70       ?Draw@bkLocalManager@@UAEXXZ 004dfb70 f   bank:bklocmgr.obj
 0001:000deb80       ??0bkLocBank@@QAE@PBDHH_N@Z 004dfb80 f   bank:bklocbank.obj
 0001:000dec00       ?SetState@bkLocBank@@UAEX_NHHHH@Z 004dfc00 f   bank:bklocbank.obj
 0001:000dec10       ?GetState@bkLocBank@@UAEXAA_NAAH111@Z 004dfc10 f   bank:bklocbank.obj
 0001:000dec30       ?IsShown@bkLocBank@@UAE_NXZ 004dfc30 f   bank:bklocbank.obj
 0001:000dec40       ?Hide@bkLocBank@@UAEXXZ    004dfc40 f   bank:bklocbank.obj
 0001:000dec50       ?Show@bkLocBank@@UAEXXZ    004dfc50 f   bank:bklocbank.obj
 0001:000dec80       ?Update@bkLocBank@@UAEXXZ  004dfc80 f   bank:bklocbank.obj
 0001:000deec0       ?Draw@bkLocBank@@QAEXXZ    004dfec0 f   bank:bklocbank.obj
 0001:000def50       ?AddTitle@bkLocBank@@UAEPAVbkButton@@PBD@Z 004dff50 f   bank:bklocbank.obj
 0001:000defe0       ?AddButton@bkLocBank@@UAEPAVbkButton@@PBDVdatCallback@@@Z 004dffe0 f   bank:bklocbank.obj
 0001:000df070       ?AddText@bkLocBank@@UAEPAVbkText@@PBDPADIVdatCallback@@@Z 004e0070 f   bank:bklocbank.obj
 0001:000df080       ?AddToggle@bkLocBank@@UAEPAVbkToggle@@PBDPA_NVdatCallback@@@Z 004e0080 f   bank:bklocbank.obj
 0001:000df110       ?AddToggle@bkLocBank@@UAEPAVbkToggle@@PBDPAHVdatCallback@@@Z 004e0110 f   bank:bklocbank.obj
 0001:000df1a0       ?AddToggle@bkLocBank@@UAEPAVbkToggle@@PBDPAIIVdatCallback@@@Z 004e01a0 f   bank:bklocbank.obj
 0001:000df230       ?AddToggle@bkLocBank@@UAEPAVbkToggle@@PBDPAGGVdatCallback@@@Z 004e0230 f   bank:bklocbank.obj
 0001:000df2c0       ?AddToggle@bkLocBank@@UAEPAVbkToggle@@PBDPAEEVdatCallback@@@Z 004e02c0 f   bank:bklocbank.obj
 0001:000df350       ?AddSlider@bkLocBank@@UAEPAVbkSlider@@PBDPAMMMMVdatCallback@@@Z 004e0350 f   bank:bklocbank.obj
 0001:000df420       ?AddSlider@bkLocBank@@UAEPAVbkSlider@@PBDPAEEEMVdatCallback@@@Z 004e0420 f   bank:bklocbank.obj
 0001:000df500       ?AddSlider@bkLocBank@@UAEPAVbkSlider@@PBDPACCCMVdatCallback@@@Z 004e0500 f   bank:bklocbank.obj
 0001:000df5d0       ?AddSlider@bkLocBank@@UAEPAVbkSlider@@PBDPAGGGMVdatCallback@@@Z 004e05d0 f   bank:bklocbank.obj
 0001:000df6b0       ?AddSlider@bkLocBank@@UAEPAVbkSlider@@PBDPAFFFMVdatCallback@@@Z 004e06b0 f   bank:bklocbank.obj
 0001:000df780       ?AddSlider@bkLocBank@@UAEPAVbkSlider@@PBDPAIIIMVdatCallback@@@Z 004e0780 f   bank:bklocbank.obj
 0001:000df850       ?AddSlider@bkLocBank@@UAEPAVbkSlider@@PBDPAHHHMVdatCallback@@@Z 004e0850 f   bank:bklocbank.obj
 0001:000df920       ?AddCombo@bkLocBank@@UAEPAVbkCombo@@PBDPAEHPAPBDHVdatCallback@@@Z 004e0920 f   bank:bklocbank.obj
 0001:000df9b0       ?AddCombo@bkLocBank@@UAEPAVbkCombo@@PBDPAHHPAPBDHVdatCallback@@@Z 004e09b0 f   bank:bklocbank.obj
 0001:000dfa40       ?PushGroup@bkLocBank@@UAEPAVbkGroup@@PBD_N@Z 004e0a40 f   bank:bklocbank.obj
 0001:000dfb70       ?PopGroup@bkLocBank@@UAEPAVbkGroup@@XZ 004e0b70 f   bank:bklocbank.obj
 0001:000dfc00       ?GroupCallback@bkLocBank@@CAXPAX@Z 004e0c00 f   bank:bklocbank.obj
 0001:000dfc70       ?AddWidget@bkLocBank@@QAEXPAVbkLocWidget@@@Z 004e0c70 f   bank:bklocbank.obj
 0001:000dfca0       ?Printf@bkLocBank@@QAAXPBDZZ 004e0ca0 f   bank:bklocbank.obj
 0001:000dfd00       ??_EbkLocBank@@UAEPAXI@Z   004e0d00 f i bank:bklocbank.obj
 0001:000dfd00       ??_GbkLocBank@@UAEPAXI@Z   004e0d00 f i bank:bklocbank.obj
 0001:000dfd30       ??0bkWinWidget@@QAE@AAVbkBank@@@Z 004e0d30 f   bank:bkwinwidget.obj
 0001:000dfe10       ??1bkWinWidget@@UAE@XZ     004e0e10 f   bank:bkwinwidget.obj
 0001:000dfed0       ?GetWidget@bkWinWidget@@SAAAV1@PAUHWND__@@@Z 004e0ed0 f   bank:bkwinwidget.obj
 0001:000dff20       ?DispatchMessageA@bkWinWidget@@SAXPAUHWND__@@IIJ@Z 004e0f20 f   bank:bkwinwidget.obj
 0001:000dff50       ?HandleMessage@bkWinWidget@@UAEXPAUHWND__@@IIJ@Z 004e0f50 f   bank:bkwinwidget.obj
 0001:000dff70       ?SetWidgetID@bkWinWidget@@MAEXH@Z 004e0f70 f   bank:bkwinwidget.obj
 0001:000dff80       ?Destroy@bkWinWidget@@UAEXXZ 004e0f80 f   bank:bkwinwidget.obj
 0001:000dff90       ??_EbkWinWidget@@$4PPPPPPPM@A@AEPAXI@Z 004e0f90 f i bank:bkwinwidget.obj
 0001:000dffa0       ??_EbkWinWidget@@UAEPAXI@Z 004e0fa0 f i bank:bkwinwidget.obj
 0001:000dffa0       ??_GbkWinWidget@@UAEPAXI@Z 004e0fa0 f i bank:bkwinwidget.obj
 0001:000dffd0       ?Destroy@bkWinWidget@@$4PPPPPPPM@A@AEXXZ 004e0fd0 f i bank:bkwinwidget.obj
 0001:000dffe0       ??0bkWinBank@@QAE@PAUHWND__@@PBDHH_N@Z 004e0fe0 f   bank:bkwinbank.obj
 0001:000e0070       ??1bkWinBank@@MAE@XZ       004e1070 f   bank:bkwinbank.obj
 0001:000e0100       ?Resize@bkWinBank@@UAEXXZ  004e1100 f   bank:bkwinbank.obj
 0001:000e0110       ?ResizeWindow@bkWinBank@@IAEXH@Z 004e1110 f   bank:bkwinbank.obj
 0001:000e01c0       ?ResetScrollPosition@bkWinBank@@IAEXXZ 004e11c0 f   bank:bkwinbank.obj
 0001:000e0240       ?IsShown@bkWinBank@@UAE_NXZ 004e1240 f   bank:bkwinbank.obj
 0001:000e0270       ?Hide@bkWinBank@@UAEXXZ    004e1270 f   bank:bkwinbank.obj
 0001:000e0280       ?Show@bkWinBank@@UAEXXZ    004e1280 f   bank:bkwinbank.obj
 0001:000e0290       ?Raise@bkWinBank@@UAEX_N@Z 004e1290 f   bank:bkwinbank.obj
 0001:000e02f0       ?UpdateGroup@bkWinBank@@UAEXABVbkGroup@@_N@Z 004e12f0 f   bank:bkwinbank.obj
 0001:000e0320       ?Update@bkWinBank@@UAEXXZ  004e1320 f   bank:bkwinbank.obj
 0001:000e0340       ?AddTitle@bkWinBank@@UAEPAVbkButton@@PBD@Z 004e1340 f   bank:bkwinbank.obj
 0001:000e0400       ?AddButton@bkWinBank@@UAEPAVbkButton@@PBDVdatCallback@@@Z 004e1400 f   bank:bkwinbank.obj
 0001:000e04b0       ?AddText@bkWinBank@@UAEPAVbkText@@PBDPADI_NVdatCallback@@@Z 004e14b0 f   bank:bkwinbank.obj
 0001:000e0570       ?AddToggle@bkWinBank@@UAEPAVbkToggle@@PBDPA_NVdatCallback@@@Z 004e1570 f   bank:bkwinbank.obj
 0001:000e0620       ?AddToggle@bkWinBank@@UAEPAVbkToggle@@PBDPAHVdatCallback@@@Z 004e1620 f   bank:bkwinbank.obj
 0001:000e06d0       ?AddToggle@bkWinBank@@UAEPAVbkToggle@@PBDPAIIVdatCallback@@@Z 004e16d0 f   bank:bkwinbank.obj
 0001:000e0780       ?AddToggle@bkWinBank@@UAEPAVbkToggle@@PBDPAGGVdatCallback@@@Z 004e1780 f   bank:bkwinbank.obj
 0001:000e0830       ?AddToggle@bkWinBank@@UAEPAVbkToggle@@PBDPAEEVdatCallback@@@Z 004e1830 f   bank:bkwinbank.obj
 0001:000e08e0       ?AddSlider@bkWinBank@@MAEPAVbkSlider@@PBDAAVbkSliderData@@VdatCallback@@@Z 004e18e0 f   bank:bkwinbank.obj
 0001:000e0990       ?AddCombo@bkWinBank@@UAEPAVbkCombo@@PBDPAHHPAPBDHVdatCallback@@@Z 004e1990 f   bank:bkwinbank.obj
 0001:000e0a50       ?AddCombo@bkWinBank@@UAEPAVbkCombo@@PBDPAEHPAPBDHVdatCallback@@@Z 004e1a50 f   bank:bkwinbank.obj
 0001:000e0b10       ?PushGroup@bkWinBank@@UAEPAVbkGroup@@PBD_N@Z 004e1b10 f   bank:bkwinbank.obj
 0001:000e0c30       ?PopGroup@bkWinBank@@UAEPAVbkGroup@@XZ 004e1c30 f   bank:bkwinbank.obj
 0001:000e0cf0       ?OpenWindow@bkWinBank@@IAEXPAUHWND__@@PBDHH_N@Z 004e1cf0 f   bank:bkwinbank.obj
 0001:000e0e60       ?Remove@bkWinBank@@UAE_NABVbkWidget@@@Z 004e1e60 f   bank:bkwinbank.obj
 0001:000e0e80       ?Remove@bkWinBank@@UAE_NH@Z 004e1e80 f   bank:bkwinbank.obj
 0001:000e0ea0       ?GetState@bkWinBank@@UAEXAA_NAAH111@Z 004e1ea0 f   bank:bkwinbank.obj
 0001:000e0f00       ?SetState@bkWinBank@@UAEX_NHHHH@Z 004e1f00 f   bank:bkwinbank.obj
 0001:000e0f90       ??_EbkWinBank@@MAEPAXI@Z   004e1f90 f i bank:bkwinbank.obj
 0001:000e0f90       ??_GbkWinBank@@MAEPAXI@Z   004e1f90 f i bank:bkwinbank.obj
 0001:000e0fc0       ??0bkButton@@QAE@AAVbkBank@@PBD_NVdatCallback@@@Z 004e1fc0 f   bank:button.obj
 0001:000e1020       ??1bkButton@@UAE@XZ        004e2020 f   bank:button.obj
 0001:000e1040       ??_EbkButton@@UAEPAXI@Z    004e2040 f i bank:button.obj
 0001:000e1040       ??_GbkButton@@UAEPAXI@Z    004e2040 f i bank:button.obj
 0001:000e1070       ?SetText@bkButton@@UAEXPBD@Z 004e2070 f i bank:button.obj
 0001:000e1080       ??0bkText@@QAE@AAVbkBank@@PBDPADI_NVdatCallback@@@Z 004e2080 f   bank:text.obj
 0001:000e1140       ??1bkText@@UAE@XZ          004e2140 f   bank:text.obj
 0001:000e1160       ??_EbkText@@UAEPAXI@Z      004e2160 f i bank:text.obj
 0001:000e1160       ??_GbkText@@UAEPAXI@Z      004e2160 f i bank:text.obj
 0001:000e1190       ?SetText@bkText@@UAEXPBD@Z 004e2190 f i bank:text.obj
 0001:000e11a0       ??0bkToggle@@QAE@AAVbkBank@@PBDPA_NVdatCallback@@@Z 004e21a0 f   bank:toggle.obj
 0001:000e1280       ??0bkToggle@@QAE@AAVbkBank@@PBDPAHVdatCallback@@@Z 004e2280 f   bank:toggle.obj
 0001:000e1370       ??0bkToggle@@QAE@AAVbkBank@@PBDPAIIVdatCallback@@@Z 004e2370 f   bank:toggle.obj
 0001:000e1450       ??0bkToggle@@QAE@AAVbkBank@@PBDPAGGVdatCallback@@@Z 004e2450 f   bank:toggle.obj
 0001:000e1540       ??0bkToggle@@QAE@AAVbkBank@@PBDPAEEVdatCallback@@@Z 004e2540 f   bank:toggle.obj
 0001:000e1630       ??1bkToggle@@UAE@XZ        004e2630 f   bank:toggle.obj
 0001:000e1660       ?Update@bkToggle@@UAEXXZ   004e2660 f   bank:toggle.obj
 0001:000e1670       ?DoToggle@bkToggle@@IAEXXZ 004e2670 f   bank:toggle.obj
 0001:000e16d0       ?GetValue@bkToggle@@IAEIXZ 004e26d0 f   bank:toggle.obj
 0001:000e1720       ?SetText@bkToggle@@UAEXPBD@Z 004e2720 f i bank:toggle.obj
 0001:000e1730       ??_EbkToggle@@$4PPPPPPPM@A@AEPAXI@Z 004e2730 f i bank:toggle.obj
 0001:000e1740       ??_GbkToggle@@UAEPAXI@Z    004e2740 f i bank:toggle.obj
 0001:000e1740       ??_EbkToggle@@UAEPAXI@Z    004e2740 f i bank:toggle.obj
 0001:000e1770       ?Update@bkToggle@@$4PPPPPPPM@A@AEXXZ 004e2770 f i bank:toggle.obj
 0001:000e1780       ?RemoveTrailingZeros@bkSliderDataFloat@@IAEXPAD@Z 004e2780 f   bank:slider.obj
 0001:000e17d0       ??0bkSlider@@QAE@AAVbkBank@@PBDAAVbkSliderData@@VdatCallback@@@Z 004e27d0 f   bank:slider.obj
 0001:000e1840       ??1bkSlider@@UAE@XZ        004e2840 f   bank:slider.obj
 0001:000e1870       ?Update@bkSlider@@UAEXXZ   004e2870 f   bank:slider.obj
 0001:000e1880       ?SetEnabled@bkSlider@@QAEX_N@Z 004e2880 f   bank:slider.obj
 0001:000e1890       ?IsEnabled@bkSlider@@QBE_NXZ 004e2890 f   bank:slider.obj
 0001:000e18a0       ??_EbkSlider@@$4PPPPPPPM@A@AEPAXI@Z 004e28a0 f i bank:slider.obj
 0001:000e18b0       ??_EbkSlider@@UAEPAXI@Z    004e28b0 f i bank:slider.obj
 0001:000e18b0       ??_GbkSlider@@UAEPAXI@Z    004e28b0 f i bank:slider.obj
 0001:000e18e0       ?Update@bkSlider@@$4PPPPPPPM@A@AEXXZ 004e28e0 f i bank:slider.obj
 0001:000e18f0       ??0bkCombo@@QAE@AAVbkBank@@PBDPAHHPAPBDHVdatCallback@@@Z 004e28f0 f   bank:combo.obj
 0001:000e1970       ??0bkCombo@@QAE@AAVbkBank@@PBDPAEHPAPBDHVdatCallback@@@Z 004e2970 f   bank:combo.obj
 0001:000e19f0       ??1bkCombo@@UAE@XZ         004e29f0 f   bank:combo.obj
 0001:000e1a10       ??_EbkCombo@@UAEPAXI@Z     004e2a10 f i bank:combo.obj
 0001:000e1a10       ??_GbkCombo@@UAEPAXI@Z     004e2a10 f i bank:combo.obj
 0001:000e1a40       ?SetList@bkCombo@@UAEXHPAPBD@Z 004e2a40 f i bank:combo.obj
 0001:000e1a50       ?AddString@bkCombo@@UAEXQBD@Z 004e2a50 f i bank:combo.obj
 0001:000e1a60       ?SetChoice@bkCombo@@UAEXH@Z 004e2a60 f i bank:combo.obj
 0001:000e1a70       ?DeleteChoice@bkCombo@@UAEXH@Z 004e2a70 f i bank:combo.obj
 0001:000e1a80       ?DeleteContents@bkCombo@@UAEXXZ 004e2a80 f i bank:combo.obj
 0001:000e1a90       ??0bkColor@@QAE@AAVbkBank@@PBDPAVVector4@@VdatCallback@@@Z 004e2a90 f   bank:color.obj
 0001:000e1bf0       ??0bkColor@@QAE@AAVbkBank@@PBDPAVVector3@@VdatCallback@@@Z 004e2bf0 f   bank:color.obj
 0001:000e1d20       ??1bkColor@@UAE@XZ         004e2d20 f   bank:color.obj
 0001:000e1d30       ??_GbkColor@@UAEPAXI@Z     004e2d30 f i bank:color.obj
 0001:000e1d30       ??_EbkColor@@UAEPAXI@Z     004e2d30 f i bank:color.obj
 0001:000e1d60       ??0bkGroup@@QAE@AAVbkBank@@PBD_N@Z 004e2d60 f   bank:group.obj
 0001:000e1dc0       ??1bkGroup@@UAE@XZ         004e2dc0 f   bank:group.obj
 0001:000e1de0       ??_GbkGroup@@UAEPAXI@Z     004e2de0 f i bank:group.obj
 0001:000e1de0       ??_EbkGroup@@UAEPAXI@Z     004e2de0 f i bank:group.obj
 0001:000e1e10       ?SetText@bkGroup@@UAEXPBD@Z 004e2e10 f i bank:group.obj
 0001:000e1e20       ??0bkLocWidget@@QAE@PAVbkLocBank@@HPBDPAXIIVdatCallback@@@Z 004e2e20 f   bank:bklocwidget.obj
 0001:000e1ed0       ??0bkLocWidget@@QAE@PAVbkLocBank@@HPBDPAXIHHMVdatCallback@@@Z 004e2ed0 f   bank:bklocwidget.obj
 0001:000e1f90       ??0bkLocWidget@@QAE@PAVbkLocBank@@HPBDPAXIHPAPBDHVdatCallback@@@Z 004e2f90 f   bank:bklocwidget.obj
 0001:000e2050       ?Update@bkLocWidget@@UAEXXZ 004e3050 f   bank:bklocwidget.obj
 0001:000e2060       ?Draw@bkLocWidget@@QAEXXZ  004e3060 f   bank:bklocwidget.obj
 0001:000e2360       ?Click@bkLocWidget@@QAEXXZ 004e3360 f   bank:bklocwidget.obj
 0001:000e2420       ?Dial@bkLocWidget@@QAEXM@Z 004e3420 f   bank:bklocwidget.obj
 0001:000e2850       ??_EbkLocWidget@@UAEPAXI@Z 004e3850 f i bank:bklocwidget.obj
 0001:000e2850       ??_GbkLocWidget@@UAEPAXI@Z 004e3850 f i bank:bklocwidget.obj
 0001:000e2880       ??1bkLocWidget@@UAE@XZ     004e3880 f i bank:bklocwidget.obj
 0001:000e2890       ??0bkWidget@@QAE@XZ        004e3890 f   bank:widget.obj
 0001:000e28a0       ??0bkWidget@@QAE@AAVbkBank@@@Z 004e38a0 f   bank:widget.obj
 0001:000e28b0       ??1bkWidget@@UAE@XZ        004e38b0 f   bank:widget.obj
 0001:000e28c0       ?Destroy@bkWidget@@UAEXXZ  004e38c0 f   bank:widget.obj
 0001:000e28d0       ?Update@bkWidget@@UAEXXZ   004e38d0 f   bank:widget.obj
 0001:000e28e0       ?Redraw@bkWidget@@UAEXXZ   004e38e0 f   bank:widget.obj
 0001:000e28f0       ?MoveY@bkWidget@@UAEXAAVbkBank@@H@Z 004e38f0 f   bank:widget.obj
 0001:000e2900       ?IsShown@bkWidget@@MBE_NXZ 004e3900 f   bank:widget.obj
 0001:000e2910       ?Show@bkWidget@@MAEXXZ     004e3910 f   bank:widget.obj
 0001:000e2920       ?Hide@bkWidget@@MAEXXZ     004e3920 f   bank:widget.obj
 0001:000e2930       ?HotKey@bkWidget@@UAEXPBD@Z 004e3930 f   bank:widget.obj
 0001:000e2940       ?GetName@bkWidget@@UAEPBDXZ 004e3940 f   bank:widget.obj
 0001:000e2950       ??_EbkWidget@@UAEPAXI@Z    004e3950 f i bank:widget.obj
 0001:000e2950       ??_GbkWidget@@UAEPAXI@Z    004e3950 f i bank:widget.obj
 0001:000e2980       ??0bkWinButton@@QAE@AAVbkBank@@PBD_NVdatCallback@@@Z 004e3980 f   bank:bkwinbutton.obj
 0001:000e2b70       ??1bkWinButton@@UAE@XZ     004e3b70 f   bank:bkwinbutton.obj
 0001:000e2bf0       ?MoveY@bkWinButton@@UAEXAAVbkBank@@H@Z 004e3bf0 f   bank:bkwinbutton.obj
 0001:000e2c20       ?HandleMessage@bkWinButton@@UAEXPAUHWND__@@IIJ@Z 004e3c20 f   bank:bkwinbutton.obj
 0001:000e2c50       ?IsShown@bkWinButton@@EBE_NXZ 004e3c50 f   bank:bkwinbutton.obj
 0001:000e2c70       ?Show@bkWinButton@@EAEXXZ  004e3c70 f   bank:bkwinbutton.obj
 0001:000e2c90       ?Hide@bkWinButton@@EAEXXZ  004e3c90 f   bank:bkwinbutton.obj
 0001:000e2cb0       ?SetWidgetID@bkWinButton@@EAEXH@Z 004e3cb0 f   bank:bkwinbutton.obj
 0001:000e2ce0       ?Destroy@bkWinButton@@UAEXXZ 004e3ce0 f   bank:bkwinbutton.obj
 0001:000e2d10       ??_EbkWinButton@@$4PPPPPPPM@A@AEPAXI@Z 004e3d10 f i bank:bkwinbutton.obj
 0001:000e2d20       ??_EbkWinButton@@UAEPAXI@Z 004e3d20 f i bank:bkwinbutton.obj
 0001:000e2d20       ??_GbkWinButton@@UAEPAXI@Z 004e3d20 f i bank:bkwinbutton.obj
 0001:000e2d50       ?Destroy@bkWinButton@@$4PPPPPPPM@A@AEXXZ 004e3d50 f i bank:bkwinbutton.obj
 0001:000e2d60       ?MoveY@bkWinButton@@$4PPPPPPPM@A@AEXAAVbkBank@@H@Z 004e3d60 f i bank:bkwinbutton.obj
 0001:000e2d70       ?IsShown@bkWinButton@@$0PPPPPPPM@A@BE_NXZ 004e3d70 f i bank:bkwinbutton.obj
 0001:000e2d80       ?Show@bkWinButton@@$0PPPPPPPM@A@AEXXZ 004e3d80 f i bank:bkwinbutton.obj
 0001:000e2d90       ?Hide@bkWinButton@@$0PPPPPPPM@A@AEXXZ 004e3d90 f i bank:bkwinbutton.obj
 0001:000e2da0       ?SetText@bkWinButton@@UAEXPBD@Z 004e3da0 f i bank:bkwinbutton.obj
 0001:000e2dc0       ?bkTextEditWinProc@@YGJPAUHWND__@@IIJ@Z 004e3dc0 f   bank:bkwintext.obj
 0001:000e2f50       ??0bkWinText@@QAE@AAVbkBank@@PBDPADI_NVdatCallback@@@Z 004e3f50 f   bank:bkwintext.obj
 0001:000e3220       ??1bkWinText@@UAE@XZ       004e4220 f   bank:bkwintext.obj
 0001:000e32a0       ?MoveY@bkWinText@@UAEXAAVbkBank@@H@Z 004e42a0 f   bank:bkwintext.obj
 0001:000e3320       ?Update@bkWinText@@UAEXXZ  004e4320 f   bank:bkwintext.obj
 0001:000e33a0       ?CheckValue@bkWinText@@IAEX_N@Z 004e43a0 f   bank:bkwintext.obj
 0001:000e3450       ?SetFont@bkWinText@@IAEX_N@Z 004e4450 f   bank:bkwintext.obj
 0001:000e34d0       ?IsShown@bkWinText@@MBE_NXZ 004e44d0 f   bank:bkwintext.obj
 0001:000e34f0       ?Show@bkWinText@@MAEXXZ    004e44f0 f   bank:bkwintext.obj
 0001:000e3530       ?Hide@bkWinText@@MAEXXZ    004e4530 f   bank:bkwintext.obj
 0001:000e3570       ?SetWidgetID@bkWinText@@MAEXH@Z 004e4570 f   bank:bkwintext.obj
 0001:000e35c0       ?Destroy@bkWinText@@UAEXXZ 004e45c0 f   bank:bkwintext.obj
 0001:000e3600       ?GetTitleWidth@bkWinText@@IAEHAAVbkBank@@@Z 004e4600 f   bank:bkwintext.obj
 0001:000e3630       ?GetEditWidth@bkWinText@@IAEHAAVbkBank@@@Z 004e4630 f   bank:bkwintext.obj
 0001:000e3650       ?SetText@bkWinText@@UAEXPBD@Z 004e4650 f i bank:bkwintext.obj
 0001:000e3670       ??_EbkWinText@@$4PPPPPPPM@A@AEPAXI@Z 004e4670 f i bank:bkwintext.obj
 0001:000e3680       ??_EbkWinText@@UAEPAXI@Z   004e4680 f i bank:bkwintext.obj
 0001:000e3680       ??_GbkWinText@@UAEPAXI@Z   004e4680 f i bank:bkwintext.obj
 0001:000e36b0       ?Destroy@bkWinText@@$4PPPPPPPM@A@AEXXZ 004e46b0 f i bank:bkwintext.obj
 0001:000e36c0       ?Update@bkWinText@@$4PPPPPPPM@A@AEXXZ 004e46c0 f i bank:bkwintext.obj
 0001:000e36d0       ?MoveY@bkWinText@@$4PPPPPPPM@A@AEXAAVbkBank@@H@Z 004e46d0 f i bank:bkwintext.obj
 0001:000e36e0       ?IsShown@bkWinText@@$2PPPPPPPM@A@BE_NXZ 004e46e0 f i bank:bkwintext.obj
 0001:000e36f0       ?Show@bkWinText@@$2PPPPPPPM@A@AEXXZ 004e46f0 f i bank:bkwintext.obj
 0001:000e3700       ?Hide@bkWinText@@$2PPPPPPPM@A@AEXXZ 004e4700 f i bank:bkwintext.obj
 0001:000e3710       ??0bkWinToggle@@QAE@AAVbkBank@@PBDPA_NVdatCallback@@@Z 004e4710 f   bank:bkwintoggle.obj
 0001:000e37f0       ??0bkWinToggle@@QAE@AAVbkBank@@PBDPAHVdatCallback@@@Z 004e47f0 f   bank:bkwintoggle.obj
 0001:000e38d0       ??0bkWinToggle@@QAE@AAVbkBank@@PBDPAIIVdatCallback@@@Z 004e48d0 f   bank:bkwintoggle.obj
 0001:000e39c0       ??0bkWinToggle@@QAE@AAVbkBank@@PBDPAGGVdatCallback@@@Z 004e49c0 f   bank:bkwintoggle.obj
 0001:000e3ab0       ??0bkWinToggle@@QAE@AAVbkBank@@PBDPAEEVdatCallback@@@Z 004e4ab0 f   bank:bkwintoggle.obj
 0001:000e3ba0       ?Init@bkWinToggle@@IAEXPBDAAVbkWinBank@@@Z 004e4ba0 f   bank:bkwintoggle.obj
 0001:000e3cb0       ??1bkWinToggle@@UAE@XZ     004e4cb0 f   bank:bkwintoggle.obj
 0001:000e3d50       ?Update@bkWinToggle@@UAEXXZ 004e4d50 f   bank:bkwintoggle.obj
 0001:000e3d90       ?MoveY@bkWinToggle@@UAEXAAVbkBank@@H@Z 004e4d90 f   bank:bkwintoggle.obj
 0001:000e3dc0       ?HandleMessage@bkWinToggle@@UAEXPAUHWND__@@IIJ@Z 004e4dc0 f   bank:bkwintoggle.obj
 0001:000e3df0       ?HotKey@bkWinToggle@@UAEXPBD@Z 004e4df0 f   bank:bkwintoggle.obj
 0001:000e3e40       ?GetName@bkWinToggle@@UAEPBDXZ 004e4e40 f   bank:bkwintoggle.obj
 0001:000e3e50       ?IsShown@bkWinToggle@@MBE_NXZ 004e4e50 f   bank:bkwintoggle.obj
 0001:000e3e70       ?Show@bkWinToggle@@MAEXXZ  004e4e70 f   bank:bkwintoggle.obj
 0001:000e3e90       ?Hide@bkWinToggle@@MAEXXZ  004e4e90 f   bank:bkwintoggle.obj
 0001:000e3eb0       ?SetWidgetID@bkWinToggle@@MAEXH@Z 004e4eb0 f   bank:bkwintoggle.obj
 0001:000e3ee0       ?Destroy@bkWinToggle@@UAEXXZ 004e4ee0 f   bank:bkwintoggle.obj
 0001:000e3f10       ?SetText@bkWinToggle@@UAEXPBD@Z 004e4f10 f i bank:bkwintoggle.obj
 0001:000e3f30       ??_EbkWinToggle@@$4PPPPPPPM@A@AEPAXI@Z 004e4f30 f i bank:bkwintoggle.obj
 0001:000e3f40       ??_EbkWinToggle@@UAEPAXI@Z 004e4f40 f i bank:bkwintoggle.obj
 0001:000e3f40       ??_GbkWinToggle@@UAEPAXI@Z 004e4f40 f i bank:bkwintoggle.obj
 0001:000e3f70       ?Destroy@bkWinToggle@@$4PPPPPPPM@A@AEXXZ 004e4f70 f i bank:bkwintoggle.obj
 0001:000e3f80       ?Update@bkWinToggle@@$4PPPPPPPM@A@AEXXZ 004e4f80 f i bank:bkwintoggle.obj
 0001:000e3f90       ?MoveY@bkWinToggle@@$4PPPPPPPM@A@AEXAAVbkBank@@H@Z 004e4f90 f i bank:bkwintoggle.obj
 0001:000e3fa0       ?HotKey@bkWinToggle@@$4PPPPPPPM@A@AEXPBD@Z 004e4fa0 f i bank:bkwintoggle.obj
 0001:000e3fb0       ?GetName@bkWinToggle@@$4PPPPPPPM@A@AEPBDXZ 004e4fb0 f i bank:bkwintoggle.obj
 0001:000e3fc0       ?IsShown@bkWinToggle@@$2PPPPPPPM@A@BE_NXZ 004e4fc0 f i bank:bkwintoggle.obj
 0001:000e3fd0       ?Show@bkWinToggle@@$2PPPPPPPM@A@AEXXZ 004e4fd0 f i bank:bkwintoggle.obj
 0001:000e3fe0       ?Hide@bkWinToggle@@$2PPPPPPPM@A@AEXXZ 004e4fe0 f i bank:bkwintoggle.obj
 0001:000e3ff0       ?bkSliderEditWinProc@@YGJPAUHWND__@@IIJ@Z 004e4ff0 f   bank:bkwinslider.obj
 0001:000e41b0       ?bkSliderButtWinProc@@YGJPAUHWND__@@IIJ@Z 004e51b0 f   bank:bkwinslider.obj
 0001:000e43b0       ??0bkWinSlider@@QAE@AAVbkBank@@PBDAAVbkSliderData@@VdatCallback@@@Z 004e53b0 f   bank:bkwinslider.obj
 0001:000e4740       ??1bkWinSlider@@UAE@XZ     004e5740 f   bank:bkwinslider.obj
 0001:000e47c0       ?MoveY@bkWinSlider@@UAEXAAVbkBank@@H@Z 004e57c0 f   bank:bkwinslider.obj
 0001:000e4890       ?Update@bkWinSlider@@UAEXXZ 004e5890 f   bank:bkwinslider.obj
 0001:000e48d0       ?CheckValue@bkWinSlider@@IAEX_N@Z 004e58d0 f   bank:bkwinslider.obj
 0001:000e4a30       ?CheckKey@bkWinSlider@@IAE_ND@Z 004e5a30 f   bank:bkwinslider.obj
 0001:000e4b80       ?SetFont@bkWinSlider@@IAEX_N@Z 004e5b80 f   bank:bkwinslider.obj
 0001:000e4c00       ?HandleMessage@bkWinSlider@@UAEXPAUHWND__@@IIJ@Z 004e5c00 f   bank:bkwinslider.obj
 0001:000e4c70       ?IsShown@bkWinSlider@@MBE_NXZ 004e5c70 f   bank:bkwinslider.obj
 0001:000e4c90       ?Show@bkWinSlider@@MAEXXZ  004e5c90 f   bank:bkwinslider.obj
 0001:000e4ce0       ?Hide@bkWinSlider@@MAEXXZ  004e5ce0 f   bank:bkwinslider.obj
 0001:000e4d30       ?SetWidgetID@bkWinSlider@@MAEXH@Z 004e5d30 f   bank:bkwinslider.obj
 0001:000e4d90       ?Destroy@bkWinSlider@@UAEXXZ 004e5d90 f   bank:bkwinslider.obj
 0001:000e4dd0       ?SetEnabled@bkWinSlider@@QAEX_N@Z 004e5dd0 f   bank:bkwinslider.obj
 0001:000e4e10       ?IsEnabled@bkWinSlider@@QBE_NXZ 004e5e10 f   bank:bkwinslider.obj
 0001:000e4e30       ?GetButtonWidth@bkWinSlider@@IAEHAAVbkBank@@@Z 004e5e30 f   bank:bkwinslider.obj
 0001:000e4e60       ?GetEditWidth@bkWinSlider@@IAEHAAVbkBank@@@Z 004e5e60 f   bank:bkwinslider.obj
 0001:000e4ea0       ?GetScrollWidth@bkWinSlider@@IAEHAAVbkBank@@@Z 004e5ea0 f   bank:bkwinslider.obj
 0001:000e4ed0       ??_EbkWinSlider@@$4PPPPPPPM@A@AEPAXI@Z 004e5ed0 f i bank:bkwinslider.obj
 0001:000e4ee0       ??_EbkWinSlider@@UAEPAXI@Z 004e5ee0 f i bank:bkwinslider.obj
 0001:000e4ee0       ??_GbkWinSlider@@UAEPAXI@Z 004e5ee0 f i bank:bkwinslider.obj
 0001:000e4f10       ?Destroy@bkWinSlider@@$4PPPPPPPM@A@AEXXZ 004e5f10 f i bank:bkwinslider.obj
 0001:000e4f20       ?Update@bkWinSlider@@$4PPPPPPPM@A@AEXXZ 004e5f20 f i bank:bkwinslider.obj
 0001:000e4f30       ?MoveY@bkWinSlider@@$4PPPPPPPM@A@AEXAAVbkBank@@H@Z 004e5f30 f i bank:bkwinslider.obj
 0001:000e4f40       ?IsShown@bkWinSlider@@$2PPPPPPPM@A@BE_NXZ 004e5f40 f i bank:bkwinslider.obj
 0001:000e4f50       ?Show@bkWinSlider@@$2PPPPPPPM@A@AEXXZ 004e5f50 f i bank:bkwinslider.obj
 0001:000e4f60       ?Hide@bkWinSlider@@$2PPPPPPPM@A@AEXXZ 004e5f60 f i bank:bkwinslider.obj
 0001:000e4f70       ??0bkWinCombo@@QAE@AAVbkBank@@PBDPAHHPAPBDHVdatCallback@@@Z 004e5f70 f   bank:bkwincombo.obj
 0001:000e5070       ??0bkWinCombo@@QAE@AAVbkBank@@PBDPAEHPAPBDHVdatCallback@@@Z 004e6070 f   bank:bkwincombo.obj
 0001:000e5170       ?Init@bkWinCombo@@IAEXAAVbkBank@@PBDHPAPBD@Z 004e6170 f   bank:bkwincombo.obj
 0001:000e5360       ??1bkWinCombo@@UAE@XZ      004e6360 f   bank:bkwincombo.obj
 0001:000e53e0       ?MoveY@bkWinCombo@@UAEXAAVbkBank@@H@Z 004e63e0 f   bank:bkwincombo.obj
 0001:000e5460       ?SetList@bkWinCombo@@UAEXHPAPBD@Z 004e6460 f   bank:bkwincombo.obj
 0001:000e5520       ?AddString@bkWinCombo@@UAEXQBD@Z 004e6520 f   bank:bkwincombo.obj
 0001:000e55b0       ?SetChoice@bkWinCombo@@UAEXH@Z 004e65b0 f   bank:bkwincombo.obj
 0001:000e5660       ?DeleteChoice@bkWinCombo@@UAEXH@Z 004e6660 f   bank:bkwincombo.obj
 0001:000e56d0       ?DeleteContents@bkWinCombo@@UAEXXZ 004e66d0 f   bank:bkwincombo.obj
 0001:000e56f0       ?Update@bkWinCombo@@UAEXXZ 004e66f0 f   bank:bkwincombo.obj
 0001:000e5780       ?HandleMessage@bkWinCombo@@UAEXPAUHWND__@@IIJ@Z 004e6780 f   bank:bkwincombo.obj
 0001:000e5830       ?IsShown@bkWinCombo@@MBE_NXZ 004e6830 f   bank:bkwincombo.obj
 0001:000e5850       ?Show@bkWinCombo@@MAEXXZ   004e6850 f   bank:bkwincombo.obj
 0001:000e5890       ?Hide@bkWinCombo@@MAEXXZ   004e6890 f   bank:bkwincombo.obj
 0001:000e58d0       ?SetWidgetID@bkWinCombo@@MAEXH@Z 004e68d0 f   bank:bkwincombo.obj
 0001:000e5920       ?Destroy@bkWinCombo@@UAEXXZ 004e6920 f   bank:bkwincombo.obj
 0001:000e5960       ?GetTitleWidth@bkWinCombo@@IAEHAAVbkBank@@@Z 004e6960 f   bank:bkwincombo.obj
 0001:000e5990       ?GetComboWidth@bkWinCombo@@IAEHAAVbkBank@@@Z 004e6990 f   bank:bkwincombo.obj
 0001:000e59c0       ??_EbkWinCombo@@$4PPPPPPPM@A@AEPAXI@Z 004e69c0 f i bank:bkwincombo.obj
 0001:000e59d0       ??_GbkWinCombo@@UAEPAXI@Z  004e69d0 f i bank:bkwincombo.obj
 0001:000e59d0       ??_EbkWinCombo@@UAEPAXI@Z  004e69d0 f i bank:bkwincombo.obj
 0001:000e5a00       ?Destroy@bkWinCombo@@$4PPPPPPPM@A@AEXXZ 004e6a00 f i bank:bkwincombo.obj
 0001:000e5a10       ?Update@bkWinCombo@@$4PPPPPPPM@A@AEXXZ 004e6a10 f i bank:bkwincombo.obj
 0001:000e5a20       ?MoveY@bkWinCombo@@$4PPPPPPPM@A@AEXAAVbkBank@@H@Z 004e6a20 f i bank:bkwincombo.obj
 0001:000e5a30       ?IsShown@bkWinCombo@@$2PPPPPPPM@A@BE_NXZ 004e6a30 f i bank:bkwincombo.obj
 0001:000e5a40       ?Show@bkWinCombo@@$2PPPPPPPM@A@AEXXZ 004e6a40 f i bank:bkwincombo.obj
 0001:000e5a50       ?Hide@bkWinCombo@@$2PPPPPPPM@A@AEXXZ 004e6a50 f i bank:bkwincombo.obj
 0001:000e5a60       ??0bkWinGroup@@QAE@AAVbkBank@@PBD_N@Z 004e6a60 f   bank:bkwingroup.obj
 0001:000e5c20       ??1bkWinGroup@@UAE@XZ      004e6c20 f   bank:bkwingroup.obj
 0001:000e5cc0       ?MoveY@bkWinGroup@@UAEXAAVbkBank@@H@Z 004e6cc0 f   bank:bkwingroup.obj
 0001:000e5cf0       ?HandleMessage@bkWinGroup@@UAEXPAUHWND__@@IIJ@Z 004e6cf0 f   bank:bkwingroup.obj
 0001:000e5d50       ?IsShown@bkWinGroup@@MBE_NXZ 004e6d50 f   bank:bkwingroup.obj
 0001:000e5d70       ?Show@bkWinGroup@@MAEXXZ   004e6d70 f   bank:bkwingroup.obj
 0001:000e5d90       ?Hide@bkWinGroup@@MAEXXZ   004e6d90 f   bank:bkwingroup.obj
 0001:000e5db0       ?SetWidgetID@bkWinGroup@@MAEXH@Z 004e6db0 f   bank:bkwingroup.obj
 0001:000e5de0       ?Destroy@bkWinGroup@@UAEXXZ 004e6de0 f   bank:bkwingroup.obj
 0001:000e5e10       ??_EbkWinGroup@@$4PPPPPPPM@A@AEPAXI@Z 004e6e10 f i bank:bkwingroup.obj
 0001:000e5e20       ??_GbkWinGroup@@UAEPAXI@Z  004e6e20 f i bank:bkwingroup.obj
 0001:000e5e20       ??_EbkWinGroup@@UAEPAXI@Z  004e6e20 f i bank:bkwingroup.obj
 0001:000e5e50       ?Destroy@bkWinGroup@@$4PPPPPPPM@A@AEXXZ 004e6e50 f i bank:bkwingroup.obj
 0001:000e5e60       ?MoveY@bkWinGroup@@$4PPPPPPPM@A@AEXAAVbkBank@@H@Z 004e6e60 f i bank:bkwingroup.obj
 0001:000e5e70       ?IsShown@bkWinGroup@@$2PPPPPPPM@A@BE_NXZ 004e6e70 f i bank:bkwingroup.obj
 0001:000e5e80       ?Show@bkWinGroup@@$2PPPPPPPM@A@AEXXZ 004e6e80 f i bank:bkwingroup.obj
 0001:000e5e90       ?Hide@bkWinGroup@@$2PPPPPPPM@A@AEXXZ 004e6e90 f i bank:bkwingroup.obj
 0001:000e5ea0       ?SetText@bkWinGroup@@UAEXPBD@Z 004e6ea0 f i bank:bkwingroup.obj
 0001:000e5f50       ?Identity@Matrix34@@QAEXXZ 004e6f50 f   vector:matrix34.obj
 0001:000e5f80       ?Identity3x3@Matrix34@@QAEXXZ 004e6f80 f   vector:matrix34.obj
 0001:000e5fb0       ?Zero@Matrix34@@QAEXXZ     004e6fb0 f   vector:matrix34.obj
 0001:000e5fe0       ?Set@Matrix34@@QAEXABV1@@Z 004e6fe0 f   vector:matrix34.obj
 0001:000e6030       ?Add@Matrix34@@QAEXABV1@@Z 004e7030 f   vector:matrix34.obj
 0001:000e60b0       ?Add@Matrix34@@QAEXABV1@0@Z 004e70b0 f   vector:matrix34.obj
 0001:000e6130       ?Add3x3@Matrix34@@QAEXABV1@@Z 004e7130 f   vector:matrix34.obj
 0001:000e6190       ?Add3x3@Matrix34@@QAEXABV1@0@Z 004e7190 f   vector:matrix34.obj
 0001:000e61f0       ?Subtract@Matrix34@@QAEXABV1@@Z 004e71f0 f   vector:matrix34.obj
 0001:000e6270       ?Subtract@Matrix34@@QAEXABV1@0@Z 004e7270 f   vector:matrix34.obj
 0001:000e62f0       ?Subtract3x3@Matrix34@@QAEXABV1@@Z 004e72f0 f   vector:matrix34.obj
 0001:000e6350       ?Subtract3x3@Matrix34@@QAEXABV1@0@Z 004e7350 f   vector:matrix34.obj
 0001:000e63b0       ?AddScaled@Matrix34@@QAEXABV1@M@Z 004e73b0 f   vector:matrix34.obj
 0001:000e6430       ?Dot@Matrix34@@QAEXABV1@@Z 004e7430 f   vector:matrix34.obj
 0001:000e65b0       ?Dot@Matrix34@@QAEXABV1@0@Z 004e75b0 f   vector:matrix34.obj
 0001:000e66f0       ?DotTranspose@Matrix34@@QAEXABV1@@Z 004e76f0 f   vector:matrix34.obj
 0001:000e6860       ?DotTranspose@Matrix34@@QAEXABV1@0@Z 004e7860 f   vector:matrix34.obj
 0001:000e69a0       ?Dot3x3@Matrix34@@QAEXABV1@@Z 004e79a0 f   vector:matrix34.obj
 0001:000e6ac0       ?Dot3x3@Matrix34@@QAEXABV1@0@Z 004e7ac0 f   vector:matrix34.obj
 0001:000e6bb0       ?Dot3x3Transpose@Matrix34@@QAEXABV1@@Z 004e7bb0 f   vector:matrix34.obj
 0001:000e6cb0       ?Dot3x3Transpose@Matrix34@@QAEXABV1@0@Z 004e7cb0 f   vector:matrix34.obj
 0001:000e6da0       ?Rotate@Matrix34@@QAEXABVVector3@@M@Z 004e7da0 f   vector:matrix34.obj
 0001:000e6e00       ?RotateX@Matrix34@@QAEXM@Z 004e7e00 f   vector:matrix34.obj
 0001:000e6e50       ?RotateY@Matrix34@@QAEXM@Z 004e7e50 f   vector:matrix34.obj
 0001:000e6ea0       ?RotateZ@Matrix34@@QAEXM@Z 004e7ea0 f   vector:matrix34.obj
 0001:000e6ef0       ?RotateUnitAxis@Matrix34@@QAEXABVVector3@@M@Z 004e7ef0 f   vector:matrix34.obj
 0001:000e6f50       ?RotateFull@Matrix34@@QAEXABVVector3@@M@Z 004e7f50 f   vector:matrix34.obj
 0001:000e6fc0       ?RotateFullX@Matrix34@@QAEXM@Z 004e7fc0 f   vector:matrix34.obj
 0001:000e7030       ?RotateFullY@Matrix34@@QAEXM@Z 004e8030 f   vector:matrix34.obj
 0001:000e70a0       ?RotateFullZ@Matrix34@@QAEXM@Z 004e80a0 f   vector:matrix34.obj
 0001:000e7110       ?RotateFullUnitAxis@Matrix34@@QAEXABVVector3@@M@Z 004e8110 f   vector:matrix34.obj
 0001:000e7180       ?MakeRotate@Matrix34@@QAEXABVVector3@@M@Z 004e8180 f   vector:matrix34.obj
 0001:000e72e0       ?MakeRotateX@Matrix34@@QAEXM@Z 004e82e0 f   vector:matrix34.obj
 0001:000e7320       ?MakeRotateY@Matrix34@@QAEXM@Z 004e8320 f   vector:matrix34.obj
 0001:000e7360       ?MakeRotateZ@Matrix34@@QAEXM@Z 004e8360 f   vector:matrix34.obj
 0001:000e73a0       ?MakeRotateUnitAxis@Matrix34@@QAEXABVVector3@@M@Z 004e83a0 f   vector:matrix34.obj
 0001:000e7470       ?RotateTo@Matrix34@@QAEXABVVector3@@0@Z 004e8470 f   vector:matrix34.obj
 0001:000e7560       ?RotateTo@Matrix34@@QAEXABVVector3@@0M@Z 004e8560 f   vector:matrix34.obj
 0001:000e7660       ?GetEulers@Matrix34@@QBE?AVVector3@@PBD@Z 004e8660 f   vector:matrix34.obj
 0001:000e78a0       ?GetEulers@Matrix34@@QBE?AVVector3@@XZ 004e88a0 f   vector:matrix34.obj
 0001:000e78f0       ?FromEulers@Matrix34@@QAEXABVVector3@@PAD@Z 004e88f0 f   vector:matrix34.obj
 0001:000e79f0       ?FromEulersXYZ@Matrix34@@QAEXABVVector3@@@Z 004e89f0 f   vector:matrix34.obj
 0001:000e7b00       ?FromEulersXZY@Matrix34@@QAEXABVVector3@@@Z 004e8b00 f   vector:matrix34.obj
 0001:000e7c10       ?FromEulersYXZ@Matrix34@@QAEXABVVector3@@@Z 004e8c10 f   vector:matrix34.obj
 0001:000e7d30       ?FromEulersYZX@Matrix34@@QAEXABVVector3@@@Z 004e8d30 f   vector:matrix34.obj
 0001:000e7e40       ?FromEulersZXY@Matrix34@@QAEXABVVector3@@@Z 004e8e40 f   vector:matrix34.obj
 0001:000e7f50       ?FromEulersZYX@Matrix34@@QAEXABVVector3@@@Z 004e8f50 f   vector:matrix34.obj
 0001:000e8060       ?FromQuaternion@Matrix34@@QAEXABVQuaternion@@@Z 004e9060 f   vector:matrix34.obj
 0001:000e8120       ?ToEulers@Matrix34@@QBEXAAVVector3@@PAD@Z 004e9120 f   vector:matrix34.obj
 0001:000e8220       ?ToEulersXYZ@Matrix34@@QBEXAAVVector3@@@Z 004e9220 f   vector:matrix34.obj
 0001:000e82f0       ?ToEulersXZY@Matrix34@@QBEXAAVVector3@@@Z 004e92f0 f   vector:matrix34.obj
 0001:000e83b0       ?ToEulersYXZ@Matrix34@@QBEXAAVVector3@@@Z 004e93b0 f   vector:matrix34.obj
 0001:000e8480       ?ToEulersYZX@Matrix34@@QBEXAAVVector3@@@Z 004e9480 f   vector:matrix34.obj
 0001:000e8540       ?ToEulersZXY@Matrix34@@QBEXAAVVector3@@@Z 004e9540 f   vector:matrix34.obj
 0001:000e8610       ?ToEulersZYX@Matrix34@@QBEXAAVVector3@@@Z 004e9610 f   vector:matrix34.obj
 0001:000e86e0       ?Scale@Matrix34@@QAEXM@Z   004e96e0 f   vector:matrix34.obj
 0001:000e8740       ?Scale@Matrix34@@QAEXMMM@Z 004e9740 f   vector:matrix34.obj
 0001:000e87a0       ?ScaleFull@Matrix34@@QAEXM@Z 004e97a0 f   vector:matrix34.obj
 0001:000e8820       ?ScaleFull@Matrix34@@QAEXMMM@Z 004e9820 f   vector:matrix34.obj
 0001:000e88a0       ?MakeScale@Matrix34@@QAEXM@Z 004e98a0 f   vector:matrix34.obj
 0001:000e88d0       ?MakeScale@Matrix34@@QAEXMMM@Z 004e98d0 f   vector:matrix34.obj
 0001:000e8900       ?Inverse@Matrix34@@QAEXXZ  004e9900 f   vector:matrix34.obj
 0001:000e8a70       ?Inverse@Matrix34@@QAEXABV1@@Z 004e9a70 f   vector:matrix34.obj
 0001:000e8a90       ?FastInverse@Matrix34@@QAEXXZ 004e9a90 f   vector:matrix34.obj
 0001:000e8ac0       ?FastInverse@Matrix34@@QAEXABV1@@Z 004e9ac0 f   vector:matrix34.obj
 0001:000e8b70       ?Transpose@Matrix34@@QAEXXZ 004e9b70 f   vector:matrix34.obj
 0001:000e8ba0       ?Transpose@Matrix34@@QAEXABV1@@Z 004e9ba0 f   vector:matrix34.obj
 0001:000e8be0       ?Transpose3x4@Matrix34@@QAEXXZ 004e9be0 f   vector:matrix34.obj
 0001:000e8c60       ?Transpose3x4@Matrix34@@QAEXABV1@@Z 004e9c60 f   vector:matrix34.obj
 0001:000e8d00       ?LookAt@Matrix34@@QAEXABVVector3@@0@Z 004e9d00 f   vector:matrix34.obj
 0001:000e8e30       ?PolarView@Matrix34@@QAEXMMMM@Z 004e9e30 f   vector:matrix34.obj
 0001:000e8e80       ?GetPolar@Matrix34@@QBEXPAVVector4@@PAVVector3@@M@Z 004e9e80 f   vector:matrix34.obj
 0001:000e8ed0       ?GetLookAt@Matrix34@@QBEXPAVVector3@@0M@Z 004e9ed0 f   vector:matrix34.obj
 0001:000e8f20       ?Dot3x3CrossProdMtx@Matrix34@@QAEXABVVector3@@@Z 004e9f20 f   vector:matrix34.obj
 0001:000e8fd0       ?Dot3x3CrossProdTranspose@Matrix34@@QAEXABVVector3@@@Z 004e9fd0 f   vector:matrix34.obj
 0001:000e9080       ?Normalize@Matrix34@@QAEXXZ 004ea080 f   vector:matrix34.obj
 0001:000e9200       ?Determinant3x3@Matrix34@@QBEMXZ 004ea200 f   vector:matrix34.obj
 0001:000e9270       ?Interpolate@Matrix34@@QAEXABV1@0M@Z 004ea270 f   vector:matrix34.obj
 0001:000e9340       ?Print@Matrix34@@QBEXPBD@Z 004ea340 f   vector:matrix34.obj
 0001:000e93e0       ?SolveSVD@Matrix34@@QBE?AVVector3@@ABV2@@Z 004ea3e0 f   vector:matrix34.obj
 0001:000e9f90       ?Transform4@Matrix34@@QBEXPBVVector3@@PAVVector4@@H@Z 004eaf90 f   vector:matrix34.obj
 0001:000ea100       ?Print@Vector3@@QBEXXZ     004eb100 f   vector:vector3.obj
 0001:000ea130       ?Print@Vector3@@QBEXPBD@Z  004eb130 f   vector:vector3.obj
 0001:000ea170       ?Approach@Vector3@@QAE_NABV1@MM@Z 004eb170 f   vector:vector3.obj
 0001:000ea270       ?RotateAboutAxis@Vector3@@QAEXMH@Z 004eb270 f   vector:vector3.obj
 0001:000ea310       ?GetVector2@Vector3@@QBEXHAAVVector2@@@Z 004eb310 f   vector:vector3.obj
 0001:000ea3b0       ?RGBtoHSV@Vector3@@QAEXXZ  004eb3b0 f   vector:vector3.obj
 0001:000ea4c0       ?HSVtoRGB@Vector3@@QAEXXZ  004eb4c0 f   vector:vector3.obj
 0001:000ea5e0       ?RotateX@Vector3@@QAEXM@Z  004eb5e0 f   vector:vector3.obj
 0001:000ea620       ?RotateY@Vector3@@QAEXM@Z  004eb620 f   vector:vector3.obj
 0001:000ea650       ?RotateZ@Vector3@@QAEXM@Z  004eb650 f   vector:vector3.obj
 0001:000ea680       ?Angle@Vector3@@QBEMABV1@@Z 004eb680 f   vector:vector3.obj
 0001:000ea750       ?FastAngle@Vector3@@QBEMABV1@@Z 004eb750 f   vector:vector3.obj
 0001:000ea780       ?GetPolar@Vector3@@QBEXABV1@PAVVector4@@PAV1@@Z 004eb780 f   vector:vector3.obj
 0001:000ea820       ?Extend@Vector3@@QAEXM@Z   004eb820 f   vector:vector3.obj
 0001:000ea870       ?Extend@Vector3@@QAEXABV1@M@Z 004eb870 f   vector:vector3.obj
 0001:000ea8c0       ?DisableGlobalSeed@@YAXXZ  004eb8c0 f   vector:randmath.obj
 0001:000ea8f0       ?EnableGlobalSeed@@YAXXZ   004eb8f0 f   vector:randmath.obj
 0001:000ea920       ?ResetRandomSeed@@YAXXZ    004eb920 f   vector:randmath.obj
 0001:000ea930       ?irand@@YAHH@Z             004eb930 f   vector:randmath.obj
 0001:000ea960       ?irand@@YAHXZ              004eb960 f   vector:randmath.obj
 0001:000ea9a0       ?frand@@YAMXZ              004eb9a0 f   vector:randmath.obj
 0001:000ea9c0       ?frand@@YAMH@Z             004eb9c0 f   vector:randmath.obj
 0001:000ea9e0       _rand                      004eb9e0 f   vector:randmath.obj
 0001:000ea9f0       _srand                     004eb9f0 f   vector:randmath.obj
 0001:000eaac0       ?Identity@Matrix44@@QAEXXZ 004ebac0 f   vector:matrix44.obj
 0001:000eab00       ?Zero@Matrix44@@QAEXXZ     004ebb00 f   vector:matrix44.obj
 0001:000eab40       ?Set@Matrix44@@QAEXABV1@@Z 004ebb40 f   vector:matrix44.obj
 0001:000eabb0       ?Bezier@Matrix44@@QAEXXZ   004ebbb0 f   vector:matrix44.obj
 0001:000eac00       ?Hermite@Matrix44@@QAEXXZ  004ebc00 f   vector:matrix44.obj
 0001:000eac50       ?CatmullRom@Matrix44@@QAEXXZ 004ebc50 f   vector:matrix44.obj
 0001:000eacb0       ?Transpose@Matrix44@@QAEXXZ 004ebcb0 f   vector:matrix44.obj
 0001:000ead00       ?FromMatrix34@Matrix44@@QAEXABVMatrix34@@@Z 004ebd00 f   vector:matrix44.obj
 0001:000ead70       ?ToMatrix34@Matrix44@@QBEXAAVMatrix34@@@Z 004ebd70 f   vector:matrix44.obj
 0001:000eadc0       ?Add@Matrix44@@QAEXABV1@@Z 004ebdc0 f   vector:matrix44.obj
 0001:000eae60       ?Add@Matrix44@@QAEXABV1@0@Z 004ebe60 f   vector:matrix44.obj
 0001:000eaf00       ?Subtract@Matrix44@@QAEXABV1@@Z 004ebf00 f   vector:matrix44.obj
 0001:000eafa0       ?Subtract@Matrix44@@QAEXABV1@0@Z 004ebfa0 f   vector:matrix44.obj
 0001:000eb040       ?AddScaled@Matrix44@@QAEXABV1@M@Z 004ec040 f   vector:matrix44.obj
 0001:000eb0e0       ?Dot@Matrix44@@QAEAAV1@ABV1@@Z 004ec0e0 f   vector:matrix44.obj
 0001:000eb350       ?Dot@Matrix44@@QAEAAV1@ABV1@0@Z 004ec350 f   vector:matrix44.obj
 0001:000eb500       ?Dot@Vector4@@QAEAAV1@ABV1@ABVMatrix44@@@Z 004ec500 f   vector:matrix44.obj
 0001:000eb590       ?Dot3x3@Vector4@@QAEAAV1@ABV1@ABVMatrix44@@@Z 004ec590 f   vector:matrix44.obj
 0001:000eb5f0       ?FastInverse@Matrix44@@QAEXABV1@@Z 004ec5f0 f   vector:matrix44.obj
 0001:000eb6b0       ?Determinant@Matrix44@@QBEMXZ 004ec6b0 f   vector:matrix44.obj
 0001:000eb8a0       ?InvertTo@Matrix44@@QBEXAAV1@@Z 004ec8a0 f   vector:matrix44.obj
 0001:000ebfb0       ?MakeRotX@Matrix44@@QAEAAV1@M@Z 004ecfb0 f   vector:matrix44.obj
 0001:000ec000       ?MakeRotY@Matrix44@@QAEAAV1@M@Z 004ed000 f   vector:matrix44.obj
 0001:000ec050       ?MakeRotZ@Matrix44@@QAEAAV1@M@Z 004ed050 f   vector:matrix44.obj
 0001:000ec0a0       ?Print@Matrix44@@QBEXPBD@Z 004ed0a0 f   vector:matrix44.obj
 0001:000ec110       ?Transform4@Matrix44@@QBEXPBVVector3@@PAVVector4@@H@Z 004ed110 f   vector:matrix44.obj
 0001:000ec1c0       ?__vectorDotMatrix@@YAXAAVVector4@@ABV1@ABVMatrix44@@@Z 004ed1c0 f i vector:matrix44.obj
 0001:000ec250       ?ComputeBoundSphere@@YAXHQBMIAAVVector4@@@Z 004ed250 f   vector:geometry.obj
 0001:000ec2b0       ?ComputeBoundInfo@@YAXHQBMIPAVVector3@@11PAM@Z 004ed2b0 f   vector:geometry.obj
 0001:000ec800       ?FindImpactPolygonToSphere@@YAHABVVector3@@MPBV1@H0PAV1@PAH2PAM@Z 004ed800 f   vector:geometry.obj
 0001:000ecca0       ?FindImpactEdgeToShaft@@YAHABVVector3@@000MPAHPAV1@PAM2@Z 004edca0 f   vector:geometry.obj
 0001:000ecf20       ?IsPointBehindPlane@@YA_NABVVector3@@00M@Z 004edf20 f   vector:geometry.obj
 0001:000ecf60       ?IsPointNearPlane@@YA_NABVVector3@@00M@Z 004edf60 f   vector:geometry.obj
 0001:000ecfb0       ?IsPointInBox@@YA_NABVVector3@@MMM@Z 004edfb0 f   vector:geometry.obj
 0001:000ed010       ?IsNearZero@@YAHMM@Z       004ee010 f   vector:geometry.obj
 0001:000ed040       ?FindClosestPointSegToPoint@@YAHABVVector3@@00PAV1@PAM@Z 004ee040 f   vector:geometry.obj
 0001:000ed0c0       ?FindClosestPointSegToOrigin@@YAHABVVector3@@0PAV1@PAM@Z 004ee0c0 f   vector:geometry.obj
 0001:000ed1a0       ?DistanceLineToLine@@YAMABVVector3@@000PAV1@M@Z 004ee1a0 f   vector:geometry.obj
 0001:000ed2f0       ?DistanceParallelLineToLine@@YAMABVVector3@@000PAV1@@Z 004ee2f0 f   vector:geometry.obj
 0001:000ed3e0       ?DistanceLineToYAxis@@YAMABVVector3@@0PAV1@@Z 004ee3e0 f   vector:geometry.obj
 0001:000ed490       ?DistanceLineToPoint@@YAMABVVector3@@00@Z 004ee490 f   vector:geometry.obj
 0001:000ed560       ?FindTValueSegToPoint@@YAMABVVector3@@00@Z 004ee560 f   vector:geometry.obj
 0001:000ed5a0       ?FindTValueSegToOrigin@@YAMABVVector3@@0@Z 004ee5a0 f   vector:geometry.obj
 0001:000ed620       ?FindTValuesSegToSeg@@YA_NABVVector3@@000PAM1@Z 004ee620 f   vector:geometry.obj
 0001:000ed920       ?FindTValuesLineToLine@@YA_NABVVector3@@000PAM1@Z 004ee920 f   vector:geometry.obj
 0001:000edb30       ?FindTValuesLineToYAxis@@YA_NABVVector3@@0MMPAM1@Z 004eeb30 f   vector:geometry.obj
 0001:000edd00       ?FindTValuesLineToBoxFace@@YA_NABVVector3@@000PAM1PAH2@Z 004eed00 f   vector:geometry.obj
 0001:000ee030       ?SegmentToSphereIntersections@@YAHABVVector3@@0MPAM1@Z 004ef030 f   vector:geometry.obj
 0001:000ee190       ?SegmentToHemisphereIntersections@@YAHABVVector3@@0MPAM1_N@Z 004ef190 f   vector:geometry.obj
 0001:000ee3b0       ?SegmentToDiskIntersection@@YA_NABVVector3@@0MPAM@Z 004ef3b0 f   vector:geometry.obj
 0001:000ee430       ?SegmentToUprightCylIsects@@YAHABVVector3@@0MMPAM111@Z 004ef430 f   vector:geometry.obj
 0001:000ee5a0       ?SegmentToInfCylIsects@@YAHABVVector3@@000MPAM1@Z 004ef5a0 f   vector:geometry.obj
 0001:000ee790       ?SegmentToBoxIntersections@@YAHABVVector3@@0MMMPAM1PAV1@2PAH3@Z 004ef790 f   vector:geometry.obj
 0001:000eeb60       ?AddIntersection@@YAHMPAM0ABVVector3@@PAV1@2HHPAH3@Z 004efb60 f   vector:geometry.obj
 0001:000eec30       ?AddIntersection@@YAHMPAM0HPAH1H@Z 004efc30 f   vector:geometry.obj
 0001:000eecb0       ?OrderIntersections@@YAXPAM000PAH1@Z 004efcb0 f   vector:geometry.obj
 0001:000eecf0       ?IsPointInRegion@@YA_NMMPBVVector3@@H@Z 004efcf0 f   vector:geometry.obj
 0001:000eedd0       ?CollidePlane@@YA_NABVVector3@@0ABVVector4@@PAM@Z 004efdd0 f   vector:geometry.obj
 0001:000eee30       ?CollideRayTriangle@@YA_NABVVector3@@0000PAM@Z 004efe30 f   vector:geometry.obj
 0001:000ef010       ?Print@Quaternion@@QBEXXZ  004f0010 f   vector:quaternion.obj
 0001:000ef050       ?Print@Quaternion@@QBEXPBD@Z 004f0050 f   vector:quaternion.obj
 0001:000ef090       ?Slerp@Quaternion@@QAEXMABV1@0@Z 004f0090 f   vector:quaternion.obj
 0001:000ef290       ?FromMatrix@Quaternion@@QAEXABVMatrix34@@@Z 004f0290 f   vector:quaternion.obj
 0001:000ef450       ?Multiply@Quaternion@@QAEXABV1@0@Z 004f0450 f   vector:quaternion.obj
 0001:000ef4e0       ?Multiply@Quaternion@@QAEXABV1@@Z 004f04e0 f   vector:quaternion.obj
 0001:000ef580       ?MultiplyInverse@Quaternion@@QAEXABV1@@Z 004f0580 f   vector:quaternion.obj
 0001:000ef620       ?EnableNanSignal@@YAX_N@Z  004f0620 f   vector:nan.obj
 0001:000ef680       ?Print@Vector4@@QBEXXZ     004f0680 f   vector:vector4.obj
 0001:000ef6c0       ?Print@Vector4@@QBEXPBD@Z  004f06c0 f   vector:vector4.obj
 0001:000ef700       ?ComputePlane@Vector4@@QAEXABVVector3@@00@Z 004f0700 f   vector:vector4.obj
 0001:000ef7e0       ?ComputePlane@Vector4@@QAEXABVVector3@@0@Z 004f07e0 f   vector:vector4.obj
 0001:000ef820       ?Min@Vector4@@QAEXABV1@0@Z 004f0820 f   vector:vector4.obj
 0001:000ef890       ?Max@Vector4@@QAEXABV1@0@Z 004f0890 f   vector:vector4.obj
 0001:000ef900       ?Outcode@Vector4@@QBEHXZ   004f0900 f   vector:vector4.obj
 0001:000ef970       ?SetPath@datAssetManager@@SAXPBD@Z 004f0970 f   data:asset.obj
 0001:000efa20       ?FullPath@datAssetManager@@SAXPADHPBD1@Z 004f0a20 f   data:asset.obj
 0001:000efb30       ?FullPath@datAssetManager@@SAXPADHPBD11@Z 004f0b30 f   data:asset.obj
 0001:000efcb0       ?Open@datAssetManager@@SAPAVStream@@PBD0_N1@Z 004f0cb0 f   data:asset.obj
 0001:000efd20       ?Open@datAssetManager@@SAPAVStream@@PBD00_N1@Z 004f0d20 f   data:asset.obj
 0001:000efd90       ?Create@datAssetManager@@SAPAVStream@@PBD0_N@Z 004f0d90 f   data:asset.obj
 0001:000efe00       ?Create@datAssetManager@@SAPAVStream@@PBD00_N@Z 004f0e00 f   data:asset.obj
 0001:000efe70       ?Exists@datAssetManager@@SA_NPBD0@Z 004f0e70 f   data:asset.obj
 0001:000efea0       ?Exists@datAssetManager@@SA_NPBD00@Z 004f0ea0 f   data:asset.obj
 0001:000efed0       ?FileName@datAssetManager@@SAPBDPBD@Z 004f0ed0 f   data:asset.obj
 0001:000eff00       ?BaseName@datAssetManager@@SAXPBDPADH@Z 004f0f00 f   data:asset.obj
 0001:000eff40       ?EnumFiles@datAssetManager@@SAHPBDP6AX0_NPAX@Z21@Z 004f0f40 f   data:asset.obj
 0001:000f0070       ?Init@datArgParser@@SAXXZ  004f1070 f   data:args.obj
 0001:000f0080       ?Init@datArgParser@@SAXHPAPAD@Z 004f1080 f   data:args.obj
 0001:000f01d0       ?RestoreFromArchive@datArgParser@@SAXPAD@Z 004f11d0 f   data:args.obj
 0001:000f0380       ?SaveToArchive@datArgParser@@SAHPAD@Z 004f1380 f   data:args.obj
 0001:000f05d0       ?Kill@datArgParser@@SAXXZ  004f15d0 f   data:args.obj
 0001:000f05e0       ?AddReplace@datArgParser@@SAXPBDPAD@Z 004f15e0 f   data:args.obj
 0001:000f0650       ?Get@datArgParser@@SA_NPBD@Z 004f1650 f   data:args.obj
 0001:000f0680       ?Get@datArgParser@@SA_NPBDIAAH@Z 004f1680 f   data:args.obj
 0001:000f06d0       ?Get@datArgParser@@SA_NPBDIAAM@Z 004f16d0 f   data:args.obj
 0001:000f0720       ?Get@datArgParser@@SA_NPBDIPAPBD@Z 004f1720 f   data:args.obj
 0001:000f0760       ?GetNum@datArgParser@@SAHPBD@Z 004f1760 f   data:args.obj
 0001:000f0790       ?SetDebugLevel@datArgParser@@SAXPBDAAH@Z 004f1790 f   data:args.obj
 0001:000f0800       ??0datCallback@@QAE@XZ     004f1800 f   data:callback.obj
 0001:000f0810       ??0datCallback@@QAE@P8Base@@AEXXZPAV1@@Z 004f1810 f   data:callback.obj
 0001:000f0860       ??0datCallback@@QAE@P8Base@@AEXPAX@ZPAV1@0@Z 004f1860 f   data:callback.obj
 0001:000f08b0       ??0datCallback@@QAE@P8Base@@AEXPAX0@ZPAV1@0@Z 004f18b0 f   data:callback.obj
 0001:000f0900       ??0datCallback@@QAE@P6AXXZ@Z 004f1900 f   data:callback.obj
 0001:000f0950       ??0datCallback@@QAE@P6AXPAX@Z0@Z 004f1950 f   data:callback.obj
 0001:000f09a0       ??0datCallback@@QAE@P6AXPAX0@Z0@Z 004f19a0 f   data:callback.obj
 0001:000f09f0       ?Call@datCallback@@QAEXPAX@Z 004f19f0 f   data:callback.obj
 0001:000f0ab0       ?Reset@datTimeManager@@SAXXZ 004f1ab0 f   data:timemgr.obj
 0001:000f0af0       ?Update@datTimeManager@@SAXXZ 004f1af0 f   data:timemgr.obj
 0001:000f0ca0       ?SetTempOverSampling@datTimeManager@@SAX_NH@Z 004f1ca0 f   data:timemgr.obj
 0001:000f0d30       ?RealTime@datTimeManager@@SAXM@Z 004f1d30 f   data:timemgr.obj
 0001:000f0d80       ?FixedFrame@datTimeManager@@SAXMI@Z 004f1d80 f   data:timemgr.obj
 0001:000f0e10       ??0HashTable@@QAE@H_NH@Z   004f1e10 f   data:hash.obj
 0001:000f0e60       ??1HashTable@@QAE@XZ       004f1e60 f   data:hash.obj
 0001:000f0e90       ?InitFixed@HashTable@@AAEXHH@Z 004f1e90 f   data:hash.obj
 0001:000f0f50       ?InitCommon@HashTable@@AAEXH@Z 004f1f50 f   data:hash.obj
 0001:000f0f90       ?Kill@HashTable@@QAEXXZ    004f1f90 f   data:hash.obj
 0001:000f1030       ?KillAll@HashTable@@SAXXZ  004f2030 f   data:hash.obj
 0001:000f1050       ?MakePermanent@HashTable@@QAEXXZ 004f2050 f   data:hash.obj
 0001:000f1080       ??4HashTable@@QAEXABV0@@Z  004f2080 f   data:hash.obj
 0001:000f1100       ?GetEmptySlot@HashTable@@QAEAAVHashEntry@@PBDPAXPAV2@@Z 004f2100 f   data:hash.obj
 0001:000f11d0       ?MakeEmpty@HashTable@@QAEXXZ 004f21d0 f   data:hash.obj
 0001:000f1220       ?Insert@HashTable@@QAE_NPBDPAX@Z 004f2220 f   data:hash.obj
 0001:000f1380       ?Delete@HashTable@@QAE_NPBD@Z 004f2380 f   data:hash.obj
 0001:000f14c0       ?Change@HashTable@@QAE_NPBD0@Z 004f24c0 f   data:hash.obj
 0001:000f1500       ?Access@HashTable@@QAEPAXPBD@Z 004f2500 f   data:hash.obj
 0001:000f1570       ?Access@HashTable@@QAE_NPBDPAPBX@Z 004f2570 f   data:hash.obj
 0001:000f15e0       ?AccessName@HashTable@@QAEPBDH@Z 004f25e0 f   data:hash.obj
 0001:000f1600       ?AccessData@HashTable@@QAEPAXH@Z 004f2600 f   data:hash.obj
 0001:000f1620       ?Hash@HashTable@@AAEHPBD@Z 004f2620 f   data:hash.obj
 0001:000f16a0       ?ComputePrime@HashTable@@AAEHH@Z 004f26a0 f   data:hash.obj
 0001:000f16f0       ?Recompute@HashTable@@AAEXH@Z 004f26f0 f   data:hash.obj
 0001:000f1820       ?GetEntry@HashTable@@AAEPAVHashEntry@@H@Z 004f2820 f   data:hash.obj
 0001:000f18a0       ?GetFirstEntry@HashTable@@QAE_NAAVHashPosition@@@Z 004f28a0 f   data:hash.obj
 0001:000f18f0       ?GetNextEntry@HashTable@@QAE_NAAVHashPosition@@@Z 004f28f0 f   data:hash.obj
 0001:000f1940       ??0FixedHashEntry@@AAE@XZ  004f2940 f i data:hash.obj
 0001:000f1950       ??_EFixedHashEntry@@QAEPAXI@Z 004f2950 f i data:hash.obj
 0001:000f19b0       ??1FixedHashEntry@@QAE@XZ  004f29b0 f i data:hash.obj
 0001:000f19c0       ?datGetUserName@@YA_NPADH@Z 004f29c0 f   data:username.obj
 0001:000f1a10       ?datGetMachineName@@YA_NPADH@Z 004f2a10 f   data:username.obj
 0001:000f1a60       ?datGetTempName@@YAPADPADH@Z 004f2a60 f   data:username.obj
 0001:000f1b10       ?GetTimestamp@datStack@@SAPBDXZ 004f2b10 f   data:stack.obj
 0001:000f1e60       ?LookupAddress@datStack@@SAXPADH@Z 004f2e60 f   data:stack.obj
 0001:000f1ee0       ?DoTraceback@datStack@@SAXHPAHPAU_iobuf@@PBD@Z 004f2ee0 f   data:stack.obj
 0001:000f1fb0       ?Traceback@datStack@@SAXHPAU_iobuf@@@Z 004f2fb0 f   data:stack.obj
 0001:000f1fe0       ?LogTraceback@datStack@@SAHPAHH@Z 004f2fe0 f   data:stack.obj
 0001:000f20a0       ?DumpTraceback@datStack@@SAXPAHHPAU_iobuf@@@Z 004f30a0 f   data:stack.obj
 0001:000f2110       ?ExceptionFilter@datStack@@SAHPAU_EXCEPTION_POINTERS@@@Z 004f3110 f   data:stack.obj
 0001:000f21b0       ?IsOnStack@@YA_NPAX@Z      004f31b0 f   data:stack.obj
 0001:000f21d0       ?Ticks@Timer@@SAIXZ        004f31d0 f   data:timer.obj
 0001:000f2200       ?QuickTicks@Timer@@SAIXZ   004f3200 f   data:timer.obj
 0001:000f2230       ??0Timer@@QAE@XZ           004f3230 f   data:timer.obj
 0001:000f2370       ?BeginBenchmark@Timer@@SAXXZ 004f3370 f   data:timer.obj
 0001:000f23e0       ?EndBenchmark@Timer@@SAXXZ 004f33e0 f   data:timer.obj
 0001:000f2410       ??1Base@@UAE@XZ            004f3410 f   data:base.obj
 0001:000f2420       ?DebugLogInit@@YAX_N@Z     004f3420 f   data:debuglog.obj
 0001:000f2480       ?DebugLogShutdown@@YAXXZ   004f3480 f   data:debuglog.obj
 0001:000f24a0       ?DebugLog@@YAXHPBXH_N@Z    004f34a0 f   data:debuglog.obj
 0001:000f29c0       ?StringDuplicate@@YAPADPBD@Z 004f39c0 f   data:string.obj
 0001:000f2a10       ?formatf@@YAPADPADHPBDZZ   004f3a10 f   data:string.obj
 0001:000f2a60       ?Init@datBaseTokenizer@@QAEXPBDPAVStream@@@Z 004f3a60 f   data:token.obj
 0001:000f2a90       ?PushBack@datBaseTokenizer@@AAEXPBDH@Z 004f3a90 f   data:token.obj
 0001:000f2b00       ?GetTokenCh@datBaseTokenizer@@AAEHXZ 004f3b00 f   data:token.obj
 0001:000f2b40       ?SkipComment@datBaseTokenizer@@IAEXXZ 004f3b40 f   data:token.obj
 0001:000f2b80       ?GetToken@datBaseTokenizer@@QAEHPADH@Z 004f3b80 f   data:token.obj
 0001:000f2cd0       ?GetBlock@datBaseTokenizer@@QAEHPADH@Z 004f3cd0 f   data:token.obj
 0001:000f2d10       ?MatchToken@datBaseTokenizer@@QAEXPBD@Z 004f3d10 f   data:token.obj
 0001:000f2d90       ?CheckToken@datBaseTokenizer@@QAE_NPBD_N@Z 004f3d90 f   data:token.obj
 0001:000f2e20       ?GetTokenToChar@datBaseTokenizer@@QAEHPADHD@Z 004f3e20 f   data:token.obj
 0001:000f2ee0       ?SkipToEndOfLine@datBaseTokenizer@@QAEXXZ 004f3ee0 f   data:token.obj
 0001:000f2f00       ?IgnoreToken@datBaseTokenizer@@QAEXXZ 004f3f00 f   data:token.obj
 0001:000f2f20       ?Pop@datBaseTokenizer@@QAEXXZ 004f3f20 f   data:token.obj
 0001:000f2f60       ?Put@datBaseTokenizer@@UAE_ND@Z 004f3f60 f   data:token.obj
 0001:000f2fd0       ?PutStr@datBaseTokenizer@@QAA_NPBDZZ 004f3fd0 f   data:token.obj
 0001:000f3010       ?GetInt@datAsciiTokenizer@@UAEHXZ 004f4010 f   data:token.obj
 0001:000f3070       ?GetFloat@datAsciiTokenizer@@UAEMXZ 004f4070 f   data:token.obj
 0001:000f30d0       ?GetVector@datAsciiTokenizer@@UAEXAAVVector2@@@Z 004f40d0 f   data:token.obj
 0001:000f3100       ?GetVector@datAsciiTokenizer@@UAEXAAVVector3@@@Z 004f4100 f   data:token.obj
 0001:000f3130       ?GetVector@datAsciiTokenizer@@UAEXAAVVector4@@@Z 004f4130 f   data:token.obj
 0001:000f3170       ?GetDelimiter@datAsciiTokenizer@@UAEXPBD@Z 004f4170 f   data:token.obj
 0001:000f3180       ?MatchInt@datAsciiTokenizer@@UAEHPBD@Z 004f4180 f   data:token.obj
 0001:000f31a0       ?MatchFloat@datAsciiTokenizer@@UAEMPBD@Z 004f41a0 f   data:token.obj
 0001:000f31c0       ?MatchVector@datAsciiTokenizer@@UAEXPBDAAVVector2@@@Z 004f41c0 f   data:token.obj
 0001:000f31e0       ?MatchVector@datAsciiTokenizer@@UAEXPBDAAVVector3@@@Z 004f41e0 f   data:token.obj
 0001:000f3200       ?MatchVector@datAsciiTokenizer@@UAEXPBDAAVVector4@@@Z 004f4200 f   data:token.obj
 0001:000f3220       ?Put@datAsciiTokenizer@@UAE_NPBDI@Z 004f4220 f   data:token.obj
 0001:000f32b0       ?Put@datAsciiTokenizer@@UAE_NH@Z 004f42b0 f   data:token.obj
 0001:000f32f0       ?Put@datAsciiTokenizer@@UAE_NM@Z 004f42f0 f   data:token.obj
 0001:000f3340       ?Put@datAsciiTokenizer@@UAE_NABVVector2@@@Z 004f4340 f   data:token.obj
 0001:000f33a0       ?Put@datAsciiTokenizer@@UAE_NABVVector3@@@Z 004f43a0 f   data:token.obj
 0001:000f3400       ?Put@datAsciiTokenizer@@UAE_NABVVector4@@@Z 004f4400 f   data:token.obj
 0001:000f3470       ?PutDelimiter@datAsciiTokenizer@@UAE_NPBD@Z 004f4470 f   data:token.obj
 0001:000f3490       ?GetInt@datBinTokenizer@@UAEHXZ 004f4490 f   data:token.obj
 0001:000f34d0       ?GetFloat@datBinTokenizer@@UAEMXZ 004f44d0 f   data:token.obj
 0001:000f3520       ?GetVector@datBinTokenizer@@UAEXAAVVector2@@@Z 004f4520 f   data:token.obj
 0001:000f3560       ?GetVector@datBinTokenizer@@UAEXAAVVector3@@@Z 004f4560 f   data:token.obj
 0001:000f35a0       ?GetVector@datBinTokenizer@@UAEXAAVVector4@@@Z 004f45a0 f   data:token.obj
 0001:000f35e0       ?GetDelimiter@datBinTokenizer@@UAEXPBD@Z 004f45e0 f   data:token.obj
 0001:000f35f0       ?MatchInt@datBinTokenizer@@UAEHPBD@Z 004f45f0 f   data:token.obj
 0001:000f3600       ?MatchFloat@datBinTokenizer@@UAEMPBD@Z 004f4600 f   data:token.obj
 0001:000f3610       ?MatchVector@datBinTokenizer@@UAEXPBDAAVVector2@@@Z 004f4610 f   data:token.obj
 0001:000f3620       ?MatchVector@datBinTokenizer@@UAEXPBDAAVVector3@@@Z 004f4620 f   data:token.obj
 0001:000f3630       ?MatchVector@datBinTokenizer@@UAEXPBDAAVVector4@@@Z 004f4630 f   data:token.obj
 0001:000f3640       ?Put@datBinTokenizer@@UAE_NPBDI@Z 004f4640 f   data:token.obj
 0001:000f3690       ?Put@datBinTokenizer@@UAE_NH@Z 004f4690 f   data:token.obj
 0001:000f36b0       ?Put@datBinTokenizer@@UAE_NM@Z 004f46b0 f   data:token.obj
 0001:000f36d0       ?Put@datBinTokenizer@@UAE_NABVVector2@@@Z 004f46d0 f   data:token.obj
 0001:000f36f0       ?Put@datBinTokenizer@@UAE_NABVVector3@@@Z 004f46f0 f   data:token.obj
 0001:000f3710       ?Put@datBinTokenizer@@UAE_NABVVector4@@@Z 004f4710 f   data:token.obj
 0001:000f3730       ?PutDelimiter@datBinTokenizer@@UAE_NPBD@Z 004f4730 f   data:token.obj
 0001:000f3740       ??0datMultiTokenizer@@QAE@XZ 004f4740 f   data:token.obj
 0001:000f3750       ?GetReadTokenizer@datMultiTokenizer@@QAEAAVdatBaseTokenizer@@PBDPAVStream@@00@Z 004f4750 f   data:token.obj
 0001:000f3880       ?GetWriteTokenizer@datMultiTokenizer@@QAEAAVdatBaseTokenizer@@PBDPAVStream@@_N0@Z 004f4880 f   data:token.obj
 0001:000f38d0       ??0datTokenizer@@QAE@XZ    004f48d0 f   data:token.obj
 0001:000f38e0       ??0datTokenizer@@QAE@PBDPAVStream@@@Z 004f48e0 f   data:token.obj
 0001:000f3910       ?Reset@datReplay@@SAXXZ    004f4910 f   data:replay.obj
 0001:000f3930       ?GetByte@datReplay@@SAHXZ  004f4930 f   data:replay.obj
 0001:000f39a0       ?GetInt@datReplay@@SAHXZ   004f49a0 f   data:replay.obj
 0001:000f3a20       ?RecordByte@datReplay@@SAXE@Z 004f4a20 f   data:replay.obj
 0001:000f3a70       ?RecordInt@datReplay@@SAXH@Z 004f4a70 f   data:replay.obj
 0001:000f3ac0       ?BeginRecord@datReplay@@SA_NPAVdatMemStream@@@Z 004f4ac0 f   data:replay.obj
 0001:000f3b00       ?BeginPlayback@datReplay@@SA_NPAVdatMemStream@@@Z 004f4b00 f   data:replay.obj
 0001:000f3b60       ?Close@datReplay@@SAXXZ    004f4b60 f   data:replay.obj
 0001:000f3bb0       ?BeginFrame@datReplay@@SAXXZ 004f4bb0 f   data:replay.obj
 0001:000f3c00       ?EndFrame@datReplay@@SA_NXZ 004f4c00 f   data:replay.obj
 0001:000f3cb0       ?Read@datMemStream@@QAEHPAXH@Z 004f4cb0 f   data:memstream.obj
 0001:000f3d10       ?Write@datMemStream@@QAEHPBXH@Z 004f4d10 f   data:memstream.obj
 0001:000f3d80       ?GetCh@datMemStream@@QAEHXZ 004f4d80 f   data:memstream.obj
 0001:000f3db0       ?PutCh@datMemStream@@QAEHE@Z 004f4db0 f   data:memstream.obj
 0001:000f3de0       ?Close@datMemStream@@QAEHXZ 004f4de0 f   data:memstream.obj
 0001:000f3e00       ?Size@datMemStream@@QAEHXZ 004f4e00 f   data:memstream.obj
 0001:000f3e10       ?__ComputeCpuSpeed@@YAIXZ  004f4e10 f   x86:speed.obj
 0001:000f3ed0       ?ComputeCpuSpeed@@YAIXZ    004f4ed0 f   x86:speed.obj
 0001:000f3f30       ?DisablePopUpErrors@@YAXXZ 004f4f30 f   core:output.obj
 0001:000f3f40       ?DisablePopUpQuits@@YAXXZ  004f4f40 f   core:output.obj
 0001:000f3f50       ?EnablePopUpErrors@@YAXXZ  004f4f50 f   core:output.obj
 0001:000f3f60       ?EnablePopUpQuits@@YAXXZ   004f4f60 f   core:output.obj
 0001:000f3f90       ?CloseLog@datOutput@@SAXXZ 004f4f90 f   core:output.obj
 0001:000f3fb0       ?SetBeforeMsgBoxFunction@datOutput@@SAXP6AXXZ@Z 004f4fb0 f   core:output.obj
 0001:000f3fc0       ?SetAfterMsgBoxFunction@datOutput@@SAXP6AXXZ@Z 004f4fc0 f   core:output.obj
 0001:000f3fd0       ?CallBeforeMsgBoxFunction@datOutput@@SAXXZ 004f4fd0 f   core:output.obj
 0001:000f3fe0       ?CallAfterMsgBoxFunction@datOutput@@SAXXZ 004f4fe0 f   core:output.obj
 0001:000f3ff0       ?SetOutputMask@datOutput@@SAXI@Z 004f4ff0 f   core:output.obj
 0001:000f4000       ?OpenLog@datOutput@@SA_NPBD@Z 004f5000 f   core:output.obj
 0001:000f4180       ?Printf@@YAXPBDZZ          004f5180 f   core:output.obj
 0001:000f41b0       ?Messagef@@YAXPBDZZ        004f51b0 f   core:output.obj
 0001:000f41e0       ?Displayf@@YAXPBDZZ        004f51e0 f   core:output.obj
 0001:000f4210       ?Debugf1@@YAXHPBDZZ        004f5210 f   core:output.obj
 0001:000f4230       ?Debugf2@@YAXHPBDZZ        004f5230 f   core:output.obj
 0001:000f4250       ?Debugf3@@YAXHPBDZZ        004f5250 f   core:output.obj
 0001:000f4270       ?Warningf@@YAXPBDZZ        004f5270 f   core:output.obj
 0001:000f42a0       ?Errorf@@YAXPBDZZ          004f52a0 f   core:output.obj
 0001:000f42d0       ?Quitf@@YAXPBDZZ           004f52d0 f   core:output.obj
 0001:000f4310       ?Abortf@@YAXPBDZZ          004f5310 f   core:output.obj
 0001:000f4350       ?AssertErrorf@@YAXHPBD0HPADZZ 004f5350 f   core:output.obj
 0001:000f4390       ?AssertWarningf@@YAXHPBD0HPADZZ 004f5390 f   core:output.obj
 0001:000f43d0       ?AssertQuitf@@YAXHPBD0HPADZZ 004f53d0 f   core:output.obj
 0001:000f4410       ?datAssert@@YAXPBD0I@Z     004f5410 f   core:assert.obj
 0001:000f4480       ?AllocStream@Stream@@CAPAV1@PBDHPBUcoreFileMethods@@@Z 004f5480 f   core:stream.obj
 0001:000f4550       ?DumpOpenFiles@Stream@@SAXXZ 004f5550 f   core:stream.obj
 0001:000f45a0       ?Open@Stream@@SAPAV1@PBD_N@Z 004f55a0 f   core:stream.obj
 0001:000f45e0       ?Create@Stream@@SAPAV1@PBD@Z 004f55e0 f   core:stream.obj
 0001:000f4620       ?Open@Stream@@SAPAV1@PBDPBUcoreFileMethods@@_N@Z 004f5620 f   core:stream.obj
 0001:000f4650       ?Create@Stream@@SAPAV1@PBDPBUcoreFileMethods@@@Z 004f5650 f   core:stream.obj
 0001:000f4680       ?Read@Stream@@QAEHPAXH@Z   004f5680 f   core:stream.obj
 0001:000f4820       ?Write@Stream@@QAEHPBXH@Z  004f5820 f   core:stream.obj
 0001:000f4950       ?GetCh@Stream@@QAEHXZ      004f5950 f   core:stream.obj
 0001:000f4980       ?PutCh@Stream@@QAEHE@Z     004f5980 f   core:stream.obj
 0001:000f49b0       ?Seek@Stream@@QAEHH@Z      004f59b0 f   core:stream.obj
 0001:000f4a00       ?Tell@Stream@@QAEHXZ       004f5a00 f   core:stream.obj
 0001:000f4a10       ?Close@Stream@@QAEHXZ      004f5a10 f   core:stream.obj
 0001:000f4a50       ?Size@Stream@@QAEHXZ       004f5a50 f   core:stream.obj
 0001:000f4ab0       ?Flush@Stream@@QAEHXZ      004f5ab0 f   core:stream.obj
 0001:000f4b40       ?fprintf@@YAXPAVStream@@PBDZZ 004f5b40 f   core:stream.obj
 0001:000f4b90       ?fseek@@YAHPAVStream@@HH@Z 004f5b90 f   core:stream.obj
 0001:000f4bf0       ?fgets@@YAHPADHPAVStream@@@Z 004f5bf0 f   core:stream.obj
 0001:000f4c70       ?fscanf@@YAHPAVStream@@PBDZZ 004f5c70 f   core:stream.obj
 0001:000f4d20       ?memReadFile@@YAHHPAXH@Z   004f5d20 f   core:stream.obj
 0001:000f4d30       ?memCloseFile@@YAHH@Z      004f5d30 f   core:stream.obj
 0001:000f4d60       ?memSizeFile@@YAHH@Z       004f5d60 f   core:stream.obj
 0001:000f4d70       ?PreLoad@Stream@@SAPAV1@PAV1@@Z 004f5d70 f   core:stream.obj
 0001:000f4e40       ?coreRawOpenFile@@YAHPBD_N@Z 004f5e40 f   core:file.obj
 0001:000f4e80       ?coreRawCreateFile@@YAHPBD@Z 004f5e80 f   core:file.obj
 0001:000f4eb0       ?coreRawSeekFile@@YAHHHW4seekWhence@@@Z 004f5eb0 f   core:file.obj
 0001:000f4ed0       ?coreRawWriteFile@@YAHHPBXH@Z 004f5ed0 f   core:file.obj
 0001:000f4f00       ?coreRawReadFile@@YAHHPAXH@Z 004f5f00 f   core:file.obj
 0001:000f4f30       ?coreRawCloseFile@@YAHH@Z  004f5f30 f   core:file.obj
 0001:000f4f50       ?coreRawEnumFiles@@YAHPBDP6AX0_NPAX@Z2@Z 004f5f50 f   core:file.obj
 0001:000f5010       ??0vehWheelPtx@@QAE@XZ     004f6010 f   vehicle:wheelptx.obj
 0001:000f5070       ??1vehWheelPtx@@UAE@XZ     004f6070 f   vehicle:wheelptx.obj
 0001:000f50d0       ?ConstructClass@vehWheelPtx@@SAXPBD@Z 004f60d0 f   vehicle:wheelptx.obj
 0001:000f51c0       ?DestroyClass@vehWheelPtx@@SAXXZ 004f61c0 f   vehicle:wheelptx.obj
 0001:000f51f0       ?Reset@vehWheelPtx@@UAEXXZ 004f61f0 f   vehicle:wheelptx.obj
 0001:000f5200       ?Init@vehWheelPtx@@QAEXPAVvehCarSim@@@Z 004f6200 f   vehicle:wheelptx.obj
 0001:000f5270       ?Update@vehWheelPtx@@UAEXXZ 004f6270 f   vehicle:wheelptx.obj
 0001:000f52c0       ?UpdateWheel@vehWheelPtx@@QAEXPAVvehWheel@@@Z 004f62c0 f   vehicle:wheelptx.obj
 0001:000f5320       ?Blast@vehWheelPtx@@QAEXPAVvehWheel@@MHH@Z 004f6320 f   vehicle:wheelptx.obj
 0001:000f5590       ?AddWidgets@vehWheelPtx@@UAEXAAVbkBank@@@Z 004f6590 f   vehicle:wheelptx.obj
 0001:000f55b0       ?AddRuleWidgets@vehWheelPtx@@SAXAAVbkBank@@@Z 004f65b0 f   vehicle:wheelptx.obj
 0001:000f55f0       ??_EvehWheelPtx@@UAEPAXI@Z 004f65f0 f i vehicle:wheelptx.obj
 0001:000f55f0       ??_GvehWheelPtx@@UAEPAXI@Z 004f65f0 f i vehicle:wheelptx.obj
 0001:000f5620       ??0vehTrailer@@QAE@XZ      004f6620 f   vehicle:trailer.obj
 0001:000f58f0       ??1vehTrailer@@UAE@XZ      004f68f0 f   vehicle:trailer.obj
 0001:000f5a30       ?GetDirName@vehTrailer@@UAEPBDXZ 004f6a30 f   vehicle:trailer.obj
 0001:000f5a40       ?Init@vehTrailer@@QAEXPBDABVVector3@@PAVvehCarSim@@H@Z 004f6a40 f   vehicle:trailer.obj
 0001:000f5f20       ?SetMatrix@vehTrailerInstance@@UAEXABVMatrix34@@@Z 004f6f20 f   vehicle:trailer.obj
 0001:000f5f40       ?GetMatrix@vehTrailerInstance@@UAEABVMatrix34@@AAV2@@Z 004f6f40 f   vehicle:trailer.obj
 0001:000f5f60       ?GetPosition@vehTrailerInstance@@UAEABVVector3@@XZ 004f6f60 f   vehicle:trailer.obj
 0001:000f5f70       ?GetEntity@vehTrailerInstance@@UAEPAVdgPhysEntity@@XZ 004f6f70 f   vehicle:trailer.obj
 0001:000f5f80       ?AttachEntity@vehTrailerInstance@@UAEPAVdgPhysEntity@@XZ 004f6f80 f   vehicle:trailer.obj
 0001:000f5f90       ?GetVelocity@vehTrailerInstance@@UAEABVVector3@@XZ 004f6f90 f   vehicle:trailer.obj
 0001:000f5fa0       ?SizeOf@vehTrailerInstance@@UAEIXZ 004f6fa0 f   vehicle:trailer.obj
 0001:000f5fb0       ?GetInst@vehTrailer@@UAEPAVlvlInstance@@XZ 004f6fb0 f   vehicle:trailer.obj
 0001:000f5fc0       ?RequiresTerrainCollision@vehTrailer@@UAE_NXZ 004f6fc0 f   vehicle:trailer.obj
 0001:000f60d0       ?BottomedOut@vehTrailer@@QAEHXZ 004f70d0 f   vehicle:trailer.obj
 0001:000f6110       ?Reset@vehTrailer@@UAEXXZ  004f7110 f   vehicle:trailer.obj
 0001:000f6250       ?Update@vehTrailer@@UAEXXZ 004f7250 f   vehicle:trailer.obj
 0001:000f6480       ?PostUpdate@vehTrailer@@UAEXXZ 004f7480 f   vehicle:trailer.obj
 0001:000f6490       ?SetCarHitchOffset@vehTrailer@@QAEXXZ 004f7490 f   vehicle:trailer.obj
 0001:000f64c0       ?SetTrailerHitchOffset@vehTrailer@@QAEXXZ 004f74c0 f   vehicle:trailer.obj
 0001:000f64f0       ?AddWidgets@vehTrailer@@QAEXPAVbkBank@@@Z 004f74f0 f   vehicle:trailer.obj
 0001:000f66b0       ?FileIO@vehTrailer@@UAEXAAVdatParser@@@Z 004f76b0 f   vehicle:trailer.obj
 0001:000f6790       ?Save@vehTrailer@@UAE_NXZ  004f7790 f   vehicle:trailer.obj
 0001:000f67c0       ?Load@vehTrailer@@UAE_NXZ  004f77c0 f   vehicle:trailer.obj
 0001:000f67f0       ?Init@vehTrailerInstance@@QAEXPBDABVVector3@@H@Z 004f77f0 f   vehicle:trailer.obj
 0001:000f6950       ?Draw@vehTrailerInstance@@UAEXH@Z 004f7950 f   vehicle:trailer.obj
 0001:000f6c60       ?DrawShadow@vehTrailerInstance@@UAEXXZ 004f7c60 f   vehicle:trailer.obj
 0001:000f6dc0       ?DrawShadowMap@vehTrailerInstance@@UAEXXZ 004f7dc0 f   vehicle:trailer.obj
 0001:000f6ef0       ?DrawPhysics@vehTrailerInstance@@UAEXABVVector3@@@Z 004f7ef0 f   vehicle:trailer.obj
 0001:000f6f20       ?GetTrailerHitch@vehTrailerInstance@@QAE_NPAVVector3@@@Z 004f7f20 f   vehicle:trailer.obj
 0001:000f6fb0       ??_EvehTrailer@@UAEPAXI@Z  004f7fb0 f i vehicle:trailer.obj
 0001:000f6fb0       ??_GvehTrailer@@UAEPAXI@Z  004f7fb0 f i vehicle:trailer.obj
 0001:000f6fe0       ??1vehTrailerInstance@@QAE@XZ 004f7fe0 f i vehicle:trailer.obj
 0001:000f6ff0       ??1vehDrivetrain@@UAE@XZ   004f7ff0 f i vehicle:trailer.obj
 0001:000f7000       ??1vehWheel@@UAE@XZ        004f8000 f i vehicle:trailer.obj
 0001:000f7010       ??_EvehTrailer@@WLE@AEPAXI@Z 004f8010 f i vehicle:trailer.obj
 0001:000f7020       ?Update@vehTrailer@@WLE@AEXXZ 004f8020 f i vehicle:trailer.obj
 0001:000f7030       ?GetClassName@vehTrailer@@UAEPADXZ 004f8030 f i vehicle:trailer.obj
 0001:000f7040       ?GetICS@vehTrailer@@UAEPAVphInertialCS@@XZ 004f8040 f i vehicle:trailer.obj
 0001:000f7050       ??0vehCarModel@@QAE@XZ     004f8050 f   vehicle:carmodel.obj
 0001:000f7130       ??1vehCarModel@@QAE@XZ     004f8130 f   vehicle:carmodel.obj
 0001:000f7190       ?Init@vehCarModel@@QAEXPAVvehCar@@PBDH@Z 004f8190 f   vehicle:carmodel.obj
 0001:000f7c40       ?InitBound@vehCarModel@@QAEXPBD_N@Z 004f8c40 f   vehicle:carmodel.obj
 0001:000f7e10       ?GetTrailerHitch@vehCarModel@@QAE_NPAVVector3@@@Z 004f8e10 f   vehicle:carmodel.obj
 0001:000f7e70       ?InitBreakable@vehCarModel@@IAE_NPAVvehBreakableMgr@@PBD1HH@Z 004f8e70 f   vehicle:carmodel.obj
 0001:000f7ec0       ?EjectOneshot@vehCarModel@@QAEXXZ 004f8ec0 f   vehicle:carmodel.obj
 0001:000f8120       ?GetSurfaceColor@vehCarModel@@IAE_NPAVmodStatic@@AAVVector3@@@Z 004f9120 f   vehicle:carmodel.obj
 0001:000f81a0       ?InitSirenLight@vehCarModel@@IAEXPBD0H@Z 004f91a0 f   vehicle:carmodel.obj
 0001:000f8260       ?Reset@vehCarModel@@UAEXXZ 004f9260 f   vehicle:carmodel.obj
 0001:000f8270       ?SizeOf@vehCarModel@@UAEIXZ 004f9270 f   vehicle:carmodel.obj
 0001:000f8280       ?ClearDamage@vehCarModel@@QAEXXZ 004f9280 f   vehicle:carmodel.obj
 0001:000f82d0       ?Draw@vehCarModel@@UAEXH@Z 004f92d0 f   vehicle:carmodel.obj
 0001:000f8be0       ?DrawPart@vehCarModel@@QAEXHHABVMatrix34@@PAVmodShader@@@Z 004f9be0 f   vehicle:carmodel.obj
 0001:000f8c20       ?DrawPart@vehCarModel@@QAEXPAVmodStatic@@ABVMatrix34@@PAVmodShader@@@Z 004f9c20 f   vehicle:carmodel.obj
 0001:000f8d00       ?DrawShadow@vehCarModel@@UAEXXZ 004f9d00 f   vehicle:carmodel.obj
 0001:000f8e70       ?DrawShadowMap@vehCarModel@@UAEXXZ 004f9e70 f   vehicle:carmodel.obj
 0001:000f8fa0       ?DrawGlow@vehCarModel@@UAEXXZ 004f9fa0 f   vehicle:carmodel.obj
 0001:000f9190       ?DrawHeadlights@vehCarModel@@QAEX_N@Z 004fa190 f   vehicle:carmodel.obj
 0001:000f9390       ?GetPosition@vehCarModel@@UAEABVVector3@@XZ 004fa390 f   vehicle:carmodel.obj
 0001:000f93c0       ?GetVelocity@vehCarModel@@UAEABVVector3@@XZ 004fa3c0 f   vehicle:carmodel.obj
 0001:000f93d0       ?GetMatrix@vehCarModel@@UAEABVMatrix34@@AAV2@@Z 004fa3d0 f   vehicle:carmodel.obj
 0001:000f93e0       ?SetMatrix@vehCarModel@@UAEXABVMatrix34@@@Z 004fa3e0 f   vehicle:carmodel.obj
 0001:000f9400       ?GetEntity@vehCarModel@@UAEPAVdgPhysEntity@@XZ 004fa400 f   vehicle:carmodel.obj
 0001:000f9410       ?AttachEntity@vehCarModel@@UAEPAVdgPhysEntity@@XZ 004fa410 f   vehicle:carmodel.obj
 0001:000f9440       ?BreakElectrics@vehCarModel@@QAEXABVVector3@@@Z 004fa440 f   vehicle:carmodel.obj
 0001:000f94b0       ?SetVisible@vehCarModel@@QAEX_N@Z 004fa4b0 f   vehicle:carmodel.obj
 0001:000f94d0       ?GetVisible@vehCarModel@@QAE_NXZ 004fa4d0 f   vehicle:carmodel.obj
 0001:000f94e0       ?AddWidgets@vehCarModel@@QAEXAAVbkBank@@@Z 004fa4e0 f   vehicle:carmodel.obj
 0001:000f9580       ?DrawReflected@vehCarModel@@UAEXM@Z 004fa580 f   vehicle:carmodel.obj
 0001:000f9590       ??_EltLight@@QAEPAXI@Z     004fa590 f i vehicle:carmodel.obj
 0001:000f95f0       ??0vehFeedback@@QAE@XZ     004fa5f0 f   vehicle:feedback.obj
 0001:000f9670       ??1vehFeedback@@UAE@XZ     004fa670 f   vehicle:feedback.obj
 0001:000f9680       ?GetPad@vehFeedback@@QAEPAVioPad@@XZ 004fa680 f   vehicle:feedback.obj
 0001:000f9690       ?SetPad@vehFeedback@@QAEXPAVioPad@@@Z 004fa690 f   vehicle:feedback.obj
 0001:000f96a0       ?GetPadID@vehFeedback@@QAEHXZ 004fa6a0 f   vehicle:feedback.obj
 0001:000f96b0       ?SetPadID@vehFeedback@@QAEXH@Z 004fa6b0 f   vehicle:feedback.obj
 0001:000f96d0       ?SetFeedback@vehFeedback@@UAEH_N@Z 004fa6d0 f   vehicle:feedback.obj
 0001:000f96e0       ?SetTimingUnit@vehFeedback@@UAEHM@Z 004fa6e0 f   vehicle:feedback.obj
 0001:000f9710       ?GetNumActuators@vehFeedback@@UAEHXZ 004fa710 f   vehicle:feedback.obj
 0001:000f9720       ?SetActuatorValue@vehFeedback@@UAEHHM@Z 004fa720 f   vehicle:feedback.obj
 0001:000f9760       ?PlayFeedbackSample@vehFeedback@@UAEHHHPAMPAH@Z 004fa760 f   vehicle:feedback.obj
 0001:000f97e0       ?PlayFeedbackSampleID@vehFeedback@@UAEHH@Z 004fa7e0 f   vehicle:feedback.obj
 0001:000f9840       ?ClearAllSamples@vehFeedback@@UAEH_N@Z 004fa840 f   vehicle:feedback.obj
 0001:000f98b0       ?GetNextUnit@vehFeedback@@UAEMH@Z 004fa8b0 f   vehicle:feedback.obj
 0001:000f99b0       ?Update@vehFeedback@@UAEHXZ 004fa9b0 f   vehicle:feedback.obj
 0001:000f9a80       ??_EvehFeedback@@UAEPAXI@Z 004faa80 f i vehicle:feedback.obj
 0001:000f9a80       ??_GvehFeedback@@UAEPAXI@Z 004faa80 f i vehicle:feedback.obj
 0001:000f9ab0       ??0vehGyro@@QAE@XZ         004faab0 f   vehicle:gyro.obj
 0001:000f9af0       ?GetDirName@vehGyro@@UAEPBDXZ 004faaf0 f   vehicle:gyro.obj
 0001:000f9b00       ?Init@vehGyro@@QAEXPAVvehCarSim@@PBD@Z 004fab00 f   vehicle:gyro.obj
 0001:000f9b30       ?Update@vehGyro@@UAEXXZ    004fab30 f   vehicle:gyro.obj
 0001:000f9f20       ?AddWidgets@vehGyro@@UAEXAAVbkBank@@@Z 004faf20 f   vehicle:gyro.obj
 0001:000fa060       ?FileIO@vehGyro@@UAEXAAVdatParser@@@Z 004fb060 f   vehicle:gyro.obj
 0001:000fa0e0       ??_EvehGyro@@UAEPAXI@Z     004fb0e0 f i vehicle:gyro.obj
 0001:000fa0e0       ??_GvehGyro@@UAEPAXI@Z     004fb0e0 f i vehicle:gyro.obj
 0001:000fa110       ??1vehGyro@@UAE@XZ         004fb110 f i vehicle:gyro.obj
 0001:000fa120       ?GetClassName@vehGyro@@UAEPADXZ 004fb120 f i vehicle:gyro.obj
 0001:000fa130       ??0vehStuck@@QAE@XZ        004fb130 f   vehicle:stuck.obj
 0001:000fa1f0       ?Reset@vehStuck@@UAEXXZ    004fb1f0 f   vehicle:stuck.obj
 0001:000fa210       ?GetDirName@vehStuck@@UAEPBDXZ 004fb210 f   vehicle:stuck.obj
 0001:000fa220       ?Init@vehStuck@@QAEXPAVvehCarSim@@PBD@Z 004fb220 f   vehicle:stuck.obj
 0001:000fa250       ?Impact@vehStuck@@QAEXXZ   004fb250 f   vehicle:stuck.obj
 0001:000fa290       ?Pegged@vehStuck@@QAEHXZ   004fb290 f   vehicle:stuck.obj
 0001:000fa2d0       ?Update@vehStuck@@UAEXXZ   004fb2d0 f   vehicle:stuck.obj
 0001:000fa750       ?FileIO@vehStuck@@UAEXAAVdatParser@@@Z 004fb750 f   vehicle:stuck.obj
 0001:000fa7f0       ?AddWidgets@vehStuck@@UAEXAAVbkBank@@@Z 004fb7f0 f   vehicle:stuck.obj
 0001:000fa9b0       ??_GvehStuck@@UAEPAXI@Z    004fb9b0 f i vehicle:stuck.obj
 0001:000fa9b0       ??_EvehStuck@@UAEPAXI@Z    004fb9b0 f i vehicle:stuck.obj
 0001:000fa9e0       ??1vehStuck@@UAE@XZ        004fb9e0 f i vehicle:stuck.obj
 0001:000fa9f0       ?GetClassName@vehStuck@@UAEPADXZ 004fb9f0 f i vehicle:stuck.obj
 0001:000faa00       ??0vehCarDamage@@QAE@XZ    004fba00 f   vehicle:cardamage.obj
 0001:000fac40       ??1vehCarDamage@@UAE@XZ    004fbc40 f   vehicle:cardamage.obj
 0001:000fad00       ?GetDirName@vehCarDamage@@UAEPBDXZ 004fbd00 f   vehicle:cardamage.obj
 0001:000fad10       ?Init@vehCarDamage@@QAEXPAVvehCar@@PBD@Z 004fbd10 f   vehicle:cardamage.obj
 0001:000fb020       ?SpewSmoke@vehCarDamage@@AAEXPAVasParticles@@PAMAAVVector3@@M@Z 004fc020 f   vehicle:cardamage.obj
 0001:000fb190       ?Update@vehCarDamage@@UAEXXZ 004fc190 f   vehicle:cardamage.obj
 0001:000fb5c0       ?Reset@vehCarDamage@@UAEXXZ 004fc5c0 f   vehicle:cardamage.obj
 0001:000fb5e0       ?ClearDamage@vehCarDamage@@QAEXXZ 004fc5e0 f   vehicle:cardamage.obj
 0001:000fb620       ?AddDamage@vehCarDamage@@QAEXM@Z 004fc620 f   vehicle:cardamage.obj
 0001:000fb650       ?InsertImpact@vehCarDamage@@AAEXPAUImpactCBData@@PAVphCollider@@@Z 004fc650 f   vehicle:cardamage.obj
 0001:000fb910       ?ApplyImpact@vehCarDamage@@AAEXPAUvehDamageImpactInfo@@@Z 004fc910 f   vehicle:cardamage.obj
 0001:000fbb40       ?Impact@vehCarDamage@@SAXPAV1@PAUImpactCBData@@@Z 004fcb40 f   vehicle:cardamage.obj
 0001:000fbbd0       ?SetGameCallback@vehCarDamage@@QAEXVdatCallback@@@Z 004fcbd0 f   vehicle:cardamage.obj
 0001:000fbbf0       ?FileIO@vehCarDamage@@UAEXAAVdatParser@@@Z 004fcbf0 f   vehicle:cardamage.obj
 0001:000fbce0       ?AddWidgets@vehCarDamage@@UAEXAAVbkBank@@@Z 004fcce0 f   vehicle:cardamage.obj
 0001:000fc190       ??_GvehCarDamage@@UAEPAXI@Z 004fd190 f i vehicle:cardamage.obj
 0001:000fc190       ??_EvehCarDamage@@UAEPAXI@Z 004fd190 f i vehicle:cardamage.obj
 0001:000fc1c0       ?GetClassName@vehCarDamage@@UAEPADXZ 004fd1c0 f i vehicle:cardamage.obj
 0001:000fc1d0       ?GetDamageModifier@vehCarDamage@@UAEMPAVphCollider@@@Z 004fd1d0 f i vehicle:cardamage.obj
 0001:000fc1e0       ??0vehCarSim@@QAE@XZ       004fd1e0 f   vehicle:carsim.obj
 0001:000fc4f0       ??1vehCarSim@@UAE@XZ       004fd4f0 f   vehicle:carsim.obj
 0001:000fc680       ?Reset@vehCarSim@@UAEXXZ   004fd680 f   vehicle:carsim.obj
 0001:000fc700       ?GetDirName@vehCarSim@@UAEPBDXZ 004fd700 f   vehicle:carsim.obj
 0001:000fc710       ?OnGround@vehCarSim@@QAEHXZ 004fd710 f   vehicle:carsim.obj
 0001:000fc750       ?BottomedOut@vehCarSim@@QAEHXZ 004fd750 f   vehicle:carsim.obj
 0001:000fc790       ?Init@vehCarSim@@QAEXPBDPAVphColliderJointed@@PAVlvlInstance@@@Z 004fd790 f   vehicle:carsim.obj
 0001:000fcb60       ?SetWorldMatrix@vehCarSim@@QAEXXZ 004fdb60 f   vehicle:carsim.obj
 0001:000fcc60       ?RestoreImpactParams@vehCarSim@@QAEXXZ 004fdc60 f   vehicle:carsim.obj
 0001:000fcc90       ?SetHackedImpactParams@vehCarSim@@QAEXXZ 004fdc90 f   vehicle:carsim.obj
 0001:000fccc0       ?ReconfigureDrivetrain@vehCarSim@@QAEXXZ 004fdcc0 f   vehicle:carsim.obj
 0001:000fcce0       ?ConfigureDrivetrain@vehCarSim@@QAEXXZ 004fdce0 f   vehicle:carsim.obj
 0001:000fd0f0       ?UnconfigureDrivetrain@vehCarSim@@QAEXXZ 004fe0f0 f   vehicle:carsim.obj
 0001:000fd440       ?SetResetPos@vehCarSim@@QAEXABVVector3@@@Z 004fe440 f   vehicle:carsim.obj
 0001:000fd4e0       ?ClearDamage@vehCarSim@@QAEXXZ 004fe4e0 f   vehicle:carsim.obj
 0001:000fd4f0       ?GetSSSFactor@vehCarSim@@QAEMM@Z 004fe4f0 f   vehicle:carsim.obj
 0001:000fd540       ?Update@vehCarSim@@UAEXXZ  004fe540 f   vehicle:carsim.obj
 0001:000fd760       ?PlaybackReplay@vehCarSim@@QAEXXZ 004fe760 f   vehicle:carsim.obj
 0001:000fd7e0       ?RecordReplay@vehCarSim@@QAEXXZ 004fe7e0 f   vehicle:carsim.obj
 0001:000fd9b0       ?SetFricElas@vehCarSim@@QAEXXZ 004fe9b0 f   vehicle:carsim.obj
 0001:000fd9e0       ?UpdateICSParams@vehCarSim@@QAEXXZ 004fe9e0 f   vehicle:carsim.obj
 0001:000fda10       ?AddWidgets@vehCarSim@@UAEXAAVbkBank@@@Z 004fea10 f   vehicle:carsim.obj
 0001:000fdfd0       ?FileIO@vehCarSim@@UAEXAAVdatParser@@@Z 004fefd0 f   vehicle:carsim.obj
 0001:000fe1e0       ??_GvehCarSim@@UAEPAXI@Z   004ff1e0 f i vehicle:carsim.obj
 0001:000fe1e0       ??_EvehCarSim@@UAEPAXI@Z   004ff1e0 f i vehicle:carsim.obj
 0001:000fe210       ??1vehTransmission@@UAE@XZ 004ff210 f i vehicle:carsim.obj
 0001:000fe220       ??1vehAxle@@UAE@XZ         004ff220 f i vehicle:carsim.obj
 0001:000fe230       ??1vehSuspension@@UAE@XZ   004ff230 f i vehicle:carsim.obj
 0001:000fe240       ??1vehAero@@UAE@XZ         004ff240 f i vehicle:carsim.obj
 0001:000fe250       ?GetClassName@vehCarSim@@UAEPADXZ 004ff250 f i vehicle:carsim.obj
 0001:000fe260       ?SetSirenCSVName@vehCarAudioContainer@@SAXPBD@Z 004ff260 f   vehicle:caraudiocontainer.obj
 0001:000fe290       ?RegisterTypes@vehCarAudioContainer@@SAXPBD@Z 004ff290 f   vehicle:caraudiocontainer.obj
 0001:000fe430       ?RegisterSemiNames@vehCarAudioContainer@@CAXPAVStream@@PAD@Z 004ff430 f   vehicle:caraudiocontainer.obj
 0001:000fe540       ?RegisterPoliceNames@vehCarAudioContainer@@CAXPAVStream@@PAD@Z 004ff540 f   vehicle:caraudiocontainer.obj
 0001:000fe650       ?InitStatics@vehCarAudioContainer@@SAXXZ 004ff650 f   vehicle:caraudiocontainer.obj
 0001:000fe680       ?DeallocateStatics@vehCarAudioContainer@@SAXXZ 004ff680 f   vehicle:caraudiocontainer.obj
 0001:000fe750       ??0vehCarAudioContainer@@QAE@XZ 004ff750 f   vehicle:caraudiocontainer.obj
 0001:000fe770       ??0vehCarAudioContainer@@QAE@PBDPAVvehCarSim@@PAVvehCarDamage@@H@Z 004ff770 f   vehicle:caraudiocontainer.obj
 0001:000fe850       ?Init@vehCarAudioContainer@@QAEXPBDPAVvehCarSim@@PAVvehCarDamage@@H@Z 004ff850 f   vehicle:caraudiocontainer.obj
 0001:000fe960       ?InitPolice@vehCarAudioContainer@@QAEXPBDPAVvehCarSim@@PAVvehCarDamage@@H@Z 004ff960 f   vehicle:caraudiocontainer.obj
 0001:000fea50       ?InitSemi@vehCarAudioContainer@@QAEXPBDPAVvehCarSim@@PAVvehCarDamage@@H@Z 004ffa50 f   vehicle:caraudiocontainer.obj
 0001:000feb60       ?InitNitro@vehCarAudioContainer@@QAEXPBDPAVvehCarSim@@PAVvehCarDamage@@H@Z 004ffb60 f   vehicle:caraudiocontainer.obj
 0001:000fec70       ??1vehCarAudioContainer@@QAE@XZ 004ffc70 f   vehicle:caraudiocontainer.obj
 0001:000fecb0       ?Set2DPan@vehCarAudioContainer@@QAEXM@Z 004ffcb0 f   vehicle:caraudiocontainer.obj
 0001:000fed40       ?Is3D@vehCarAudioContainer@@QAE_NXZ 004ffd40 f   vehicle:caraudiocontainer.obj
 0001:000fedb0       ?IsAirBorne@vehCarAudioContainer@@QAE_NXZ 004ffdb0 f   vehicle:caraudiocontainer.obj
 0001:000fee30       ?GetAudImpactPtr@vehCarAudioContainer@@QAEPAVAudImpact@@XZ 004ffe30 f   vehicle:caraudiocontainer.obj
 0001:000feec0       ?GetCarAudioPtr@vehCarAudioContainer@@QAEPAVvehCarAudio@@XZ 004ffec0 f   vehicle:caraudiocontainer.obj
 0001:000feef0       ?GetNitroCarAudioPtr@vehCarAudioContainer@@QAEPAVvehNitroCarAudio@@XZ 004ffef0 f   vehicle:caraudiocontainer.obj
 0001:000fef20       ?GetPoliceCarAudioPtr@vehCarAudioContainer@@QAEPAVvehPoliceCarAudio@@XZ 004fff20 f   vehicle:caraudiocontainer.obj
 0001:000fef30       ?GetSemiCarAudioPtr@vehCarAudioContainer@@QAEPAVvehSemiCarAudio@@XZ 004fff30 f   vehicle:caraudiocontainer.obj
 0001:000fef60       ?IsPlayer@vehCarAudioContainer@@QAE_NXZ 004fff60 f   vehicle:caraudiocontainer.obj
 0001:000fef70       ?PlayHorn@vehCarAudioContainer@@QAEXXZ 004fff70 f   vehicle:caraudiocontainer.obj
 0001:000fefb0       ?StopHorn@vehCarAudioContainer@@QAEXXZ 004fffb0 f   vehicle:caraudiocontainer.obj
 0001:000feff0       ?Set3D@vehCarAudioContainer@@QAEX_N@Z 004ffff0 f   vehicle:caraudiocontainer.obj
 0001:000ff040       ?PlayNitro@vehCarAudioContainer@@QAEXXZ 00500040 f   vehicle:caraudiocontainer.obj
 0001:000ff050       ?StopNitro@vehCarAudioContainer@@QAEXXZ 00500050 f   vehicle:caraudiocontainer.obj
 0001:000ff060       ?StartSiren@vehCarAudioContainer@@QAEXXZ 00500060 f   vehicle:caraudiocontainer.obj
 0001:000ff090       ?StopSiren@vehCarAudioContainer@@QAEXXZ 00500090 f   vehicle:caraudiocontainer.obj
 0001:000ff0c0       ?RemoveNetVehicleAudio@vehCarAudioContainer@@QAEXXZ 005000c0 f   vehicle:caraudiocontainer.obj
 0001:000ff130       ?SilenceEngine@vehCarAudioContainer@@QAEXH@Z 00500130 f   vehicle:caraudiocontainer.obj
 0001:000ff1e0       ?Update@vehCarAudioContainer@@QAEXXZ 005001e0 f   vehicle:caraudiocontainer.obj
 0001:000ff250       ?Reset@vehCarAudioContainer@@QAEXXZ 00500250 f   vehicle:caraudiocontainer.obj
 0001:000ff2c0       ?IsSemiOrBus@vehCarAudioContainer@@SA_NPBD@Z 005002c0 f   vehicle:caraudiocontainer.obj
 0001:000ff330       ?IsPolice@vehCarAudioContainer@@SA_NPBD@Z 00500330 f   vehicle:caraudiocontainer.obj
 0001:000ff4c0       ??0vehSiren@@QAE@XZ        005004c0 f   vehicle:siren.obj
 0001:000ff510       ??1vehSiren@@QAE@XZ        00500510 f   vehicle:siren.obj
 0001:000ff560       ?Init@vehSiren@@QAE_NXZ    00500560 f   vehicle:siren.obj
 0001:000ff620       ?AddLight@vehSiren@@QAE_NABVVector3@@0@Z 00500620 f   vehicle:siren.obj
 0001:000ff700       ?Reset@vehSiren@@QAEXXZ    00500700 f   vehicle:siren.obj
 0001:000ff710       ?Update@vehSiren@@QAEXXZ   00500710 f   vehicle:siren.obj
 0001:000ff760       ?Draw@vehSiren@@QAEXABVMatrix34@@@Z 00500760 f   vehicle:siren.obj
 0001:000ff910       ?AddWidgets@vehSiren@@QAEXPAVbkBank@@@Z 00500910 f   vehicle:siren.obj
 0001:000ff970       ??0vehSplash@@QAE@XZ       00500970 f   vehicle:splash.obj
 0001:000ff9f0       ?Reset@vehSplash@@UAEXXZ   005009f0 f   vehicle:splash.obj
 0001:000ffa00       ?Init@vehSplash@@QAEXPAVphInertialCS@@ABVVector3@@1@Z 00500a00 f   vehicle:splash.obj
 0001:000ffb50       ?Activate@vehSplash@@QAEXM@Z 00500b50 f   vehicle:splash.obj
 0001:000ffb70       ?Update@vehSplash@@UAEXXZ  00500b70 f   vehicle:splash.obj
 0001:000ffe80       ?AddWidgets@vehSplash@@UAEXAAVbkBank@@@Z 00500e80 f   vehicle:splash.obj
 0001:000fff30       ??_GvehSplash@@UAEPAXI@Z   00500f30 f i vehicle:splash.obj
 0001:000fff30       ??_EvehSplash@@UAEPAXI@Z   00500f30 f i vehicle:splash.obj
 0001:000fff60       ??1vehSplash@@UAE@XZ       00500f60 f i vehicle:splash.obj
 0001:000fff70       ?ApplyForce@phInertialCS@@QAEXABVVector3@@0@Z 00500f70 f i vehicle:splash.obj
 0001:00100070       ??0vehTransmission@@QAE@XZ 00501070 f   vehicle:transmission.obj
 0001:00100180       ?Reset@vehTransmission@@UAEXXZ 00501180 f   vehicle:transmission.obj
 0001:001001a0       ?ComputeConstants@vehTransmission@@QAEXXZ 005011a0 f   vehicle:transmission.obj
 0001:00100530       ?GearRatioFromMPH@vehTransmission@@AAEMM@Z 00501530 f   vehicle:transmission.obj
 0001:00100560       ?Init@vehTransmission@@QAEXPAVvehCarSim@@@Z 00501560 f   vehicle:transmission.obj
 0001:00100570       ?Upshift@vehTransmission@@QAEHXZ 00501570 f   vehicle:transmission.obj
 0001:001005b0       ?Downshift@vehTransmission@@QAEHXZ 005015b0 f   vehicle:transmission.obj
 0001:00100600       ?Update@vehTransmission@@UAEXXZ 00501600 f   vehicle:transmission.obj
 0001:001006b0       ?Automatic@vehTransmission@@QAEXH@Z 005016b0 f   vehicle:transmission.obj
 0001:001006c0       ?SetReverse@vehTransmission@@QAEXXZ 005016c0 f   vehicle:transmission.obj
 0001:001006d0       ?SetNeutral@vehTransmission@@QAEXXZ 005016d0 f   vehicle:transmission.obj
 0001:001006e0       ?SetForward@vehTransmission@@QAEXXZ 005016e0 f   vehicle:transmission.obj
 0001:00100700       ?SetCurrentGear@vehTransmission@@QAEHH@Z 00501700 f   vehicle:transmission.obj
 0001:00100740       ?AddWidgets@vehTransmission@@UAEXAAVbkBank@@@Z 00501740 f   vehicle:transmission.obj
 0001:00100a50       ?FileIO@vehTransmission@@UAEXAAVdatParser@@@Z 00501a50 f   vehicle:transmission.obj
 0001:00100b60       ??_EvehTransmission@@UAEPAXI@Z 00501b60 f i vehicle:transmission.obj
 0001:00100b60       ??_GvehTransmission@@UAEPAXI@Z 00501b60 f i vehicle:transmission.obj
 0001:00100b90       ?GetClassName@vehTransmission@@UAEPADXZ 00501b90 f i vehicle:transmission.obj
 0001:00100ba0       ??0aiAmbientVehicleAudio@@QAE@XZ 00501ba0 f   vehicle:aiambientvehicleaudio.obj
 0001:00100bf0       ??1aiAmbientVehicleAudio@@UAE@XZ 00501bf0 f   vehicle:aiambientvehicleaudio.obj
 0001:00100c00       ?Init@aiAmbientVehicleAudio@@QAEXPADPAVVector3@@@Z 00501c00 f   vehicle:aiambientvehicleaudio.obj
 0001:00100cc0       ?Reset@aiAmbientVehicleAudio@@QAEXXZ 00501cc0 f   vehicle:aiambientvehicleaudio.obj
 0001:00100ce0       ?AssignSounds@aiAmbientVehicleAudio@@UAEXXZ 00501ce0 f   vehicle:aiambientvehicleaudio.obj
 0001:00100ed0       ?UnAssignSounds@aiAmbientVehicleAudio@@UAEXH@Z 00501ed0 f   vehicle:aiambientvehicleaudio.obj
 0001:00100fc0       ?PlayAvoidanceHorn@aiAmbientVehicleAudio@@QAE_NXZ 00501fc0 f   vehicle:aiambientvehicleaudio.obj
 0001:00100fe0       ?PlayImpactHorn@aiAmbientVehicleAudio@@QAEXM@Z 00501fe0 f   vehicle:aiambientvehicleaudio.obj
 0001:00101000       ?UpdateHorn@aiAmbientVehicleAudio@@QAEXXZ 00502000 f   vehicle:aiambientvehicleaudio.obj
 0001:00101020       ?GetAudImpactPtr@aiAmbientVehicleAudio@@QAEPAVAudImpact@@XZ 00502020 f   vehicle:aiambientvehicleaudio.obj
 0001:00101030       ?UpdateAudio@aiAmbientVehicleAudio@@UAEXXZ 00502030 f   vehicle:aiambientvehicleaudio.obj
 0001:001010c0       ?UpdateAudio@aiAmbientVehicleAudio@@QAEHM@Z 005020c0 f   vehicle:aiambientvehicleaudio.obj
 0001:00101250       ?InitStatics@aiAmbientVehicleAudio@@SAXXZ 00502250 f   vehicle:aiambientvehicleaudio.obj
 0001:00101290       ?DeallocateStatics@aiAmbientVehicleAudio@@SAXXZ 00502290 f   vehicle:aiambientvehicleaudio.obj
 0001:00101490       ?UpdateStatics@aiAmbientVehicleAudio@@SAXM@Z 00502490 f   vehicle:aiambientvehicleaudio.obj
 0001:001014c0       ?UpdateVoices@aiAmbientVehicleAudio@@CAXHM@Z 005024c0 f   vehicle:aiambientvehicleaudio.obj
 0001:00101530       ?SetCSVCatString@aiAmbientVehicleAudio@@SAXPAD@Z 00502530 f   vehicle:aiambientvehicleaudio.obj
 0001:00101560       ?LoadNumVFileChoices@aiAmbientVehicleAudio@@SAXPAD@Z 00502560 f   vehicle:aiambientvehicleaudio.obj
 0001:001015a0       ?EchoOn@aiAmbientVehicleAudio@@QAEXXZ 005025a0 f   vehicle:aiambientvehicleaudio.obj
 0001:00101650       ?EchoOff@aiAmbientVehicleAudio@@QAEXXZ 00502650 f   vehicle:aiambientvehicleaudio.obj
 0001:001016e0       ?UpdateEcho@aiAmbientVehicleAudio@@AAEXXZ 005026e0 f   vehicle:aiambientvehicleaudio.obj
 0001:00101740       ?PlayImpactReaction@aiAmbientVehicleAudio@@QAEXM@Z 00502740 f   vehicle:aiambientvehicleaudio.obj
 0001:00101760       ?PlayAvoidanceReaction@aiAmbientVehicleAudio@@QAEXM@Z 00502760 f   vehicle:aiambientvehicleaudio.obj
 0001:00101780       ?LoadEngine@aiAmbientVehicleAudio@@QAE_NPAD0@Z 00502780 f   vehicle:aiambientvehicleaudio.obj
 0001:00101ac0       ?LoadHorn@aiAmbientVehicleAudio@@QAE_NPAD0@Z 00502ac0 f   vehicle:aiambientvehicleaudio.obj
 0001:00101e00       ?LoadVoices@aiAmbientVehicleAudio@@QAE_NPAD0_N@Z 00502e00 f   vehicle:aiambientvehicleaudio.obj
 0001:00102190       ?LoadImpacts@aiAmbientVehicleAudio@@QAE_NPAD0@Z 00503190 f   vehicle:aiambientvehicleaudio.obj
 0001:001025f0       ??_GaiAmbientVehicleAudio@@UAEPAXI@Z 005035f0 f i vehicle:aiambientvehicleaudio.obj
 0001:001025f0       ??_EaiAmbientVehicleAudio@@UAEPAXI@Z 005035f0 f i vehicle:aiambientvehicleaudio.obj
 0001:00102620       ?DeallocateAudioData@@YAXPAPAPAVaiEngineAudio@@PAH@Z 00503620 f i vehicle:aiambientvehicleaudio.obj
 0001:00102690       ?DeallocateAudioData@@YAXPAPAPAVAudCreature@@PAH@Z 00503690 f i vehicle:aiambientvehicleaudio.obj
 0001:00102700       ?DeallocateAudioData@@YAXPAPAPAVAudImpact@@PAH@Z 00503700 f i vehicle:aiambientvehicleaudio.obj
 0001:00102760       ??_GvehHornAudio@@QAEPAXI@Z 00503760 f i vehicle:aiambientvehicleaudio.obj
 0001:00102790       ??0vehWheel@@QAE@XZ        00503790 f   vehicle:wheel.obj
 0001:001029c0       ?Reset@vehWheel@@UAEXXZ    005039c0 f   vehicle:wheel.obj
 0001:00102ad0       ?ComputeConstants@vehWheel@@QAEXXZ 00503ad0 f   vehicle:wheel.obj
 0001:00102b70       ?AddNormalLoad@vehWheel@@QAEXM@Z 00503b70 f   vehicle:wheel.obj
 0001:00102ba0       ?SetNormalLoad@vehWheel@@QAEXM@Z 00503ba0 f   vehicle:wheel.obj
 0001:00102cb0       ?ComputeFriction@vehWheel@@AAEMMPAM@Z 00503cb0 f   vehicle:wheel.obj
 0001:00102d70       ?Init@vehWheel@@QAEXPAVvehCarSim@@PBDPADVVector3@@PAVphInertialCS@@HH@Z 00503d70 f   vehicle:wheel.obj
 0001:00102e20       ?CalcSuspensionForce@vehWheel@@AAEXM_NM@Z 00503e20 f   vehicle:wheel.obj
 0001:00103150       ?ComputeDwtdw@vehWheel@@QAEXMPAM00@Z 00504150 f   vehicle:wheel.obj
 0001:00103c20       ?GetBumpDisplacement@vehWheel@@AAEMM@Z 00504c20 f   vehicle:wheel.obj
 0001:00103cf0       ?Update@vehWheel@@UAEXXZ   00504cf0 f   vehicle:wheel.obj
 0001:001047c0       ?GetSurfaceSound@vehWheel@@QAEHXZ 005057c0 f   vehicle:wheel.obj
 0001:001047e0       ?SetInputs@vehWheel@@QAEXMMM@Z 005057e0 f   vehicle:wheel.obj
 0001:00104890       ?GetVisualDispVert@vehWheel@@QAEMXZ 00505890 f   vehicle:wheel.obj
 0001:001048f0       ?GetVisualDispLat@vehWheel@@QAEMXZ 005058f0 f   vehicle:wheel.obj
 0001:00104930       ?GetVisualDispLong@vehWheel@@QAEMXZ 00505930 f   vehicle:wheel.obj
 0001:00104970       ?CopyVars@vehWheel@@QAEXPAV1@@Z 00505970 f   vehicle:wheel.obj
 0001:00104a20       ?AddWidgets@vehWheel@@UAEXAAVbkBank@@@Z 00505a20 f   vehicle:wheel.obj
 0001:00104f40       ?FileIO@vehWheel@@UAEXAAVdatParser@@@Z 00505f40 f   vehicle:wheel.obj
 0001:00105110       ??_EvehWheel@@UAEPAXI@Z    00506110 f i vehicle:wheel.obj
 0001:00105110       ??_GvehWheel@@UAEPAXI@Z    00506110 f i vehicle:wheel.obj
 0001:00105140       ?GetClassName@vehWheel@@UAEPADXZ 00506140 f i vehicle:wheel.obj
 0001:00105150       ??0vehPoliceCarAudio@@QAE@PAVvehCarSim@@PAVvehCarDamage@@PBD2_N@Z 00506150 f   vehicle:policecaraudio.obj
 0001:00105240       ??1vehPoliceCarAudio@@UAE@XZ 00506240 f   vehicle:policecaraudio.obj
 0001:00105310       ?DeallocateSirenPlayInfo@vehPoliceCarAudio@@AAEXPAUtagSirenData@@@Z 00506310 f   vehicle:policecaraudio.obj
 0001:00105390       ?EchoOn@vehPoliceCarAudio@@QAEXXZ 00506390 f   vehicle:policecaraudio.obj
 0001:00105440       ?EchoOff@vehPoliceCarAudio@@QAEXXZ 00506440 f   vehicle:policecaraudio.obj
 0001:001054c0       ?UpdateEcho@vehPoliceCarAudio@@QAEXXZ 005064c0 f   vehicle:policecaraudio.obj
 0001:00105530       ?Init@vehPoliceCarAudio@@QAEXPAVvehCarSim@@PAVvehCarDamage@@PBD2_N@Z 00506530 f   vehicle:policecaraudio.obj
 0001:00105570       ?Load@vehPoliceCarAudio@@AAEXPBD@Z 00506570 f   vehicle:policecaraudio.obj
 0001:00105640       ?ReadSirenData@vehPoliceCarAudio@@AAEXPAVStream@@@Z 00506640 f   vehicle:policecaraudio.obj
 0001:001058a0       ?ReadSirenData@vehPoliceCarAudio@@AAEXPAUtagSirenData@@PAD@Z 005068a0 f   vehicle:policecaraudio.obj
 0001:00105930       ?ReadSirenPlayInfo@vehPoliceCarAudio@@AAEXPAUtagSirenData@@PAD@Z 00506930 f   vehicle:policecaraudio.obj
 0001:00105a50       ?ExplosionIsPlaying@vehPoliceCarAudio@@QAEHXZ 00506a50 f   vehicle:policecaraudio.obj
 0001:00105a70       ?StartSiren@vehPoliceCarAudio@@QAEXH@Z 00506a70 f   vehicle:policecaraudio.obj
 0001:00105b70       ?StopSiren@vehPoliceCarAudio@@QAEXXZ 00506b70 f   vehicle:policecaraudio.obj
 0001:00105be0       ?PlayExplosion@vehPoliceCarAudio@@QAEXXZ 00506be0 f   vehicle:policecaraudio.obj
 0001:00105ca0       ?DamageSiren@vehPoliceCarAudio@@QAEXXZ 00506ca0 f   vehicle:policecaraudio.obj
 0001:00105d90       ?UpdateSiren@vehPoliceCarAudio@@QAEHMMM@Z 00506d90 f   vehicle:policecaraudio.obj
 0001:00105f00       ?UpdateSiren@vehPoliceCarAudio@@QAEXXZ 00506f00 f   vehicle:policecaraudio.obj
 0001:00105f90       ?FluctuateSiren@vehPoliceCarAudio@@AAEXXZ 00506f90 f   vehicle:policecaraudio.obj
 0001:00106080       ?UpdateAudio3D@vehPoliceCarAudio@@QAEHM@Z 00507080 f   vehicle:policecaraudio.obj
 0001:001060d0       ?UpdateExplosion@vehPoliceCarAudio@@QAEXMM@Z 005070d0 f   vehicle:policecaraudio.obj
 0001:00106160       ?PlayVoice@vehPoliceCarAudio@@QAEXXZ 00507160 f   vehicle:policecaraudio.obj
 0001:00106170       ?AssignSounds@vehPoliceCarAudio@@UAEXXZ 00507170 f   vehicle:policecaraudio.obj
 0001:001062b0       ?UnAssignSounds@vehPoliceCarAudio@@UAEXH@Z 005072b0 f   vehicle:policecaraudio.obj
 0001:00106340       ?Reset@vehPoliceCarAudio@@QAEXXZ 00507340 f   vehicle:policecaraudio.obj
 0001:00106350       ?UpdateAudio@vehPoliceCarAudio@@UAEXXZ 00507350 f   vehicle:policecaraudio.obj
 0001:001063c0       ?UpdateAudio3D@vehPoliceCarAudio@@QAEXXZ 005073c0 f   vehicle:policecaraudio.obj
 0001:001064a0       ?UpdateAudioNon3D@vehPoliceCarAudio@@QAEXXZ 005074a0 f   vehicle:policecaraudio.obj
 0001:00106510       ?RandomizeNumber@vehPoliceCarAudio@@QAEFXZ 00507510 f   vehicle:policecaraudio.obj
 0001:00106550       ?GetNumCopsPursuingPlayer@vehPoliceCarAudio@@SAHXZ 00507550 f   vehicle:policecaraudio.obj
 0001:00106560       ?SetNon3DParams@vehPoliceCarAudio@@UAEXXZ 00507560 f   vehicle:policecaraudio.obj
 0001:00106640       ?Set2DPan@vehPoliceCarAudio@@QAEXM@Z 00507640 f   vehicle:policecaraudio.obj
 0001:001066e0       ?Set3DParams@vehPoliceCarAudio@@UAEXXZ 005076e0 f   vehicle:policecaraudio.obj
 0001:001066f0       ?RemoveFromManager@vehPoliceCarAudio@@QAEXXZ 005076f0 f   vehicle:policecaraudio.obj
 0001:00106700       ?Update@vehPoliceCarAudio@@UAEXXZ 00507700 f   vehicle:policecaraudio.obj
 0001:00106830       ??_GvehPoliceCarAudio@@UAEPAXI@Z 00507830 f i vehicle:policecaraudio.obj
 0001:00106830       ??_EvehPoliceCarAudio@@UAEPAXI@Z 00507830 f i vehicle:policecaraudio.obj
 0001:00106890       ??0vehDrivetrain@@QAE@XZ   00507890 f   vehicle:drivetrain.obj
 0001:00106950       ?Init@vehDrivetrain@@QAEXPAVvehCarSim@@@Z 00507950 f   vehicle:drivetrain.obj
 0001:00106960       ?CopyVars@vehDrivetrain@@QAEXPAV1@@Z 00507960 f   vehicle:drivetrain.obj
 0001:00106980       ?Reset@vehDrivetrain@@UAEXXZ 00507980 f   vehicle:drivetrain.obj
 0001:001069a0       ?Attach@vehDrivetrain@@QAEXXZ 005079a0 f   vehicle:drivetrain.obj
 0001:001069c0       ?Detach@vehDrivetrain@@QAEXXZ 005079c0 f   vehicle:drivetrain.obj
 0001:001069d0       ?AddWheel@vehDrivetrain@@QAEHPAVvehWheel@@@Z 005079d0 f   vehicle:drivetrain.obj
 0001:00106a10       ?Update@vehDrivetrain@@UAEXXZ 00507a10 f   vehicle:drivetrain.obj
 0001:001070f0       ?AddWidgets@vehDrivetrain@@UAEXAAVbkBank@@@Z 005080f0 f   vehicle:drivetrain.obj
 0001:00107270       ?FileIO@vehDrivetrain@@UAEXAAVdatParser@@@Z 00508270 f   vehicle:drivetrain.obj
 0001:001072d0       ??_EvehDrivetrain@@UAEPAXI@Z 005082d0 f i vehicle:drivetrain.obj
 0001:001072d0       ??_GvehDrivetrain@@UAEPAXI@Z 005082d0 f i vehicle:drivetrain.obj
 0001:00107300       ?GetClassName@vehDrivetrain@@UAEPADXZ 00508300 f i vehicle:drivetrain.obj
 0001:00107310       ??0vehBreakable@@QAE@PAPAVmodStatic@@AAVMatrix34@@HHH@Z 00508310 f   vehicle:breakable.obj
 0001:00107390       ??0vehBreakableMgr@@QAE@XZ 00508390 f   vehicle:breakable.obj
 0001:001073c0       ??1vehBreakableMgr@@QAE@XZ 005083c0 f   vehicle:breakable.obj
 0001:001073f0       ?Init@vehBreakableMgr@@QAE_NPAVMatrix34@@@Z 005083f0 f   vehicle:breakable.obj
 0001:00107410       ?Create@vehBreakableMgr@@QAEPAVvehBreakable@@PBD0PAPAVmodStatic@@HH@Z 00508410 f   vehicle:breakable.obj
 0001:001074f0       ?Add@vehBreakableMgr@@QAEXPBD0PAPAVmodStatic@@HH@Z 005084f0 f   vehicle:breakable.obj
 0001:00107540       ?Get@vehBreakableMgr@@QAEPAVvehBreakable@@H@Z 00508540 f   vehicle:breakable.obj
 0001:00107560       ?Reset@vehBreakableMgr@@QAEXXZ 00508560 f   vehicle:breakable.obj
 0001:001075c0       ?Update@vehBreakableMgr@@QAEXXZ 005085c0 f   vehicle:breakable.obj
 0001:001075d0       ?Draw@vehBreakableMgr@@QAEXABVMatrix34@@PAVmodShader@@H@Z 005085d0 f   vehicle:breakable.obj
 0001:00107700       ?DrawCityLit@vehBreakableMgr@@QAEXABVMatrix34@@PAVmodShader@@H@Z 00508700 f   vehicle:breakable.obj
 0001:00107720       ?Impact@vehBreakableMgr@@QAEXMABVVector3@@H@Z 00508720 f   vehicle:breakable.obj
 0001:001077f0       ?Eject@vehBreakableMgr@@QAEXPAVvehBreakable@@H@Z 005087f0 f   vehicle:breakable.obj
 0001:00107ae0       ?EjectAll@vehBreakableMgr@@QAEXH@Z 00508ae0 f   vehicle:breakable.obj
 0001:00107b10       ?AddWidgets@vehBreakableMgr@@QAEXPAVbkBank@@@Z 00508b10 f   vehicle:breakable.obj
 0001:00107c50       ?Add@vehBreakable@@QAEXPAV1@@Z 00508c50 f i vehicle:breakable.obj
 0001:00107c80       ??0vehBound@@QAE@XZ        00508c80 f   vehicle:bound.obj
 0001:00107cf0       ??1vehBound@@QAE@XZ        00508cf0 f   vehicle:bound.obj
 0001:00107d50       ?Init@vehBound@@QAEXXZ     00508d50 f   vehicle:bound.obj
 0001:00107d90       ?SetFriction@vehBound@@UAEXM@Z 00508d90 f   vehicle:bound.obj
 0001:00107da0       ?SetElasticity@vehBound@@UAEXM@Z 00508da0 f   vehicle:bound.obj
 0001:00107db0       ??0vehEngine@@QAE@XZ       00508db0 f   vehicle:engine.obj
 0001:00107e70       ??1vehEngine@@UAE@XZ       00508e70 f   vehicle:engine.obj
 0001:00107e80       ?Reset@vehEngine@@UAEXXZ   00508e80 f   vehicle:engine.obj
 0001:00107ec0       ?Init@vehEngine@@QAEXPAVvehCarSim@@PBD1@Z 00508ec0 f   vehicle:engine.obj
 0001:00107ff0       ?ComputeConstants@vehEngine@@QAEXXZ 00508ff0 f   vehicle:engine.obj
 0001:00108050       ?CalcTorqueAtFullThrottle@vehEngine@@QAEMM@Z 00509050 f   vehicle:engine.obj
 0001:001080d0       ?CalcTorqueAtZeroThrottle@vehEngine@@QAEMXZ 005090d0 f   vehicle:engine.obj
 0001:00108100       ?CalcTorque@vehEngine@@QAEMM@Z 00509100 f   vehicle:engine.obj
 0001:00108140       ?CalcHPAtFullThrottle@vehEngine@@QAEMM@Z 00509140 f   vehicle:engine.obj
 0001:00108160       ?Update@vehEngine@@UAEXXZ  00509160 f   vehicle:engine.obj
 0001:001084c0       ?AddWidgets@vehEngine@@UAEXAAVbkBank@@@Z 005094c0 f   vehicle:engine.obj
 0001:00108650       ?FileIO@vehEngine@@UAEXAAVdatParser@@@Z 00509650 f   vehicle:engine.obj
 0001:001086f0       ??_EvehEngine@@UAEPAXI@Z   005096f0 f i vehicle:engine.obj
 0001:001086f0       ??_GvehEngine@@UAEPAXI@Z   005096f0 f i vehicle:engine.obj
 0001:00108720       ?GetClassName@vehEngine@@UAEPADXZ 00509720 f i vehicle:engine.obj
 0001:00108730       ??0vehAero@@QAE@XZ         00509730 f   vehicle:aero.obj
 0001:00108790       ?Update@vehAero@@UAEXXZ    00509790 f   vehicle:aero.obj
 0001:00108c10       ?FileIO@vehAero@@UAEXAAVdatParser@@@Z 00509c10 f   vehicle:aero.obj
 0001:00108c90       ?AddWidgets@vehAero@@UAEXAAVbkBank@@@Z 00509c90 f   vehicle:aero.obj
 0001:00108de0       ??_GvehAero@@UAEPAXI@Z     00509de0 f i vehicle:aero.obj
 0001:00108de0       ??_EvehAero@@UAEPAXI@Z     00509de0 f i vehicle:aero.obj
 0001:00108e10       ?GetClassName@vehAero@@UAEPADXZ 00509e10 f i vehicle:aero.obj
 0001:00108e20       ??0vehSuspension@@QAE@XZ   00509e20 f   vehicle:suspension.obj
 0001:00108ee0       ?Init@vehSuspension@@QAEXPAVvehCarSim@@PBD1PAVvehWheel@@@Z 00509ee0 f   vehicle:suspension.obj
 0001:00108f80       ?Update@vehSuspension@@UAEXXZ 00509f80 f   vehicle:suspension.obj
 0001:00108ff0       ?AddWidgets@vehSuspension@@UAEXAAVbkBank@@@Z 00509ff0 f   vehicle:suspension.obj
 0001:00109040       ?Copy@vehSuspension@@QAEXABV1@@Z 0050a040 f   vehicle:suspension.obj
 0001:00109060       ?FileIO@vehSuspension@@UAEXAAVdatParser@@@Z 0050a060 f   vehicle:suspension.obj
 0001:00109090       ??_GvehSuspension@@UAEPAXI@Z 0050a090 f i vehicle:suspension.obj
 0001:00109090       ??_EvehSuspension@@UAEPAXI@Z 0050a090 f i vehicle:suspension.obj
 0001:001090c0       ?GetClassName@vehSuspension@@UAEPADXZ 0050a0c0 f i vehicle:suspension.obj
 0001:001090d0       ??0vehAxle@@QAE@XZ         0050a0d0 f   vehicle:axle.obj
 0001:001091b0       ?ComputeConstants@vehAxle@@QAEXXZ 0050a1b0 f   vehicle:axle.obj
 0001:001091e0       ?Init@vehAxle@@QAEXPAVvehCarSim@@PBD1PAVvehWheel@@2@Z 0050a1e0 f   vehicle:axle.obj
 0001:001092b0       ?Update@vehAxle@@UAEXXZ    0050a2b0 f   vehicle:axle.obj
 0001:00109480       ?AddWidgets@vehAxle@@UAEXAAVbkBank@@@Z 0050a480 f   vehicle:axle.obj
 0001:00109520       ?FileIO@vehAxle@@UAEXAAVdatParser@@@Z 0050a520 f   vehicle:axle.obj
 0001:00109570       ??_EvehAxle@@UAEPAXI@Z     0050a570 f i vehicle:axle.obj
 0001:00109570       ??_GvehAxle@@UAEPAXI@Z     0050a570 f i vehicle:axle.obj
 0001:001095a0       ?GetClassName@vehAxle@@UAEPADXZ 0050a5a0 f i vehicle:axle.obj
 0001:001095b0       ??0vehCarAudio@@QAE@PAVvehCarSim@@PAVvehCarDamage@@PBD_N3@Z 0050a5b0 f   vehicle:caraudio.obj
 0001:00109630       ??1vehCarAudio@@UAE@XZ     0050a630 f   vehicle:caraudio.obj
 0001:001096a0       ?Init@vehCarAudio@@QAEXPAVvehCarSim@@PAVvehCarDamage@@PBD_N33@Z 0050a6a0 f   vehicle:caraudio.obj
 0001:00109930       ?AddWidgets@vehCarAudio@@QAEXAAVbkBank@@@Z 0050a930 f   vehicle:caraudio.obj
 0001:00109a50       ?Toggle3D@vehCarAudio@@QAEXXZ 0050aa50 f   vehicle:caraudio.obj
 0001:00109aa0       ?GetCurrentGear@vehCarAudio@@QAEHXZ 0050aaa0 f   vehicle:caraudio.obj
 0001:00109ab0       ?UpdateGear@vehCarAudio@@QAEXXZ 0050aab0 f   vehicle:caraudio.obj
 0001:00109b00       ?UpdateAudio@vehCarAudio@@UAEXXZ 0050ab00 f   vehicle:caraudio.obj
 0001:00109b80       ?UpdateAudio3D@vehCarAudio@@QAEHXZ 0050ab80 f   vehicle:caraudio.obj
 0001:00109c20       ?UpdateAudioNon3D@vehCarAudio@@QAEXXZ 0050ac20 f   vehicle:caraudio.obj
 0001:00109c70       ?UpdateAudio3D@vehCarAudio@@QAEHM@Z 0050ac70 f   vehicle:caraudio.obj
 0001:00109dc0       ?Reset@vehCarAudio@@QAEXXZ 0050adc0 f   vehicle:caraudio.obj
 0001:00109dd0       ?AssignSounds@vehCarAudio@@UAEXXZ 0050add0 f   vehicle:caraudio.obj
 0001:00109fd0       ?UnAssignSounds@vehCarAudio@@UAEXH@Z 0050afd0 f   vehicle:caraudio.obj
 0001:0010a090       ?SetMinAmpSpeed@vehCarAudio@@QAEXM@Z 0050b090 f   vehicle:caraudio.obj
 0001:0010a0b0       ?Load@vehCarAudio@@QAEHPBD_N@Z 0050b0b0 f   vehicle:caraudio.obj
 0001:0010a260       ?RemoveFromManager@vehCarAudio@@QAEXXZ 0050b260 f   vehicle:caraudio.obj
 0001:0010a270       ?PlayHorn@vehCarAudio@@QAEXXZ 0050b270 f   vehicle:caraudio.obj
 0001:0010a2b0       ?StopHorn@vehCarAudio@@QAEXXZ 0050b2b0 f   vehicle:caraudio.obj
 0001:0010a2e0       ?SetNon3DParams@vehCarAudio@@UAEXXZ 0050b2e0 f   vehicle:caraudio.obj
 0001:0010a3a0       ?Set3DParams@vehCarAudio@@UAEXXZ 0050b3a0 f   vehicle:caraudio.obj
 0001:0010a3c0       ?Update@vehCarAudio@@UAEXXZ 0050b3c0 f   vehicle:caraudio.obj
 0001:0010a3e0       ?IsAirBorne@vehCarAudio@@QAE_NXZ 0050b3e0 f   vehicle:caraudio.obj
 0001:0010a3f0       ?EchoOn@vehCarAudio@@QAEXXZ 0050b3f0 f   vehicle:caraudio.obj
 0001:0010a4c0       ?EchoOff@vehCarAudio@@QAEXXZ 0050b4c0 f   vehicle:caraudio.obj
 0001:0010a530       ?Set2DPan@vehCarAudio@@QAEXM@Z 0050b530 f   vehicle:caraudio.obj
 0001:0010a5a0       ?UpdateEcho@vehCarAudio@@QAEXXZ 0050b5a0 f   vehicle:caraudio.obj
 0001:0010a5d0       ?IsBrakeing@vehCarAudio@@QAE_NXZ 0050b5d0 f   vehicle:caraudio.obj
 0001:0010a5e0       ?GetSpeed@vehCarAudio@@QAEMXZ 0050b5e0 f   vehicle:caraudio.obj
 0001:0010a5f0       ?LoadImpacts@vehCarAudio@@AAE_NPAD0@Z 0050b5f0 f   vehicle:caraudio.obj
 0001:0010a920       ?GetAudImpactPtr@vehCarAudio@@QAEPAVAudImpact@@XZ 0050b920 f   vehicle:caraudio.obj
 0001:0010a930       ?InitStatics@vehCarAudio@@SAXXZ 0050b930 f   vehicle:caraudio.obj
 0001:0010a940       ?DeallocateStatics@vehCarAudio@@SAXXZ 0050b940 f   vehicle:caraudio.obj
 0001:0010ab20       ??_EvehCarAudio@@UAEPAXI@Z 0050bb20 f i vehicle:caraudio.obj
 0001:0010ab20       ??_GvehCarAudio@@UAEPAXI@Z 0050bb20 f i vehicle:caraudio.obj
 0001:0010ab50       ??0vehSemiCarAudio@@QAE@PAVvehCarSim@@PAVvehCarDamage@@PAD_N3@Z 0050bb50 f   vehicle:semicaraudio.obj
 0001:0010abe0       ??1vehSemiCarAudio@@UAE@XZ 0050bbe0 f   vehicle:semicaraudio.obj
 0001:0010abf0       ?Init@vehSemiCarAudio@@QAEXPAVvehCarSim@@PAVvehCarDamage@@PAD_N33@Z 0050bbf0 f   vehicle:semicaraudio.obj
 0001:0010ac60       ?UpdateAudio@vehSemiCarAudio@@UAEXXZ 0050bc60 f   vehicle:semicaraudio.obj
 0001:0010acd0       ?UpdateAudio3D@vehSemiCarAudio@@QAEXXZ 0050bcd0 f   vehicle:semicaraudio.obj
 0001:0010ad90       ?UpdateAudioNon3D@vehSemiCarAudio@@QAEXXZ 0050bd90 f   vehicle:semicaraudio.obj
 0001:0010adb0       ?UpdateReverse@vehSemiCarAudio@@QAEXXZ 0050bdb0 f   vehicle:semicaraudio.obj
 0001:0010ae10       ?UpdateAirBlow@vehSemiCarAudio@@QAEXXZ 0050be10 f   vehicle:semicaraudio.obj
 0001:0010ae80       ?Reset@vehSemiCarAudio@@QAEXXZ 0050be80 f   vehicle:semicaraudio.obj
 0001:0010ae90       ?AssignSounds@vehSemiCarAudio@@UAEXXZ 0050be90 f   vehicle:semicaraudio.obj
 0001:0010afa0       ?UnAssignSounds@vehSemiCarAudio@@UAEXH@Z 0050bfa0 f   vehicle:semicaraudio.obj
 0001:0010b040       ?Load@vehSemiCarAudio@@QAEXPAD@Z 0050c040 f   vehicle:semicaraudio.obj
 0001:0010b150       ?RemoveFromManager@vehSemiCarAudio@@QAEXXZ 0050c150 f   vehicle:semicaraudio.obj
 0001:0010b160       ?SetNon3DParams@vehSemiCarAudio@@UAEXXZ 0050c160 f   vehicle:semicaraudio.obj
 0001:0010b200       ?Set3DParams@vehSemiCarAudio@@UAEXXZ 0050c200 f   vehicle:semicaraudio.obj
 0001:0010b210       ?Update@vehSemiCarAudio@@UAEXXZ 0050c210 f   vehicle:semicaraudio.obj
 0001:0010b220       ?EchoOn@vehSemiCarAudio@@QAEXXZ 0050c220 f   vehicle:semicaraudio.obj
 0001:0010b2d0       ?EchoOff@vehSemiCarAudio@@QAEXXZ 0050c2d0 f   vehicle:semicaraudio.obj
 0001:0010b320       ?Set2DPan@vehSemiCarAudio@@QAEXM@Z 0050c320 f   vehicle:semicaraudio.obj
 0001:0010b370       ?UpdateEcho@vehSemiCarAudio@@QAEXXZ 0050c370 f   vehicle:semicaraudio.obj
 0001:0010b4c0       ??_EvehSemiCarAudio@@UAEPAXI@Z 0050c4c0 f i vehicle:semicaraudio.obj
 0001:0010b4c0       ??_GvehSemiCarAudio@@UAEPAXI@Z 0050c4c0 f i vehicle:semicaraudio.obj
 0001:0010b4f0       ??0vehNitroCarAudio@@QAE@PAVvehCarSim@@PAVvehCarDamage@@PAD_N3@Z 0050c4f0 f   vehicle:nitrocaraudio.obj
 0001:0010b580       ??1vehNitroCarAudio@@UAE@XZ 0050c580 f   vehicle:nitrocaraudio.obj
 0001:0010b590       ?Init@vehNitroCarAudio@@QAEXPAVvehCarSim@@PAVvehCarDamage@@PAD_N33@Z 0050c590 f   vehicle:nitrocaraudio.obj
 0001:0010b5f0       ?UpdateAudio@vehNitroCarAudio@@UAEXXZ 0050c5f0 f   vehicle:nitrocaraudio.obj
 0001:0010b660       ?UpdateAudio3D@vehNitroCarAudio@@QAEXXZ 0050c660 f   vehicle:nitrocaraudio.obj
 0001:0010b6e0       ?UpdateAudioNon3D@vehNitroCarAudio@@QAEXXZ 0050c6e0 f   vehicle:nitrocaraudio.obj
 0001:0010b6f0       ?Reset@vehNitroCarAudio@@QAEXXZ 0050c6f0 f   vehicle:nitrocaraudio.obj
 0001:0010b700       ?AssignSounds@vehNitroCarAudio@@UAEXXZ 0050c700 f   vehicle:nitrocaraudio.obj
 0001:0010b7b0       ?UnAssignSounds@vehNitroCarAudio@@UAEXH@Z 0050c7b0 f   vehicle:nitrocaraudio.obj
 0001:0010b820       ?Load@vehNitroCarAudio@@QAEXPAD@Z 0050c820 f   vehicle:nitrocaraudio.obj
 0001:0010b920       ?RemoveFromManager@vehNitroCarAudio@@QAEXXZ 0050c920 f   vehicle:nitrocaraudio.obj
 0001:0010b930       ?SetNon3DParams@vehNitroCarAudio@@UAEXXZ 0050c930 f   vehicle:nitrocaraudio.obj
 0001:0010b9a0       ?Set3DParams@vehNitroCarAudio@@UAEXXZ 0050c9a0 f   vehicle:nitrocaraudio.obj
 0001:0010b9b0       ?Update@vehNitroCarAudio@@UAEXXZ 0050c9b0 f   vehicle:nitrocaraudio.obj
 0001:0010b9c0       ?EchoOn@vehNitroCarAudio@@QAEXXZ 0050c9c0 f   vehicle:nitrocaraudio.obj
 0001:0010ba40       ?EchoOff@vehNitroCarAudio@@QAEXXZ 0050ca40 f   vehicle:nitrocaraudio.obj
 0001:0010ba80       ?Set2DPan@vehNitroCarAudio@@QAEXM@Z 0050ca80 f   vehicle:nitrocaraudio.obj
 0001:0010bac0       ?UpdateEcho@vehNitroCarAudio@@QAEXXZ 0050cac0 f   vehicle:nitrocaraudio.obj
 0001:0010bae0       ?PlayNitro@vehNitroCarAudio@@QAEXXZ 0050cae0 f   vehicle:nitrocaraudio.obj
 0001:0010bb70       ?StopNitro@vehNitroCarAudio@@QAEXXZ 0050cb70 f   vehicle:nitrocaraudio.obj
 0001:0010bcc0       ??_GvehNitroCarAudio@@UAEPAXI@Z 0050ccc0 f i vehicle:nitrocaraudio.obj
 0001:0010bcc0       ??_EvehNitroCarAudio@@UAEPAXI@Z 0050ccc0 f i vehicle:nitrocaraudio.obj
 0001:0010bcf0       ??0vehEngineAudio@@QAE@XZ  0050ccf0 f   vehicle:engineaudio.obj
 0001:0010bd10       ??1vehEngineAudio@@UAE@XZ  0050cd10 f   vehicle:engineaudio.obj
 0001:0010bdb0       ?GetSoundIndex@vehEngineAudio@@QAEHH@Z 0050cdb0 f   vehicle:engineaudio.obj
 0001:0010bdd0       ?Stop@vehEngineAudio@@QAEXXZ 0050cdd0 f   vehicle:engineaudio.obj
 0001:0010be00       ?UpdateRPM@vehEngineAudio@@QAEXMMMM@Z 0050ce00 f   vehicle:engineaudio.obj
 0001:0010be40       ?UpdateRPM@vehEngineAudio@@QAEXM@Z 0050ce40 f   vehicle:engineaudio.obj
 0001:0010be70       ?EchoOn@vehEngineAudio@@QAEXM@Z 0050ce70 f   vehicle:engineaudio.obj
 0001:0010bea0       ?EchoOff@vehEngineAudio@@QAEXXZ 0050cea0 f   vehicle:engineaudio.obj
 0001:0010bed0       ?Enable3DMode@vehEngineAudio@@QAEXPAVVector3@@@Z 0050ced0 f   vehicle:engineaudio.obj
 0001:0010bee0       ?Disable3DMode@vehEngineAudio@@QAEXXZ 0050cee0 f   vehicle:engineaudio.obj
 0001:0010bef0       ?AssignSounds@vehEngineAudio@@QAEXH@Z 0050cef0 f   vehicle:engineaudio.obj
 0001:0010bf60       ?UnAssignSounds@vehEngineAudio@@QAEXXZ 0050cf60 f   vehicle:engineaudio.obj
 0001:0010bf90       ?Load@vehEngineAudio@@QAEHPAVStream@@@Z 0050cf90 f   vehicle:engineaudio.obj
 0001:0010c1a0       ?AddWidgets@vehEngineAudio@@QAEXAAVbkBank@@@Z 0050d1a0 f   vehicle:engineaudio.obj
 0001:0010c280       ?WidgetGlobalAtten@vehEngineAudio@@QAEXXZ 0050d280 f   vehicle:engineaudio.obj
 0001:0010c2b0       ?SaveParamsPlay@vehEngineAudio@@QAEXXZ 0050d2b0 f   vehicle:engineaudio.obj
 0001:0010c2c0       ?SaveParamsOpp@vehEngineAudio@@QAEXXZ 0050d2c0 f   vehicle:engineaudio.obj
 0001:0010c2d0       ?SaveParams@vehEngineAudio@@AAEXPAD@Z 0050d2d0 f   vehicle:engineaudio.obj
 0001:0010c400       ?SetCSVFileName@vehEngineAudio@@QAEXPAD@Z 0050d400 f   vehicle:engineaudio.obj
 0001:0010c430       ?Silence@vehEngineAudio@@QAEXH@Z 0050d430 f   vehicle:engineaudio.obj
 0001:0010c460       ?SetPan@vehEngineAudio@@QAEXM@Z 0050d460 f   vehicle:engineaudio.obj
 0001:0010c5b0       ??_EvehEngineAudio@@UAEPAXI@Z 0050d5b0 f i vehicle:engineaudio.obj
 0001:0010c5b0       ??_GvehEngineAudio@@UAEPAXI@Z 0050d5b0 f i vehicle:engineaudio.obj
 0001:0010c5e0       ??0aiEngineAudio@@QAE@XZ   0050d5e0 f   vehicle:aiengineaudio.obj
 0001:0010c600       ??0aiEngineAudio@@QAE@PAV0@@Z 0050d600 f   vehicle:aiengineaudio.obj
 0001:0010c740       ??1aiEngineAudio@@QAE@XZ   0050d740 f   vehicle:aiengineaudio.obj
 0001:0010c7f0       ?Load@aiEngineAudio@@SAHPAPAV1@PAD1PAH@Z 0050d7f0 f   vehicle:aiengineaudio.obj
 0001:0010c8b0       ?AddToHash@aiEngineAudio@@SAXPADH@Z 0050d8b0 f   vehicle:aiengineaudio.obj
 0001:0010c8f0       ?ReadCSV@aiEngineAudio@@AAEHPAVStream@@@Z 0050d8f0 f   vehicle:aiengineaudio.obj
 0001:0010cb90       ?EchoOn@aiEngineAudio@@QAEXM@Z 0050db90 f   vehicle:aiengineaudio.obj
 0001:0010cbe0       ?EchoOff@aiEngineAudio@@QAEXXZ 0050dbe0 f   vehicle:aiengineaudio.obj
 0001:0010cc10       ?UpdateEcho@aiEngineAudio@@QAEXXZ 0050dc10 f   vehicle:aiengineaudio.obj
 0001:0010cc40       ?AssignSounds@aiEngineAudio@@QAEXH@Z 0050dc40 f   vehicle:aiengineaudio.obj
 0001:0010cc80       ?UnAssignSounds@aiEngineAudio@@QAEXXZ 0050dc80 f   vehicle:aiengineaudio.obj
 0001:0010ccc0       ?CalculatePitch@aiEngineAudio@@QAEXMMH@Z 0050dcc0 f   vehicle:aiengineaudio.obj
 0001:0010cdb0       ?UpdateDoppler@aiEngineAudio@@QAEXMMM@Z 0050ddb0 f   vehicle:aiengineaudio.obj
 0001:0010cf60       ??0vehHornAudio@@QAE@XZ    0050df60 f   vehicle:hornaudio.obj
 0001:0010cf90       ??0vehHornAudio@@QAE@PAV0@@Z 0050df90 f   vehicle:hornaudio.obj
 0001:0010d100       ??1vehHornAudio@@QAE@XZ    0050e100 f   vehicle:hornaudio.obj
 0001:0010d160       ?AllocTiming@vehHornAudio@@QAEXXZ 0050e160 f   vehicle:hornaudio.obj
 0001:0010d250       ?GetHornAudioTimingPtr@vehHornAudio@@QAEPAVvehHornAudioTiming@@H@Z 0050e250 f   vehicle:hornaudio.obj
 0001:0010d2e0       ?GetNumTimings@vehHornAudio@@QAEHXZ 0050e2e0 f   vehicle:hornaudio.obj
 0001:0010d2f0       ?UpdateDoppler@vehHornAudio@@QAEXMMM@Z 0050e2f0 f   vehicle:hornaudio.obj
 0001:0010d380       ?IsPlaying@vehHornAudio@@QAE_NXZ 0050e380 f   vehicle:hornaudio.obj
 0001:0010d3a0       ?PlayAvoidance@vehHornAudio@@QAE_NXZ 0050e3a0 f   vehicle:hornaudio.obj
 0001:0010d450       ?PlayImpact@vehHornAudio@@QAEXM@Z 0050e450 f   vehicle:hornaudio.obj
 0001:0010d4e0       ?Reset@vehHornAudio@@QAEXXZ 0050e4e0 f   vehicle:hornaudio.obj
 0001:0010d4f0       ?AssignSounds@vehHornAudio@@QAEXH@Z 0050e4f0 f   vehicle:hornaudio.obj
 0001:0010d530       ?UnAssignSounds@vehHornAudio@@QAEXXZ 0050e530 f   vehicle:hornaudio.obj
 0001:0010d5d0       ?Load@vehHornAudio@@SAHPAPAV1@PAD1PAH@Z 0050e5d0 f   vehicle:hornaudio.obj
 0001:0010d690       ?AddToHash@vehHornAudio@@SAXPADH@Z 0050e690 f   vehicle:hornaudio.obj
 0001:0010d6d0       ?ReadCSV@vehHornAudio@@AAEHPAVStream@@@Z 0050e6d0 f   vehicle:hornaudio.obj
 0001:0010d880       ?Update@vehHornAudio@@QAEXXZ 0050e880 f   vehicle:hornaudio.obj
 0001:0010d8a0       ?EchoOn@vehHornAudio@@QAEXM@Z 0050e8a0 f   vehicle:hornaudio.obj
 0001:0010d8f0       ?EchoOff@vehHornAudio@@QAEXXZ 0050e8f0 f   vehicle:hornaudio.obj
 0001:0010d920       ?UpdateEcho@vehHornAudio@@QAEXXZ 0050e920 f   vehicle:hornaudio.obj
 0001:0010da70       ??0vehSurfaceAudio@@QAE@XZ 0050ea70 f   vehicle:surfaceaudio.obj
 0001:0010db20       ??1vehSurfaceAudio@@UAE@XZ 0050eb20 f   vehicle:surfaceaudio.obj
 0001:0010dbd0       ?SetDamagePtr@vehSurfaceAudio@@QAEXPAVvehCarDamage@@@Z 0050ebd0 f   vehicle:surfaceaudio.obj
 0001:0010dbe0       ?SetWheelPointers@vehSurfaceAudio@@QAEXPAVvehWheel@@000@Z 0050ebe0 f   vehicle:surfaceaudio.obj
 0001:0010dc20       ?IsBrakeing@vehSurfaceAudio@@QAE_NXZ 0050ec20 f   vehicle:surfaceaudio.obj
 0001:0010dc50       ?Update@vehSurfaceAudio@@QAEXPAVvehCarSim@@MM@Z 0050ec50 f   vehicle:surfaceaudio.obj
 0001:0010dcb0       ?Update@vehSurfaceAudio@@QAEXPAVvehCarSim@@@Z 0050ecb0 f   vehicle:surfaceaudio.obj
 0001:0010dd00       ?UpdateSurface@vehSurfaceAudio@@QAEXM@Z 0050ed00 f   vehicle:surfaceaudio.obj
 0001:0010de50       ?UpdateSurface@vehSurfaceAudio@@QAEXMMM@Z 0050ee50 f   vehicle:surfaceaudio.obj
 0001:0010df80       ?UpdateSkid@vehSurfaceAudio@@QAEXM@Z 0050ef80 f   vehicle:surfaceaudio.obj
 0001:0010e0c0       ?UpdateSkid@vehSurfaceAudio@@QAEXMMM@Z 0050f0c0 f   vehicle:surfaceaudio.obj
 0001:0010e200       ?SurfaceChanged@vehSurfaceAudio@@QAEHXZ 0050f200 f   vehicle:surfaceaudio.obj
 0001:0010e230       ?LoadCSV@vehSurfaceAudio@@QAE_NPAD0@Z 0050f230 f   vehicle:surfaceaudio.obj
 0001:0010e4a0       ?SaveCSV@vehSurfaceAudio@@QAEXXZ 0050f4a0 f   vehicle:surfaceaudio.obj
 0001:0010e590       ?LoadSuspension@vehSurfaceAudio@@QAEHPAD0@Z 0050f590 f   vehicle:surfaceaudio.obj
 0001:0010e720       ?EchoOn@vehSurfaceAudio@@QAEXM@Z 0050f720 f   vehicle:surfaceaudio.obj
 0001:0010e750       ?EchoOff@vehSurfaceAudio@@QAEXXZ 0050f750 f   vehicle:surfaceaudio.obj
 0001:0010e780       ?SetPan@vehSurfaceAudio@@QAEXM@Z 0050f780 f   vehicle:surfaceaudio.obj
 0001:0010e7c0       ?StopSkid@vehSurfaceAudio@@QAEXXZ 0050f7c0 f   vehicle:surfaceaudio.obj
 0001:0010e7d0       ?StopSurface@vehSurfaceAudio@@QAEXXZ 0050f7d0 f   vehicle:surfaceaudio.obj
 0001:0010e7e0       ?AssignSounds@vehSurfaceAudio@@QAEXH@Z 0050f7e0 f   vehicle:surfaceaudio.obj
 0001:0010e8b0       ?UnAssignSounds@vehSurfaceAudio@@QAEXXZ 0050f8b0 f   vehicle:surfaceaudio.obj
 0001:0010e8f0       ?UpdateSuspension@vehSurfaceAudio@@QAEXXZ 0050f8f0 f   vehicle:surfaceaudio.obj
 0001:0010e9d0       ?UpdateSuspension@vehSurfaceAudio@@QAEXMM@Z 0050f9d0 f   vehicle:surfaceaudio.obj
 0001:0010ead0       ?LoadTireWobble@vehSurfaceAudio@@QAEHPAD0@Z 0050fad0 f   vehicle:surfaceaudio.obj
 0001:0010ed40       ?UpdateTireWobble@vehSurfaceAudio@@QAEXPAVvehCarSim@@@Z 0050fd40 f   vehicle:surfaceaudio.obj
 0001:0010ef00       ?UpdateTireWobble@vehSurfaceAudio@@QAEXPAVvehCarSim@@MM@Z 0050ff00 f   vehicle:surfaceaudio.obj
 0001:0010f080       ?UpdateEcho@vehSurfaceAudio@@QAEXXZ 00510080 f   vehicle:surfaceaudio.obj
 0001:0010f090       ?UpdateAir@vehSurfaceAudio@@QAEXXZ 00510090 f   vehicle:surfaceaudio.obj
 0001:0010f1e0       ?SetPositionPtr@vehSurfaceAudio@@QAEXPAVVector3@@@Z 005101e0 f   vehicle:surfaceaudio.obj
 0001:0010f1f0       ?AddWidgets@vehSurfaceAudio@@QAEXAAVbkBank@@@Z 005101f0 f   vehicle:surfaceaudio.obj
 0001:0010f2e0       ??_EvehSurfaceAudio@@UAEPAXI@Z 005102e0 f i vehicle:surfaceaudio.obj
 0001:0010f2e0       ??_GvehSurfaceAudio@@UAEPAXI@Z 005102e0 f i vehicle:surfaceaudio.obj
 0001:0010f310       ??0vehEngineSampleWrapper@@QAE@XZ 00510310 f   vehicle:enginesamplewrapper.obj
 0001:0010f340       ??1vehEngineSampleWrapper@@UAE@XZ 00510340 f   vehicle:enginesamplewrapper.obj
 0001:0010f3d0       ?SetSoundPtr@vehEngineSampleWrapper@@QAEXPAVAudSoundBase@@@Z 005103d0 f   vehicle:enginesamplewrapper.obj
 0001:0010f400       ?DeallocateSoundPtr@vehEngineSampleWrapper@@QAEXXZ 00510400 f   vehicle:enginesamplewrapper.obj
 0001:0010f420       ?Stop@vehEngineSampleWrapper@@QAEXXZ 00510420 f   vehicle:enginesamplewrapper.obj
 0001:0010f440       ?SetPan@vehEngineSampleWrapper@@QAEXM@Z 00510440 f   vehicle:enginesamplewrapper.obj
 0001:0010f460       ?UpdateRPM@vehEngineSampleWrapper@@QAEXMMMM@Z 00510460 f   vehicle:enginesamplewrapper.obj
 0001:0010f530       ?UpdateRPM@vehEngineSampleWrapper@@QAEXM@Z 00510530 f   vehicle:enginesamplewrapper.obj
 0001:0010f5e0       ?CalculateVolumeOld@vehEngineSampleWrapper@@QAEMM@Z 005105e0 f   vehicle:enginesamplewrapper.obj
 0001:0010f640       ?CalculateVolume@vehEngineSampleWrapper@@QAEMM@Z 00510640 f   vehicle:enginesamplewrapper.obj
 0001:0010f6b0       ?CalculatePitch@vehEngineSampleWrapper@@QAEMM@Z 005106b0 f   vehicle:enginesamplewrapper.obj
 0001:0010f6f0       ?EchoOn@vehEngineSampleWrapper@@QAEXM@Z 005106f0 f   vehicle:enginesamplewrapper.obj
 0001:0010f760       ?EchoOff@vehEngineSampleWrapper@@QAEXXZ 00510760 f   vehicle:enginesamplewrapper.obj
 0001:0010f7b0       ?Silence@vehEngineSampleWrapper@@QAEXH@Z 005107b0 f   vehicle:enginesamplewrapper.obj
 0001:0010f7e0       ?ParseCSVBufferOld@vehEngineSampleWrapper@@QAEXPAD@Z 005107e0 f   vehicle:enginesamplewrapper.obj
 0001:0010f910       ?ParseCSVBuffer@vehEngineSampleWrapper@@QAEXPAD@Z 00510910 f   vehicle:enginesamplewrapper.obj
 0001:0010fbe0       ?SetMaxVolume@vehEngineSampleWrapper@@QAEXM@Z 00510be0 f   vehicle:enginesamplewrapper.obj
 0001:0010fc00       ?AddWidgets@vehEngineSampleWrapper@@QAEXAAVbkBank@@H@Z 00510c00 f   vehicle:enginesamplewrapper.obj
 0001:0010ffe0       ?WidgetSilence@vehEngineSampleWrapper@@QAEXXZ 00510fe0 f   vehicle:enginesamplewrapper.obj
 0001:00110010       ?WidgetUnSilence@vehEngineSampleWrapper@@QAEXXZ 00511010 f   vehicle:enginesamplewrapper.obj
 0001:00110030       ?WidgetVolDivs@vehEngineSampleWrapper@@QAEXXZ 00511030 f   vehicle:enginesamplewrapper.obj
 0001:001100e0       ?WidgetAdjustPitchMult@vehEngineSampleWrapper@@QAEXXZ 005110e0 f   vehicle:enginesamplewrapper.obj
 0001:00110150       ?SaveParams@vehEngineSampleWrapper@@QAEXPAVStream@@@Z 00511150 f   vehicle:enginesamplewrapper.obj
 0001:00110270       ?WidgetApplyGlobalAtten@vehEngineSampleWrapper@@QAEXM@Z 00511270 f   vehicle:enginesamplewrapper.obj
 0001:00110290       ?SaveWaveName@vehEngineSampleWrapper@@QAEXPAD@Z 00511290 f   vehicle:enginesamplewrapper.obj
 0001:001103e0       ??_GvehEngineSampleWrapper@@UAEPAXI@Z 005113e0 f i vehicle:enginesamplewrapper.obj
 0001:001103e0       ??_EvehEngineSampleWrapper@@UAEPAXI@Z 005113e0 f i vehicle:enginesamplewrapper.obj
 0001:00110410       ??0vehHornAudioTiming@@QAE@XZ 00511410 f   vehicle:hornaudiotiming.obj
 0001:00110430       ??0vehHornAudioTiming@@QAE@PAV0@@Z 00511430 f   vehicle:hornaudiotiming.obj
 0001:001104a0       ??1vehHornAudioTiming@@QAE@XZ 005114a0 f   vehicle:hornaudiotiming.obj
 0001:001104f0       ?Reset@vehHornAudioTiming@@QAEXXZ 005114f0 f   vehicle:hornaudiotiming.obj
 0001:00110500       ?AllocPlayPause@vehHornAudioTiming@@QAEXMM@Z 00511500 f   vehicle:hornaudiotiming.obj
 0001:001105c0       ?Stop@vehHornAudioTiming@@QAEXPAVAudSoundBase@@@Z 005115c0 f   vehicle:hornaudiotiming.obj
 0001:001105f0       ?Play@vehHornAudioTiming@@QAEXPAVAudSoundBase@@@Z 005115f0 f   vehicle:hornaudiotiming.obj
 0001:00110630       ?Update@vehHornAudioTiming@@QAEXPAVAudSoundBase@@@Z 00511630 f   vehicle:hornaudiotiming.obj
 0001:00110750       ??0vehSurfaceAudioData@@QAE@XZ 00511750 f   vehicle:surfaceaudiodata.obj
 0001:001107a0       ??1vehSurfaceAudioData@@UAE@XZ 005117a0 f   vehicle:surfaceaudiodata.obj
 0001:001108e0       ?AllocateSkidSamples@vehSurfaceAudioData@@QAEXH@Z 005118e0 f   vehicle:surfaceaudiodata.obj
 0001:00110950       ?StopSkid@vehSurfaceAudioData@@QAEXXZ 00511950 f   vehicle:surfaceaudiodata.obj
 0001:001109f0       ?UpdateSkid@vehSurfaceAudioData@@QAEXMMM@Z 005119f0 f   vehicle:surfaceaudiodata.obj
 0001:00110ad0       ?UpdateSkid@vehSurfaceAudioData@@QAEXM@Z 00511ad0 f   vehicle:surfaceaudiodata.obj
 0001:00110b80       ?UpdateSurface@vehSurfaceAudioData@@QAEXMMM@Z 00511b80 f   vehicle:surfaceaudiodata.obj
 0001:00110c30       ?UpdateSurface@vehSurfaceAudioData@@QAEXM@Z 00511c30 f   vehicle:surfaceaudiodata.obj
 0001:00110cb0       ?StopSurface@vehSurfaceAudioData@@QAEXXZ 00511cb0 f   vehicle:surfaceaudiodata.obj
 0001:00110ce0       ?ParseCSVBuffer@vehSurfaceAudioData@@QAE_NPAVStream@@@Z 00511ce0 f   vehicle:surfaceaudiodata.obj
 0001:00111170       ?SaveCSVBuffer@vehSurfaceAudioData@@QAEXPAVStream@@@Z 00512170 f   vehicle:surfaceaudiodata.obj
 0001:001119a0       ?SkidPlaying@vehSurfaceAudioData@@QAEHXZ 005129a0 f   vehicle:surfaceaudiodata.obj
 0001:00111a00       ?SurfacePlaying@vehSurfaceAudioData@@QAEHXZ 00512a00 f   vehicle:surfaceaudiodata.obj
 0001:00111a20       ?GetSurfaceSoundPtr@vehSurfaceAudioData@@QAEPAVAudSoundBase@@XZ 00512a20 f   vehicle:surfaceaudiodata.obj
 0001:00111a30       ?AssignSounds@vehSurfaceAudioData@@QAEXH@Z 00512a30 f   vehicle:surfaceaudiodata.obj
 0001:00111af0       ?UnAssignSounds@vehSurfaceAudioData@@QAEXXZ 00512af0 f   vehicle:surfaceaudiodata.obj
 0001:00111b20       ?SetPan@vehSurfaceAudioData@@QAEXM@Z 00512b20 f   vehicle:surfaceaudiodata.obj
 0001:00111b80       ?EchoOn@vehSurfaceAudioData@@QAEXM@Z 00512b80 f   vehicle:surfaceaudiodata.obj
 0001:00111c00       ?EchoOff@vehSurfaceAudioData@@QAEXXZ 00512c00 f   vehicle:surfaceaudiodata.obj
 0001:00111c40       ?UpdateEcho@vehSurfaceAudioData@@QAEXXZ 00512c40 f   vehicle:surfaceaudiodata.obj
 0001:00111c80       ?AddWidgets@vehSurfaceAudioData@@QAEXAAVbkBank@@H@Z 00512c80 f   vehicle:surfaceaudiodata.obj
 0001:00112190       ?WidgetVolDivs@vehSurfaceAudioData@@QAEXXZ 00513190 f   vehicle:surfaceaudiodata.obj
 0001:00112230       ?WidgetPlaySkid@vehSurfaceAudioData@@QAEXXZ 00513230 f   vehicle:surfaceaudiodata.obj
 0001:00112240       ?WidgetPlaySurface@vehSurfaceAudioData@@QAEXXZ 00513240 f   vehicle:surfaceaudiodata.obj
 0001:00112260       ?WidgetStopSurface@vehSurfaceAudioData@@QAEXXZ 00513260 f   vehicle:surfaceaudiodata.obj
 0001:00112280       ??_EvehSurfaceAudioData@@UAEPAXI@Z 00513280 f i vehicle:surfaceaudiodata.obj
 0001:00112280       ??_GvehSurfaceAudioData@@UAEPAXI@Z 00513280 f i vehicle:surfaceaudiodata.obj
 0001:001122b0       ??0MenuManager@@QAE@XZ     005132b0 f   mmwidget:manager.obj
 0001:00112950       ??1MenuManager@@UAE@XZ     00513950 f   mmwidget:manager.obj
 0001:00112b80       ?GetScale@MenuManager@@QAEXAAM000@Z 00513b80 f   mmwidget:manager.obj
 0001:00112bf0       ?MouseAction@MenuManager@@QAEPAVuiWidget@@HMM@Z 00513bf0 f   mmwidget:manager.obj
 0001:00112c70       ?ClearAllWidgets@MenuManager@@QAEXXZ 00513c70 f   mmwidget:manager.obj
 0001:00112cb0       ?Init@MenuManager@@QAEXHHPAD@Z 00513cb0 f   mmwidget:manager.obj
 0001:00112fa0       ?Init@MenuManager@@QAEXPAVasCamera@@HHMMMM@Z 00513fa0 f   mmwidget:manager.obj
 0001:001131c0       ?InitCommonStuff@MenuManager@@QAEXHH@Z 005141c0 f   mmwidget:manager.obj
 0001:001134a0       ?AddPointer@MenuManager@@QAEXXZ 005144a0 f   mmwidget:manager.obj
 0001:001134b0       ?InitGlobalStrings@MenuManager@@QAEXXZ 005144b0 f   mmwidget:manager.obj
 0001:00113d10       ?LoadRaceNames@MenuManager@@QAEXXZ 00514d10 f   mmwidget:manager.obj
 0001:001140a0       ?GetControllerName@MenuManager@@QAEPADH@Z 005150a0 f   mmwidget:manager.obj
 0001:00114140       ?GetFont@MenuManager@@QAEPAXH@Z 00515140 f   mmwidget:manager.obj
 0001:00114210       ?GetFGColor@MenuManager@@QAEAAVVector4@@H@Z 00515210 f   mmwidget:manager.obj
 0001:001143b0       ?CheckBG@MenuManager@@QAEXPAVUIMenu@@@Z 005153b0 f   mmwidget:manager.obj
 0001:001143d0       ?SetDefaultBackgroundImage@MenuManager@@QAEXPAD@Z 005153d0 f   mmwidget:manager.obj
 0001:00114430       ?SetBackgroundImage@MenuManager@@QAEXPAD@Z 00515430 f   mmwidget:manager.obj
 0001:00114480       ?TogglePU@MenuManager@@QAEXXZ 00515480 f   mmwidget:manager.obj
 0001:001144a0       ?EnablePU@MenuManager@@QAEXXZ 005154a0 f   mmwidget:manager.obj
 0001:00114510       ?AdjustPopupCard@MenuManager@@QAEXPAVUIMenu@@@Z 00515510 f   mmwidget:manager.obj
 0001:00114560       ?DisablePU@MenuManager@@QAEXXZ 00515560 f   mmwidget:manager.obj
 0001:001145a0       ?OpenDialog@MenuManager@@QAEXH@Z 005155a0 f   mmwidget:manager.obj
 0001:00114620       ?CloseDialog@MenuManager@@QAEXXZ 00515620 f   mmwidget:manager.obj
 0001:00114650       ?Enable@MenuManager@@QAEXH@Z 00515650 f   mmwidget:manager.obj
 0001:001146c0       ?Disable@MenuManager@@QAEXH@Z 005156c0 f   mmwidget:manager.obj
 0001:00114700       ?EnableNavBar@MenuManager@@QAEXXZ 00515700 f   mmwidget:manager.obj
 0001:00114720       ?DisableNavBar@MenuManager@@QAEXXZ 00515720 f   mmwidget:manager.obj
 0001:00114730       ?Kill@MenuManager@@QAEXXZ  00515730 f   mmwidget:manager.obj
 0001:001147b0       ?PlaySound@MenuManager@@QAEXH@Z 005157b0 f   mmwidget:manager.obj
 0001:00114860       ?DeclareLastDrawn@MenuManager@@QAEXPAVasNode@@@Z 00515860 f   mmwidget:manager.obj
 0001:00114870       ?ResChange@MenuManager@@UAEXHH@Z 00515870 f   mmwidget:manager.obj
 0001:001148a0       ?Update@MenuManager@@UAEXXZ 005158a0 f   mmwidget:manager.obj
 0001:001148d0       ?Flush@MenuManager@@QAEXXZ 005158d0 f   mmwidget:manager.obj
 0001:00114900       ?CheckInput@MenuManager@@QAEXXZ 00515900 f   mmwidget:manager.obj
 0001:00114980       ?ToggleFocus@MenuManager@@QAEXH@Z 00515980 f   mmwidget:manager.obj
 0001:00114a00       ?RegisterWidgetFocus@MenuManager@@QAEXHMMMMPAVuiWidget@@@Z 00515a00 f   mmwidget:manager.obj
 0001:00114a60       ?ScanGlobalKeys@MenuManager@@QAEHH@Z 00515a60 f   mmwidget:manager.obj
 0001:00114e50       ?SwitchFocus@MenuManager@@QAEXPAVUIMenu@@@Z 00515e50 f   mmwidget:manager.obj
 0001:00114ea0       ?NotifyMouseSelect@MenuManager@@QAEXPAVUIMenu@@@Z 00515ea0 f   mmwidget:manager.obj
 0001:00114ee0       ?AddWidgets@MenuManager@@QAEXPAVbkBank@@@Z 00515ee0 f   mmwidget:manager.obj
 0001:00114ef0       ?GetCurrentMenu@MenuManager@@QAEPAVUIMenu@@XZ 00515ef0 f   mmwidget:manager.obj
 0001:00114f20       ?FindMenu@MenuManager@@QAEHH@Z 00515f20 f   mmwidget:manager.obj
 0001:00114f60       ?CurrentMenuSelected@MenuManager@@QAEHXZ 00515f60 f   mmwidget:manager.obj
 0001:00114f80       ?MenuState@MenuManager@@QAEHH@Z 00515f80 f   mmwidget:manager.obj
 0001:00114fd0       ?ActionID@MenuManager@@QAEHH@Z 00515fd0 f   mmwidget:manager.obj
 0001:00115010       ?ForceCurrentFocus@MenuManager@@QAEXXZ 00516010 f   mmwidget:manager.obj
 0001:00115040       ?SetFocus@MenuManager@@QAEXPAVUIMenu@@@Z 00516040 f   mmwidget:manager.obj
 0001:00115050       ?Switch@MenuManager@@QAEHH@Z 00516050 f   mmwidget:manager.obj
 0001:001150f0       ?SetPreviousMenu@MenuManager@@QAEXH@Z 005160f0 f   mmwidget:manager.obj
 0001:00115120       ?GetPreviousMenu@MenuManager@@QAEHXZ 00516120 f   mmwidget:manager.obj
 0001:00115140       ?AddMenu2@MenuManager@@QAEHPAVUIMenu@@@Z 00516140 f   mmwidget:manager.obj
 0001:001151a0       ?DeleteMenu@MenuManager@@QAEXPAVUIMenu@@@Z 005161a0 f   mmwidget:manager.obj
 0001:00115200       ?PlayMenuSwitchSound@MenuManager@@AAEXXZ 00516200 f   mmwidget:manager.obj
 0001:001152b0       ?AllocateMenuSwitchAudio@MenuManager@@QAEXXZ 005162b0 f   mmwidget:manager.obj
 0001:00115450       ?PlayRecordsSound@MenuManager@@QAEXXZ 00516450 f   mmwidget:manager.obj
 0001:00115480       ?PlayReplaySound@MenuManager@@QAEXXZ 00516480 f   mmwidget:manager.obj
 0001:001154b0       ?AddBrackets@MenuManager@@QAEXPAVUIIcon@@0PAVuiWidget@@MM@Z 005164b0 f   mmwidget:manager.obj
 0001:00115590       ?Help@MenuManager@@QAEXXZ  00516590 f   mmwidget:manager.obj
 0001:00115850       ??_EMenuManager@@UAEPAXI@Z 00516850 f i mmwidget:manager.obj
 0001:00115850       ??_GMenuManager@@UAEPAXI@Z 00516850 f i mmwidget:manager.obj
 0001:00115880       ??0MArray@@QAE@XZ          00516880 f   mmwidget:mstore.obj
 0001:00115890       ??1MArray@@QAE@XZ          00516890 f   mmwidget:mstore.obj
 0001:001158a0       ?Init@MArray@@QAEXH@Z      005168a0 f   mmwidget:mstore.obj
 0001:00115900       ?Write@MArray@@QAEXPAD@Z   00516900 f   mmwidget:mstore.obj
 0001:00115ab0       ?Flush@MArray@@QAEXXZ      00516ab0 f   mmwidget:mstore.obj
 0001:00115ac0       ?Read@MArray@@QAEXPAD@Z    00516ac0 f   mmwidget:mstore.obj
 0001:00115c70       ?AddMenuData@MArray@@QAEXHAAVVector4@@PAD@Z 00516c70 f   mmwidget:mstore.obj
 0001:00115ce0       ?RetrieveMenuData@MArray@@QAEHHAAM000@Z 00516ce0 f   mmwidget:mstore.obj
 0001:00115db0       ??0WArray@@QAE@XZ          00516db0 f   mmwidget:wstore.obj
 0001:00115dc0       ??1WArray@@QAE@XZ          00516dc0 f   mmwidget:wstore.obj
 0001:00115dd0       ?Init@WArray@@QAEXH@Z      00516dd0 f   mmwidget:wstore.obj
 0001:00115e30       ?Write@WArray@@QAEXPAD@Z   00516e30 f   mmwidget:wstore.obj
 0001:00115ef0       ?DumpMenu@WArray@@QAEXPAVStream@@PAVUIMenu@@@Z 00516ef0 f   mmwidget:wstore.obj
 0001:00116130       ?Flush@WArray@@QAEXXZ      00517130 f   mmwidget:wstore.obj
 0001:00116140       ?Read@WArray@@QAEXPAD@Z    00517140 f   mmwidget:wstore.obj
 0001:00116310       ?AddWidgetData@WArray@@QAEXHHAAVVector4@@PAD@Z 00517310 f   mmwidget:wstore.obj
 0001:00116390       ?RetrieveWidgetData@WArray@@QAEHHHAAM000@Z 00517390 f   mmwidget:wstore.obj
 0001:001165e0       ??0UIMenu@@QAE@H@Z         005175e0 f   mmwidget:menu.obj
 0001:001166e0       ??1UIMenu@@UAE@XZ          005176e0 f   mmwidget:menu.obj
 0001:00116780       ?AssignName@UIMenu@@QAEXPAULocString@@@Z 00517780 f   mmwidget:menu.obj
 0001:001167d0       ?AssignBackground@UIMenu@@QAEXPAD@Z 005177d0 f   mmwidget:menu.obj
 0001:00116820       ?Enable@UIMenu@@QAEXXZ     00517820 f   mmwidget:menu.obj
 0001:00116890       ?Disable@UIMenu@@QAEXXZ    00517890 f   mmwidget:menu.obj
 0001:001168b0       ?PreSetup@UIMenu@@UAEXXZ   005178b0 f   mmwidget:menu.obj
 0001:001168c0       ?PostSetup@UIMenu@@UAEXXZ  005178c0 f   mmwidget:menu.obj
 0001:001168d0       ?Update@UIMenu@@UAEXXZ     005178d0 f   mmwidget:menu.obj
 0001:001168e0       ?SetAction@UIMenu@@QAEXW4eSource@1@@Z 005178e0 f   mmwidget:menu.obj
 0001:00116900       ?ForceWidgetAction@UIMenu@@QAEXH@Z 00517900 f   mmwidget:menu.obj
 0001:00116920       ?ClearAction@UIMenu@@QAEXXZ 00517920 f   mmwidget:menu.obj
 0001:00116930       ?ClearToolTip@UIMenu@@QAEXXZ 00517930 f   mmwidget:menu.obj
 0001:00116960       ?BackUp@UIMenu@@UAEXXZ     00517960 f   mmwidget:menu.obj
 0001:00116970       ?SetBstate@UIMenu@@QAEXH@Z 00517970 f   mmwidget:menu.obj
 0001:001169a0       ?SetFocusWidget@UIMenu@@QAEXH@Z 005179a0 f   mmwidget:menu.obj
 0001:001169e0       ?GetWidgetID@UIMenu@@QAEHXZ 005179e0 f   mmwidget:menu.obj
 0001:001169f0       ?GetBstate@UIMenu@@QAEHXZ  005179f0 f   mmwidget:menu.obj
 0001:00116a00       ?GetDimensions@UIMenu@@QAEXAAM000@Z 00517a00 f   mmwidget:menu.obj
 0001:00116a30       ?DisableIME@UIMenu@@QAEXXZ 00517a30 f   mmwidget:menu.obj
 0001:00116a50       ?FindTheFirstFocusWidget@UIMenu@@QAEHXZ 00517a50 f   mmwidget:menu.obj
 0001:00116a90       ?Increment@UIMenu@@QAEHXZ  00517a90 f   mmwidget:menu.obj
 0001:00116b40       ?Decrement@UIMenu@@QAEHXZ  00517b40 f   mmwidget:menu.obj
 0001:00116bf0       ?ScanInput@UIMenu@@QAEHPATeqEvent@@@Z 00517bf0 f   mmwidget:menu.obj
 0001:00116c30       ?CheckInput@UIMenu@@UAEXXZ 00517c30 f   mmwidget:menu.obj
 0001:00116cc0       ?ScaleWidget@UIMenu@@QAEXAAM000@Z 00517cc0 f   mmwidget:menu.obj
 0001:00116d00       ?AddHotSpot@UIMenu@@QAEPAVuiWidget@@HPADMMMMVdatCallback@@@Z 00517d00 f   mmwidget:menu.obj
 0001:00116de0       ?AddTextDropdown@UIMenu@@QAEPAVUITextDropdown@@HPAULocString@@PAHMMMMVstring@@HHHVdatCallback@@PAD3@Z 00517de0 f   mmwidget:menu.obj
 0001:00116f70       ?AddTextRoller@UIMenu@@QAEPAVUITextRoller@@HPAULocString@@PAHMMMMVstring@@HHHHVdatCallback@@@Z 00517f70 f   mmwidget:menu.obj
 0001:001170c0       ?AddTextRoller2@UIMenu@@QAEPAVUITextRoller2@@HPAULocString@@PAHMMMMVstring@@HHHHVdatCallback@@@Z 005180c0 f   mmwidget:menu.obj
 0001:00117230       ?AddTextScroll@UIMenu@@QAEPAVUITextScroll@@HPAXMMMMVstring@@HPAHVdatCallback@@@Z 00518230 f   mmwidget:menu.obj
 0001:001173d0       ?AddCompScroll@UIMenu@@QAEPAVUICompositeScroll@@HMMMMMHPAHHHVdatCallback@@@Z 005183d0 f   mmwidget:menu.obj
 0001:00117550       ?AddTextField@UIMenu@@QAEPAVUITextField@@HPAULocString@@PADMMMMHHHHHVdatCallback@@@Z 00518550 f   mmwidget:menu.obj
 0001:001176b0       ?AddUIControl@UIMenu@@QAEPAVUIControlWidget@@HMMMMMPAVmmIO@@VdatCallback@@@Z 005186b0 f   mmwidget:menu.obj
 0001:00117790       ?AddSlider@UIMenu@@QAEPAVUISlider@@HPAULocString@@PAMMMMMMMHHHHVdatCallback@@2@Z 00518790 f   mmwidget:menu.obj
 0001:001178e0       ?AddButton@UIMenu@@QAEPAVUIButton@@HPAULocString@@MMMMHHVdatCallback@@H@Z 005188e0 f   mmwidget:menu.obj
 0001:00117a00       ?AddLabel@UIMenu@@QAEPAVUILabel@@HPAULocString@@MMMMHH@Z 00518a00 f   mmwidget:menu.obj
 0001:00117b00       ?AddBMLabel@UIMenu@@QAEPAVUIBMLabel@@HPADPAVstring@@MMPAH@Z 00518b00 f   mmwidget:menu.obj
 0001:00117c10       ?AddIcon@UIMenu@@QAEPAVUIIcon@@HPADMM@Z 00518c10 f   mmwidget:menu.obj
 0001:00117d20       ?AddIconW@UIMenu@@QAEPAVUIIconW@@HPAULocString@@PADMMMMVdatCallback@@@Z 00518d20 f   mmwidget:menu.obj
 0001:00117e30       ?AddToggle@UIMenu@@QAEPAVUIToggleButton@@HPAULocString@@PAHMMMMHHVdatCallback@@@Z 00518e30 f   mmwidget:menu.obj
 0001:00117f50       ?AddToggle2@UIMenu@@QAEPAVUIToggleButton2@@HPAULocString@@PAHMMMMHHVdatCallback@@@Z 00518f50 f   mmwidget:menu.obj
 0001:00118070       ?AddMex@UIMenu@@QAEPAVUIMexButton@@HPAULocString@@PAHHMMMMHHVdatCallback@@@Z 00519070 f   mmwidget:menu.obj
 0001:00118190       ?AddBMButton@UIMenu@@QAEPAVUIBMButton@@HPADMMHVdatCallback@@PAHHH1@Z 00519190 f   mmwidget:menu.obj
 0001:00118320       ?AddCWArray@UIMenu@@QAEPAVUICWArray@@HMMMMHVdatCallback@@@Z 00519320 f   mmwidget:menu.obj
 0001:00118460       ?AddVScrollBar@UIMenu@@QAEPAVUIVScrollBar@@HPAHMMMMMMHHVdatCallback@@@Z 00519460 f   mmwidget:menu.obj
 0001:001185b0       ?MouseAction@UIMenu@@QAEXTeqEvent@@@Z 005195b0 f   mmwidget:menu.obj
 0001:00118620       ?KeyboardAction@UIMenu@@QAEXTeqEvent@@@Z 00519620 f   mmwidget:menu.obj
 0001:001186b0       ?MouseHitCheck@UIMenu@@QAEPAVuiWidget@@HMM@Z 005196b0 f   mmwidget:menu.obj
 0001:001187b0       ?SetSelected@UIMenu@@QAEXXZ 005197b0 f   mmwidget:menu.obj
 0001:001187e0       ?ClearSelected@UIMenu@@QAEXXZ 005197e0 f   mmwidget:menu.obj
 0001:00118810       ?ClearWidgets@UIMenu@@QAEXXZ 00519810 f   mmwidget:menu.obj
 0001:00118840       ?CheckMouseHits@UIMenu@@QAEXXZ 00519840 f   mmwidget:menu.obj
 0001:001189a0       ?AddWidget@UIMenu@@QAEXPAVuiWidget@@PADMMMMH1@Z 005199a0 f   mmwidget:menu.obj
 0001:00118ba0       ??_GUIMenu@@UAEPAXI@Z      00519ba0 f i mmwidget:menu.obj
 0001:00118ba0       ??_EUIMenu@@UAEPAXI@Z      00519ba0 f i mmwidget:menu.obj
 0001:00118bd0       ?IsAnOptionMenu@UIMenu@@UAEHXZ 00519bd0 f i mmwidget:menu.obj
 0001:00118be0       ??0string@@QAE@ABV0@@Z     00519be0 f i mmwidget:menu.obj
 0001:00118c50       ??0uiNavBar@@QAE@H@Z       00519c50 f   mmwidget:navbar.obj
 0001:00118e80       ?Help@uiNavBar@@QAEXXZ     00519e80 f   mmwidget:navbar.obj
 0001:00118e90       ?Minimize@uiNavBar@@QAEXXZ 00519e90 f   mmwidget:navbar.obj
 0001:00118ec0       ??1uiNavBar@@UAE@XZ        00519ec0 f   mmwidget:navbar.obj
 0001:00118ed0       ?ResetState@uiNavBar@@QAEXXZ 00519ed0 f   mmwidget:navbar.obj
 0001:00118ee0       ?OptionActive@uiNavBar@@QAEXXZ 00519ee0 f   mmwidget:navbar.obj
 0001:00118f00       ?OptionInActive@uiNavBar@@QAEXXZ 00519f00 f   mmwidget:navbar.obj
 0001:00118f20       ?Update@uiNavBar@@UAEXXZ   00519f20 f   mmwidget:navbar.obj
 0001:00118fc0       ?SetPrevPos@uiNavBar@@QAEXMM@Z 00519fc0 f   mmwidget:navbar.obj
 0001:00119010       ?TurnOnPrev@uiNavBar@@QAEXXZ 0051a010 f   mmwidget:navbar.obj
 0001:00119030       ?TurnOffPrev@uiNavBar@@QAEXXZ 0051a030 f   mmwidget:navbar.obj
 0001:00119050       ?SetPrevBitmap@uiNavBar@@QAEXPAD@Z 0051a050 f   mmwidget:navbar.obj
 0001:00119070       ??_EuiNavBar@@UAEPAXI@Z    0051a070 f i mmwidget:navbar.obj
 0001:00119070       ??_GuiNavBar@@UAEPAXI@Z    0051a070 f i mmwidget:navbar.obj
 0001:001190a0       ?BackUp@uiNavBar@@UAEXXZ   0051a0a0 f i mmwidget:navbar.obj
 0001:001190b0       ??0UITextField@@QAE@XZ     0051a0b0 f   mmwidget:textfield.obj
 0001:001191d0       ??1UITextField@@UAE@XZ     0051a1d0 f   mmwidget:textfield.obj
 0001:00119240       ?Init@UITextField@@QAEXPAULocString@@PADMMMMHHHHHVdatCallback@@PAVUIMenu@@@Z 0051a240 f   mmwidget:textfield.obj
 0001:00119540       ?SetText@UITextField@@QAEXPAULocString@@@Z 0051a540 f   mmwidget:textfield.obj
 0001:00119560       ?SetField@UITextField@@QAEXPAD@Z 0051a560 f   mmwidget:textfield.obj
 0001:001195c0       ?CaptureAction@UITextField@@UAEXTeqEvent@@@Z 0051a5c0 f   mmwidget:textfield.obj
 0001:001195d0       ?Action@UITextField@@UAEXTeqEvent@@@Z 0051a5d0 f   mmwidget:textfield.obj
 0001:00119620       ?ClearField@UITextField@@QAEXXZ 0051a620 f   mmwidget:textfield.obj
 0001:00119680       ?SetTextField@UITextField@@QAEXXZ 0051a680 f   mmwidget:textfield.obj
 0001:001196d0       ?ToggleField@UITextField@@QAEXH@Z 0051a6d0 f   mmwidget:textfield.obj
 0001:00119820       ?Switch@UITextField@@UAEXH@Z 0051a820 f   mmwidget:textfield.obj
 0001:001198d0       ?IsValidChar@UITextField@@QAEHG@Z 0051a8d0 f   mmwidget:textfield.obj
 0001:00119990       ?WmCharHandler@UITextField@@QAEXE@Z 0051a990 f   mmwidget:textfield.obj
 0001:00119b10       ?KeyAction@UITextField@@QAEXPATeqEvent@@@Z 0051ab10 f   mmwidget:textfield.obj
 0001:00119c20       ?SetCompositionWindow@UITextField@@QAEXXZ 0051ac20 f   mmwidget:textfield.obj
 0001:00119d10       ??_GUITextField@@UAEPAXI@Z 0051ad10 f i mmwidget:textfield.obj
 0001:00119d10       ??_EUITextField@@UAEPAXI@Z 0051ad10 f i mmwidget:textfield.obj
 0001:00119d40       ??1uiWidget@@UAE@XZ        0051ad40 f i mmwidget:textfield.obj
 0001:00119d50       ?Disable@uiWidget@@UAEXXZ  0051ad50 f i mmwidget:textfield.obj
 0001:00119d60       ?Enable@uiWidget@@UAEXXZ   0051ad60 f i mmwidget:textfield.obj
 0001:00119d70       ?TurnOn@uiWidget@@UAEXXZ   0051ad70 f i mmwidget:textfield.obj
 0001:00119d90       ?TurnOff@uiWidget@@UAEXXZ  0051ad90 f i mmwidget:textfield.obj
 0001:00119da0       ?SetReadOnly@uiWidget@@UAEXH@Z 0051ada0 f i mmwidget:textfield.obj
 0001:00119dc0       ?Action@uiWidget@@UAEXTeqEvent@@@Z 0051adc0 f i mmwidget:textfield.obj
 0001:00119dd0       ?CaptureAction@uiWidget@@UAEXTeqEvent@@@Z 0051add0 f i mmwidget:textfield.obj
 0001:00119de0       ?EvalMouseX@uiWidget@@UAEXM@Z 0051ade0 f i mmwidget:textfield.obj
 0001:00119df0       ?ReturnDescription@uiWidget@@UAEPADXZ 0051adf0 f i mmwidget:textfield.obj
 0001:00119e00       ?SetPosition@uiWidget@@UAEXMM@Z 0051ae00 f i mmwidget:textfield.obj
 0001:00119e10       ?GetScreenHeight@uiWidget@@UAEMXZ 0051ae10 f i mmwidget:textfield.obj
 0001:00119e20       ??_GuiWidget@@UAEPAXI@Z    0051ae20 f i mmwidget:textfield.obj
 0001:00119e20       ??_EuiWidget@@UAEPAXI@Z    0051ae20 f i mmwidget:textfield.obj
 0001:00119e50       ?Update@UITextField@@UAEXXZ 0051ae50 f i mmwidget:textfield.obj
 0001:00119e60       ??0uiWidget@@QAE@XZ        0051ae60 f   mmwidget:widget.obj
 0001:00119e90       ?AddToolTip@uiWidget@@QAEXPAVUIMenu@@PAULocString@@@Z 0051ae90 f   mmwidget:widget.obj
 0001:00119ea0       ?Switch@uiWidget@@UAEXH@Z  0051aea0 f   mmwidget:widget.obj
 0001:00119ec0       ?ResetToolTip@uiWidget@@QAEXXZ 0051aec0 f   mmwidget:widget.obj
 0001:00119ed0       ?SetToolTipText@uiWidget@@QAEXPAULocString@@@Z 0051aed0 f   mmwidget:widget.obj
 0001:00119ef0       ??0sfPointer@@QAE@XZ       0051aef0 f   mmwidget:pointer.obj
 0001:00119f60       ??1sfPointer@@UAE@XZ       0051af60 f   mmwidget:pointer.obj
 0001:00119fc0       ?Init@sfPointer@@QAEXXZ    0051afc0 f   mmwidget:pointer.obj
 0001:00119fe0       ?ResChange@sfPointer@@UAEXHH@Z 0051afe0 f   mmwidget:pointer.obj
 0001:0011a040       ?GetPointerHeight@sfPointer@@QAEMXZ 0051b040 f   mmwidget:pointer.obj
 0001:0011a050       ?Update@sfPointer@@UAEXXZ  0051b050 f   mmwidget:pointer.obj
 0001:0011a250       ?UpdateAttached@sfPointer@@AAEXXZ 0051b250 f   mmwidget:pointer.obj
 0001:0011a260       ?WaitForRelease@sfPointer@@QAEXXZ 0051b260 f   mmwidget:pointer.obj
 0001:0011a270       ?Cull@sfPointer@@UAEXXZ    0051b270 f   mmwidget:pointer.obj
 0001:0011a2e0       ??_GsfPointer@@UAEPAXI@Z   0051b2e0 f i mmwidget:pointer.obj
 0001:0011a2e0       ??_EsfPointer@@UAEPAXI@Z   0051b2e0 f i mmwidget:pointer.obj
 0001:0011a310       ??0UIIcon@@QAE@XZ          0051b310 f   mmwidget:icon.obj
 0001:0011a360       ??1UIIcon@@UAE@XZ          0051b360 f   mmwidget:icon.obj
 0001:0011a370       ?Init@UIIcon@@QAEXPADMM@Z  0051b370 f   mmwidget:icon.obj
 0001:0011a3b0       ?LoadBitchmap@UIIcon@@QAEXPAD@Z 0051b3b0 f   mmwidget:icon.obj
 0001:0011a3c0       ?LoadBitmap@UIIcon@@QAEXPAD@Z 0051b3c0 f   mmwidget:icon.obj
 0001:0011a420       ?GetHitArea@UIIcon@@QAEXAAM0@Z 0051b420 f   mmwidget:icon.obj
 0001:0011a460       ?Switch@UIIcon@@UAEXH@Z    0051b460 f   mmwidget:icon.obj
 0001:0011a4a0       ?Update@UIIcon@@UAEXXZ     0051b4a0 f   mmwidget:icon.obj
 0001:0011a4c0       ?Cull@UIIcon@@UAEXXZ       0051b4c0 f   mmwidget:icon.obj
 0001:0011a4f0       ??_GUIIcon@@UAEPAXI@Z      0051b4f0 f i mmwidget:icon.obj
 0001:0011a4f0       ??_EUIIcon@@UAEPAXI@Z      0051b4f0 f i mmwidget:icon.obj
 0001:0011a520       ??0UITextDropdown@@QAE@XZ  0051b520 f   mmwidget:textdrop.obj
 0001:0011a5c0       ??1UITextDropdown@@UAE@XZ  0051b5c0 f   mmwidget:textdrop.obj
 0001:0011a630       ?Init@UITextDropdown@@QAEXPAULocString@@PAHMMMMVstring@@HHHVdatCallback@@PAD3@Z 0051b630 f   mmwidget:textdrop.obj
 0001:0011aa00       ?GetScreenHeight@UITextDropdown@@UAEMXZ 0051ba00 f   mmwidget:textdrop.obj
 0001:0011aa10       ?SetPos@UITextDropdown@@QAEXMM@Z 0051ba10 f   mmwidget:textdrop.obj
 0001:0011aa20       ?AssignString@UITextDropdown@@QAEXVstring@@@Z 0051ba20 f   mmwidget:textdrop.obj
 0001:0011aad0       ?SetData@UITextDropdown@@QAEXPAH@Z 0051bad0 f   mmwidget:textdrop.obj
 0001:0011ab00       ?Update@UITextDropdown@@UAEXXZ 0051bb00 f   mmwidget:textdrop.obj
 0001:0011ab70       ?SetText@UITextDropdown@@QAEXPAULocString@@@Z 0051bb70 f   mmwidget:textdrop.obj
 0001:0011ab80       ?CaptureAction@UITextDropdown@@UAEXTeqEvent@@@Z 0051bb80 f   mmwidget:textdrop.obj
 0001:0011adf0       ?inRange@@YAHMMM@Z         0051bdf0 f   mmwidget:textdrop.obj
 0001:0011ae50       ?Action@UITextDropdown@@UAEXTeqEvent@@@Z 0051be50 f   mmwidget:textdrop.obj
 0001:0011af00       ?Switch@UITextDropdown@@UAEXH@Z 0051bf00 f   mmwidget:textdrop.obj
 0001:0011af90       ?SetSliderFocus@UITextDropdown@@QAEXH@Z 0051bf90 f   mmwidget:textdrop.obj
 0001:0011b040       ?GetValue@UITextDropdown@@QAEHXZ 0051c040 f   mmwidget:textdrop.obj
 0001:0011b050       ?SetValue@UITextDropdown@@QAEHH@Z 0051c050 f   mmwidget:textdrop.obj
 0001:0011b080       ?SetDisabledMask@UITextDropdown@@QAEXJ@Z 0051c080 f   mmwidget:textdrop.obj
 0001:0011b0a0       ?AnyEnabled@UITextDropdown@@QAEHXZ 0051c0a0 f   mmwidget:textdrop.obj
 0001:0011b0b0       ?Cull@UITextDropdown@@UAEXXZ 0051c0b0 f   mmwidget:textdrop.obj
 0001:0011b110       ??_EUITextDropdown@@UAEPAXI@Z 0051c110 f i mmwidget:textdrop.obj
 0001:0011b110       ??_GUITextDropdown@@UAEPAXI@Z 0051c110 f i mmwidget:textdrop.obj
 0001:0011b140       ?GetWidth@gfxPipeline@@SAHXZ 0051c140 f i mmwidget:textdrop.obj
 0001:0011b150       ??0UITextRoller@@QAE@XZ    0051c150 f   mmwidget:textroller.obj
 0001:0011b220       ??1UITextRoller@@UAE@XZ    0051c220 f   mmwidget:textroller.obj
 0001:0011b290       ?Init@UITextRoller@@QAEXPAULocString@@PAHMMMMVstring@@HHHHVdatCallback@@PAVUIMenu@@@Z 0051c290 f   mmwidget:textroller.obj
 0001:0011b720       ?Update@UITextRoller@@UAEXXZ 0051c720 f   mmwidget:textroller.obj
 0001:0011b780       ?Switch@UITextRoller@@UAEXH@Z 0051c780 f   mmwidget:textroller.obj
 0001:0011b7b0       ?Action@UITextRoller@@UAEXTeqEvent@@@Z 0051c7b0 f   mmwidget:textroller.obj
 0001:0011b8a0       ?EvalMouseXY@UITextRoller@@QAEXMM@Z 0051c8a0 f   mmwidget:textroller.obj
 0001:0011b980       ?SetValue@UITextRoller@@QAEHH@Z 0051c980 f   mmwidget:textroller.obj
 0001:0011ba20       ?SetString@UITextRoller@@QAEXVstring@@@Z 0051ca20 f   mmwidget:textroller.obj
 0001:0011baf0       ?SetText@UITextRoller@@QAEXXZ 0051caf0 f   mmwidget:textroller.obj
 0001:0011bb60       ?Inc@UITextRoller@@QAEHXZ  0051cb60 f   mmwidget:textroller.obj
 0001:0011bb80       ?Dec@UITextRoller@@QAEHXZ  0051cb80 f   mmwidget:textroller.obj
 0001:0011bba0       ?Cull@UITextRoller@@UAEXXZ 0051cba0 f   mmwidget:textroller.obj
 0001:0011bc40       ??_EUITextRoller@@UAEPAXI@Z 0051cc40 f i mmwidget:textroller.obj
 0001:0011bc40       ??_GUITextRoller@@UAEPAXI@Z 0051cc40 f i mmwidget:textroller.obj
 0001:0011bc70       ??0UITextRoller2@@QAE@XZ   0051cc70 f   mmwidget:textroller2.obj
 0001:0011bd20       ??1UITextRoller2@@UAE@XZ   0051cd20 f   mmwidget:textroller2.obj
 0001:0011bd90       ?Init@UITextRoller2@@QAEXPAULocString@@PAHMMMMVstring@@HHHHVdatCallback@@PAVUIMenu@@@Z 0051cd90 f   mmwidget:textroller2.obj
 0001:0011c450       ?Update@UITextRoller2@@UAEXXZ 0051d450 f   mmwidget:textroller2.obj
 0001:0011c4b0       ?Switch@UITextRoller2@@UAEXH@Z 0051d4b0 f   mmwidget:textroller2.obj
 0001:0011c550       ?Action@UITextRoller2@@UAEXTeqEvent@@@Z 0051d550 f   mmwidget:textroller2.obj
 0001:0011c640       ?EvalMouseXY@UITextRoller2@@QAEXMM@Z 0051d640 f   mmwidget:textroller2.obj
 0001:0011c710       ?SetValue@UITextRoller2@@QAEHH@Z 0051d710 f   mmwidget:textroller2.obj
 0001:0011c7c0       ?SetString@UITextRoller2@@QAEXVstring@@@Z 0051d7c0 f   mmwidget:textroller2.obj
 0001:0011c890       ?SetData@UITextRoller2@@QAEXPAH@Z 0051d890 f   mmwidget:textroller2.obj
 0001:0011c8b0       ?SetText@UITextRoller2@@QAEXXZ 0051d8b0 f   mmwidget:textroller2.obj
 0001:0011c920       ?Inc@UITextRoller2@@QAEHXZ 0051d920 f   mmwidget:textroller2.obj
 0001:0011c950       ?Dec@UITextRoller2@@QAEHXZ 0051d950 f   mmwidget:textroller2.obj
 0001:0011c980       ?Cull@UITextRoller2@@UAEXXZ 0051d980 f   mmwidget:textroller2.obj
 0001:0011ca60       ??_EUITextRoller2@@UAEPAXI@Z 0051da60 f i mmwidget:textroller2.obj
 0001:0011ca60       ??_GUITextRoller2@@UAEPAXI@Z 0051da60 f i mmwidget:textroller2.obj
 0001:0011ca90       ??0UITextScroll@@QAE@XZ    0051da90 f   mmwidget:tscroll.obj
 0001:0011cba0       ??1UITextScroll@@UAE@XZ    0051dba0 f   mmwidget:tscroll.obj
 0001:0011cc20       ?Init@UITextScroll@@QAEXPAXMMMMVstring@@HPAHVdatCallback@@@Z 0051dc20 f   mmwidget:tscroll.obj
 0001:0011cf80       ?InitVScroll@UITextScroll@@QAEXMMM@Z 0051df80 f   mmwidget:tscroll.obj
 0001:0011cf90       ?VScrollCB@UITextScroll@@QAEXXZ 0051df90 f   mmwidget:tscroll.obj
 0001:0011cfd0       ?SetVScrollVals@UITextScroll@@QAEXXZ 0051dfd0 f   mmwidget:tscroll.obj
 0001:0011cff0       ?SetVScrollPos@UITextScroll@@QAEXXZ 0051dff0 f   mmwidget:tscroll.obj
 0001:0011d020       ?Recalc@UITextScroll@@QAEXVstring@@@Z 0051e020 f   mmwidget:tscroll.obj
 0001:0011d1a0       ?FillScroll@UITextScroll@@AAEXXZ 0051e1a0 f   mmwidget:tscroll.obj
 0001:0011d280       ?GetCurrentString@UITextScroll@@QAEXPADH@Z 0051e280 f   mmwidget:tscroll.obj
 0001:0011d2d0       ?SetHighlight@UITextScroll@@QAEXH@Z 0051e2d0 f   mmwidget:tscroll.obj
 0001:0011d320       ?GetHit@UITextScroll@@QAEHMM@Z 0051e320 f   mmwidget:tscroll.obj
 0001:0011d3a0       ?KeyAction@UITextScroll@@AAEXXZ 0051e3a0 f   mmwidget:tscroll.obj
 0001:0011d400       ?Action@UITextScroll@@UAEXTeqEvent@@@Z 0051e400 f   mmwidget:tscroll.obj
 0001:0011d4c0       ?Switch@UITextScroll@@UAEXH@Z 0051e4c0 f   mmwidget:tscroll.obj
 0001:0011d500       ?SetTextColor@UITextScroll@@AAEXXZ 0051e500 f   mmwidget:tscroll.obj
 0001:0011d560       ?SetText@UITextScroll@@QAEXHPAULocString@@@Z 0051e560 f   mmwidget:tscroll.obj
 0001:0011d5a0       ?ResetTextScroll@UITextScroll@@AAEXXZ 0051e5a0 f   mmwidget:tscroll.obj
 0001:0011d620       ?InitTextScroll@UITextScroll@@AAEXVstring@@@Z 0051e620 f   mmwidget:tscroll.obj
 0001:0011d750       ?AddTextScrollLine@UITextScroll@@AAEXPADH@Z 0051e750 f   mmwidget:tscroll.obj
 0001:0011d7d0       ?AddTextScrollLine@UITextScroll@@AAEXPAD@Z 0051e7d0 f   mmwidget:tscroll.obj
 0001:0011d870       ??_GUITextScroll@@UAEPAXI@Z 0051e870 f i mmwidget:tscroll.obj
 0001:0011d870       ??_EUITextScroll@@UAEPAXI@Z 0051e870 f i mmwidget:tscroll.obj
 0001:0011d8a0       ??0UICompositeScroll@@QAE@XZ 0051e8a0 f   mmwidget:compscroll.obj
 0001:0011d990       ??1UICompositeScroll@@UAE@XZ 0051e990 f   mmwidget:compscroll.obj
 0001:0011da10       ?Init@UICompositeScroll@@QAEXMMMMMHPAHHHVdatCallback@@@Z 0051ea10 f   mmwidget:compscroll.obj
 0001:0011dc40       ?InitVScroll@UICompositeScroll@@QAEXMMM@Z 0051ec40 f   mmwidget:compscroll.obj
 0001:0011dcc0       ?RemoveAllComponentChildren@UICompositeScroll@@QAEXXZ 0051ecc0 f   mmwidget:compscroll.obj
 0001:0011dd20       ?AddComponent@UICompositeScroll@@QAEXPAVmmCompBase@@@Z 0051ed20 f   mmwidget:compscroll.obj
 0001:0011ddf0       ?AddTitle@UICompositeScroll@@QAEXPAVmmCompBase@@@Z 0051edf0 f   mmwidget:compscroll.obj
 0001:0011de10       ?GetSelectedCount@UICompositeScroll@@QAEHXZ 0051ee10 f   mmwidget:compscroll.obj
 0001:0011de60       ?Redraw@UICompositeScroll@@QAEXXZ 0051ee60 f   mmwidget:compscroll.obj
 0001:0011df90       ?VScrollCB@UICompositeScroll@@QAEXXZ 0051ef90 f   mmwidget:compscroll.obj
 0001:0011e000       ?SetVScrollVals@UICompositeScroll@@QAEXXZ 0051f000 f   mmwidget:compscroll.obj
 0001:0011e050       ?SetVScrollPos@UICompositeScroll@@QAEXXZ 0051f050 f   mmwidget:compscroll.obj
 0001:0011e080       ?Reset@UICompositeScroll@@UAEXXZ 0051f080 f   mmwidget:compscroll.obj
 0001:0011e0a0       ?Update@UICompositeScroll@@UAEXXZ 0051f0a0 f   mmwidget:compscroll.obj
 0001:0011e0b0       ?GetHit@UICompositeScroll@@QAEHMM@Z 0051f0b0 f   mmwidget:compscroll.obj
 0001:0011e130       ?Action@UICompositeScroll@@UAEXTeqEvent@@@Z 0051f130 f   mmwidget:compscroll.obj
 0001:0011e540       ?CaptureAction@UICompositeScroll@@UAEXTeqEvent@@@Z 0051f540 f   mmwidget:compscroll.obj
 0001:0011e5b0       ?Switch@UICompositeScroll@@UAEXH@Z 0051f5b0 f   mmwidget:compscroll.obj
 0001:0011e5f0       ?Clear@UICompositeScroll@@QAEXXZ 0051f5f0 f   mmwidget:compscroll.obj
 0001:0011e600       ?SetHighlight@UICompositeScroll@@QAEXH@Z 0051f600 f   mmwidget:compscroll.obj
 0001:0011e620       ?SetHighlightComp@UICompositeScroll@@QAEXXZ 0051f620 f   mmwidget:compscroll.obj
 0001:0011e6c0       ?GetHeight@UICompositeScroll@@QAEMXZ 0051f6c0 f   mmwidget:compscroll.obj
 0001:0011e6e0       ?SetPosition@UICompositeScroll@@QAEXH@Z 0051f6e0 f   mmwidget:compscroll.obj
 0001:0011e720       ??_GUICompositeScroll@@UAEPAXI@Z 0051f720 f i mmwidget:compscroll.obj
 0001:0011e720       ??_EUICompositeScroll@@UAEPAXI@Z 0051f720 f i mmwidget:compscroll.obj
 0001:0011e750       ??0UIControlWidget@@QAE@XZ 0051f750 f   mmwidget:controlwidget.obj
 0001:0011e860       ??1UIControlWidget@@UAE@XZ 0051f860 f   mmwidget:controlwidget.obj
 0001:0011e900       ?Init@UIControlWidget@@QAEXMMMMMPAVmmIO@@VdatCallback@@@Z 0051f900 f   mmwidget:controlwidget.obj
 0001:0011ea80       ?SetPosition@UIControlWidget@@QAEXMMMM@Z 0051fa80 f   mmwidget:controlwidget.obj
 0001:0011eb40       ?Update@UIControlWidget@@UAEXXZ 0051fb40 f   mmwidget:controlwidget.obj
 0001:0011eb60       ?UpdateField@UIControlWidget@@QAEXXZ 0051fb60 f   mmwidget:controlwidget.obj
 0001:0011eb90       ?Action@UIControlWidget@@UAEXTeqEvent@@@Z 0051fb90 f   mmwidget:controlwidget.obj
 0001:0011ebe0       ?Switch@UIControlWidget@@UAEXH@Z 0051fbe0 f   mmwidget:controlwidget.obj
 0001:0011ec50       ?EnableField@UIControlWidget@@QAEXXZ 0051fc50 f   mmwidget:controlwidget.obj
 0001:0011ecb0       ?DisableField@UIControlWidget@@QAEXXZ 0051fcb0 f   mmwidget:controlwidget.obj
 0001:0011ed00       ??_GUIControlWidget@@UAEPAXI@Z 0051fd00 f i mmwidget:controlwidget.obj
 0001:0011ed30       ?TurnOn@UIControlWidget@@UAEXXZ 0051fd30 f i mmwidget:controlwidget.obj
 0001:0011ed40       ?TurnOff@UIControlWidget@@UAEXXZ 0051fd40 f i mmwidget:controlwidget.obj
 0001:0011ed50       ??0UISlider@@QAE@XZ        0051fd50 f   mmwidget:slider.obj
 0001:0011edf0       ??1UISlider@@UAE@XZ        0051fdf0 f   mmwidget:slider.obj
 0001:0011ee60       ?Init@UISlider@@QAEXPAULocString@@PAMMMMMMMHHHHVdatCallback@@PAVUIMenu@@2@Z 0051fe60 f   mmwidget:slider.obj
 0001:0011f090       ?SetPosition@UISlider@@UAEXMM@Z 00520090 f   mmwidget:slider.obj
 0001:0011f1c0       ?SetText@UISlider@@QAEXPAULocString@@@Z 005201c0 f   mmwidget:slider.obj
 0001:0011f1d0       ?Update@UISlider@@UAEXXZ   005201d0 f   mmwidget:slider.obj
 0001:0011f230       ?Action@UISlider@@UAEXTeqEvent@@@Z 00520230 f   mmwidget:slider.obj
 0001:0011f2f0       ?Switch@UISlider@@UAEXH@Z  005202f0 f   mmwidget:slider.obj
 0001:0011f370       ?TestHit@UISlider@@QAEHMM@Z 00520370 f   mmwidget:slider.obj
 0001:0011f380       ?SetReadWrite@UISlider@@QAEXH@Z 00520380 f   mmwidget:slider.obj
 0001:0011f3c0       ?IsReadWrite@UISlider@@QAEHXZ 005203c0 f   mmwidget:slider.obj
 0001:0011f3d0       ?GetValue@UISlider@@QAEMXZ 005203d0 f   mmwidget:slider.obj
 0001:0011f3e0       ?SetValue@UISlider@@QAEMM@Z 005203e0 f   mmwidget:slider.obj
 0001:0011f410       ?SetMouseParams@UISlider@@QAEXM@Z 00520410 f   mmwidget:slider.obj
 0001:0011f460       ?EvalMouseXY@UISlider@@QAEXMM@Z 00520460 f   mmwidget:slider.obj
 0001:0011f570       ?SetData@UISlider@@QAEXM@Z 00520570 f   mmwidget:slider.obj
 0001:0011f590       ?GetFudgeWidth@UISlider@@QAEMXZ 00520590 f   mmwidget:slider.obj
 0001:0011f5a0       ??_GUISlider@@UAEPAXI@Z    005205a0 f i mmwidget:slider.obj
 0001:0011f5a0       ??_EUISlider@@UAEPAXI@Z    005205a0 f i mmwidget:slider.obj
 0001:0011f5d0       ?GetScreenHeight@UISlider@@UAEMXZ 005205d0 f i mmwidget:slider.obj
 0001:0011f5e0       ??0UIButton@@QAE@XZ        005205e0 f   mmwidget:button.obj
 0001:0011f670       ??1UIButton@@UAE@XZ        00520670 f   mmwidget:button.obj
 0001:0011f6e0       ?Init@UIButton@@QAEXPAULocString@@HMMMMHVdatCallback@@@Z 005206e0 f   mmwidget:button.obj
 0001:0011f7b0       ?Update@UIButton@@UAEXXZ   005207b0 f   mmwidget:button.obj
 0001:0011f7c0       ?SetString@UIButton@@QAEXPAULocString@@@Z 005207c0 f   mmwidget:button.obj
 0001:0011f7e0       ?DrawOff@UIButton@@AAEXXZ  005207e0 f   mmwidget:button.obj
 0001:0011f810       ?DrawOn@UIButton@@AAEXXZ   00520810 f   mmwidget:button.obj
 0001:0011f840       ?Action@UIButton@@UAEXTeqEvent@@@Z 00520840 f   mmwidget:button.obj
 0001:0011f890       ?SetReadOnly@UIButton@@UAEXH@Z 00520890 f   mmwidget:button.obj
 0001:0011f8d0       ?Switch@UIButton@@UAEXH@Z  005208d0 f   mmwidget:button.obj
 0001:0011f940       ?SetType@UIButton@@QAEXH@Z 00520940 f   mmwidget:button.obj
 0001:0011f990       ?TestHit@UIButton@@QAEHMM@Z 00520990 f   mmwidget:button.obj
 0001:0011f9a0       ??_GUIButton@@UAEPAXI@Z    005209a0 f i mmwidget:button.obj
 0001:0011f9a0       ??_EUIButton@@UAEPAXI@Z    005209a0 f i mmwidget:button.obj
 0001:0011f9d0       ?Enable@UIButton@@UAEXXZ   005209d0 f i mmwidget:button.obj
 0001:0011f9f0       ?Disable@UIButton@@UAEXXZ  005209f0 f i mmwidget:button.obj
 0001:0011fa00       ??0UILabel@@QAE@XZ         00520a00 f   mmwidget:label.obj
 0001:0011fa80       ??1UILabel@@UAE@XZ         00520a80 f   mmwidget:label.obj
 0001:0011fae0       ?Init@UILabel@@QAEXPAULocString@@HMMMMH@Z 00520ae0 f   mmwidget:label.obj
 0001:0011fba0       ?SetText@UILabel@@QAEXPAULocString@@@Z 00520ba0 f   mmwidget:label.obj
 0001:0011fbc0       ?Update@UILabel@@UAEXXZ    00520bc0 f   mmwidget:label.obj
 0001:0011fc00       ?SetBlink@UILabel@@QAEXH@Z 00520c00 f   mmwidget:label.obj
 0001:0011fc30       ?Switch@UILabel@@UAEXH@Z   00520c30 f   mmwidget:label.obj
 0001:0011fc40       ?SwitchState@UILabel@@QAEXH@Z 00520c40 f   mmwidget:label.obj
 0001:0011fc90       ??_EUILabel@@UAEPAXI@Z     00520c90 f i mmwidget:label.obj
 0001:0011fc90       ??_GUILabel@@UAEPAXI@Z     00520c90 f i mmwidget:label.obj
 0001:0011fcc0       ?Action@UILabel@@UAEXTeqEvent@@@Z 00520cc0 f i mmwidget:label.obj
 0001:0011fcd0       ??0UIBMLabel@@QAE@XZ       00520cd0 f   mmwidget:bm_label.obj
 0001:0011fd40       ??1UIBMLabel@@UAE@XZ       00520d40 f   mmwidget:bm_label.obj
 0001:0011fdc0       ?Init@UIBMLabel@@QAEXPAVstring@@MMPAH@Z 00520dc0 f   mmwidget:bm_label.obj
 0001:0011fe80       ?SetBitmapName@UIBMLabel@@QAEXPAVstring@@@Z 00520e80 f   mmwidget:bm_label.obj
 0001:0011ff20       ?LoadBitmap@UIBMLabel@@AAEXXZ 00520f20 f   mmwidget:bm_label.obj
 0001:0011fff0       ?Update@UIBMLabel@@UAEXXZ  00520ff0 f   mmwidget:bm_label.obj
 0001:00120020       ?Cull@UIBMLabel@@UAEXXZ    00521020 f   mmwidget:bm_label.obj
 0001:00120050       ??_EUIBMLabel@@UAEPAXI@Z   00521050 f i mmwidget:bm_label.obj
 0001:00120050       ??_GUIBMLabel@@UAEPAXI@Z   00521050 f i mmwidget:bm_label.obj
 0001:00120080       ??0UIIconW@@QAE@XZ         00521080 f   mmwidget:iconwidget.obj
 0001:00120140       ??1UIIconW@@UAE@XZ         00521140 f   mmwidget:iconwidget.obj
 0001:001201b0       ?Init@UIIconW@@QAEXPAULocString@@PADMMMMVdatCallback@@@Z 005211b0 f   mmwidget:iconwidget.obj
 0001:001202a0       ?Action@UIIconW@@UAEXTeqEvent@@@Z 005212a0 f   mmwidget:iconwidget.obj
 0001:00120300       ?Update@UIIconW@@UAEXXZ    00521300 f   mmwidget:iconwidget.obj
 0001:00120380       ?Switch@UIIconW@@UAEXH@Z   00521380 f   mmwidget:iconwidget.obj
 0001:001203f0       ??_EUIIconW@@UAEPAXI@Z     005213f0 f i mmwidget:iconwidget.obj
 0001:001203f0       ??_GUIIconW@@UAEPAXI@Z     005213f0 f i mmwidget:iconwidget.obj
 0001:00120420       ??0UIToggleButton@@QAE@XZ  00521420 f   mmwidget:togglebutton.obj
 0001:001204a0       ??1UIToggleButton@@UAE@XZ  005214a0 f   mmwidget:togglebutton.obj
 0001:00120510       ?Init@UIToggleButton@@QAEXPAULocString@@PAHMMMMHHVdatCallback@@@Z 00521510 f   mmwidget:togglebutton.obj
 0001:001205b0       ?DrawOff@UIToggleButton@@MAEXXZ 005215b0 f   mmwidget:togglebutton.obj
 0001:001205d0       ?DrawOn@UIToggleButton@@MAEXXZ 005215d0 f   mmwidget:togglebutton.obj
 0001:001205f0       ?DoToggle@UIToggleButton@@UAEXXZ 005215f0 f   mmwidget:togglebutton.obj
 0001:00120610       ?Action@UIToggleButton@@UAEXTeqEvent@@@Z 00521610 f   mmwidget:togglebutton.obj
 0001:00120690       ??_EUIToggleButton@@UAEPAXI@Z 00521690 f i mmwidget:togglebutton.obj
 0001:00120690       ??_GUIToggleButton@@UAEPAXI@Z 00521690 f i mmwidget:togglebutton.obj
 0001:001206c0       ?Update@UIToggleButton@@UAEXXZ 005216c0 f i mmwidget:togglebutton.obj
 0001:001206d0       ??0UIToggleButton2@@QAE@XZ 005216d0 f   mmwidget:togglebutton2.obj
 0001:00120750       ??1UIToggleButton2@@UAE@XZ 00521750 f   mmwidget:togglebutton2.obj
 0001:00120760       ?Init@UIToggleButton2@@QAEXPAULocString@@PAHMMMMHHVdatCallback@@@Z 00521760 f   mmwidget:togglebutton2.obj
 0001:00120830       ?DrawOff@UIToggleButton2@@MAEXXZ 00521830 f   mmwidget:togglebutton2.obj
 0001:00120870       ?DrawOn@UIToggleButton2@@MAEXXZ 00521870 f   mmwidget:togglebutton2.obj
 0001:001208b0       ?Unkill@UIToggleButton2@@QAEXXZ 005218b0 f   mmwidget:togglebutton2.obj
 0001:001208e0       ?DoToggle@UIToggleButton2@@UAEXXZ 005218e0 f   mmwidget:togglebutton2.obj
 0001:00120900       ?Action@UIToggleButton2@@UAEXTeqEvent@@@Z 00521900 f   mmwidget:togglebutton2.obj
 0001:00120980       ?Switch@UIToggleButton2@@UAEXH@Z 00521980 f   mmwidget:togglebutton2.obj
 0001:001209f0       ??_EUIToggleButton2@@UAEPAXI@Z 005219f0 f i mmwidget:togglebutton2.obj
 0001:001209f0       ??_GUIToggleButton2@@UAEPAXI@Z 005219f0 f i mmwidget:togglebutton2.obj
 0001:00120a20       ?Update@UIToggleButton2@@UAEXXZ 00521a20 f i mmwidget:togglebutton2.obj
 0001:00120a30       ?Enable@UIToggleButton2@@UAEXXZ 00521a30 f i mmwidget:togglebutton2.obj
 0001:00120a40       ?Disable@UIToggleButton2@@UAEXXZ 00521a40 f i mmwidget:togglebutton2.obj
 0001:00120a50       ??0UIMexButton@@QAE@XZ     00521a50 f   mmwidget:mexbutton.obj
 0001:00120ad0       ??1UIMexButton@@UAE@XZ     00521ad0 f   mmwidget:mexbutton.obj
 0001:00120ae0       ?Init@UIMexButton@@QAEXPAULocString@@PAHHMMMMHHVdatCallback@@@Z 00521ae0 f   mmwidget:mexbutton.obj
 0001:00120ba0       ?Update@UIMexButton@@UAEXXZ 00521ba0 f   mmwidget:mexbutton.obj
 0001:00120bf0       ?DrawOff@UIMexButton@@EAEXXZ 00521bf0 f   mmwidget:mexbutton.obj
 0001:00120c00       ?DrawOn@UIMexButton@@EAEXXZ 00521c00 f   mmwidget:mexbutton.obj
 0001:00120c30       ?DoToggle@UIMexButton@@UAEXXZ 00521c30 f   mmwidget:mexbutton.obj
 0001:00120c50       ?Action@UIMexButton@@UAEXTeqEvent@@@Z 00521c50 f   mmwidget:mexbutton.obj
 0001:00120cd0       ??_EUIMexButton@@UAEPAXI@Z 00521cd0 f i mmwidget:mexbutton.obj
 0001:00120cd0       ??_GUIMexButton@@UAEPAXI@Z 00521cd0 f i mmwidget:mexbutton.obj
 0001:00120d00       ??0UIBMButton@@QAE@XZ      00521d00 f   mmwidget:bm_button.obj
 0001:00120da0       ??1UIBMButton@@UAE@XZ      00521da0 f   mmwidget:bm_button.obj
 0001:00120e20       ?Init@UIBMButton@@QAEXPADMMHHPAHHHPAULocString@@VdatCallback@@3@Z 00521e20 f   mmwidget:bm_button.obj
 0001:001210a0       ?LoadBitmap@UIBMButton@@QAEXPAD@Z 005220a0 f   mmwidget:bm_button.obj
 0001:00121100       ?GetDiv@UIBMButton@@QAEHXZ 00522100 f   mmwidget:bm_button.obj
 0001:00121130       ?GetSize@UIBMButton@@AAEXXZ 00522130 f   mmwidget:bm_button.obj
 0001:00121160       ?SetPosition@UIBMButton@@UAEXMM@Z 00522160 f   mmwidget:bm_button.obj
 0001:001212b0       ?GetHitArea@UIBMButton@@QAEXAAM0@Z 005222b0 f   mmwidget:bm_button.obj
 0001:00121300       ?DoToggle@UIBMButton@@QAEXXZ 00522300 f   mmwidget:bm_button.obj
 0001:001213c0       ?Kill@UIBMButton@@QAEXXZ   005223c0 f   mmwidget:bm_button.obj
 0001:001213e0       ?Unkill@UIBMButton@@QAEXXZ 005223e0 f   mmwidget:bm_button.obj
 0001:00121420       ?Switch@UIBMButton@@UAEXH@Z 00522420 f   mmwidget:bm_button.obj
 0001:00121550       ?Action@UIBMButton@@UAEXTeqEvent@@@Z 00522550 f   mmwidget:bm_button.obj
 0001:00121610       ?MexOff@UIBMButton@@QAEXXZ 00522610 f   mmwidget:bm_button.obj
 0001:00121620       ?MexOn@UIBMButton@@QAEXXZ  00522620 f   mmwidget:bm_button.obj
 0001:00121660       ?MexToggle@UIBMButton@@QAEXXZ 00522660 f   mmwidget:bm_button.obj
 0001:00121690       ?Update@UIBMButton@@UAEXXZ 00522690 f   mmwidget:bm_button.obj
 0001:00121820       ?ReturnDescription@UIBMButton@@UAEPADXZ 00522820 f   mmwidget:bm_button.obj
 0001:001218d0       ?GetScreenHeight@UIBMButton@@UAEMXZ 005228d0 f   mmwidget:bm_button.obj
 0001:001218e0       ?Cull@UIBMButton@@UAEXXZ   005228e0 f   mmwidget:bm_button.obj
 0001:00121a60       ?AllocateSounds@UIBMButton@@CAXXZ 00522a60 f   mmwidget:bm_button.obj
 0001:00121c50       ?PlaySound@UIBMButton@@AAEXXZ 00522c50 f   mmwidget:bm_button.obj
 0001:00121c90       ??_EUIBMButton@@UAEPAXI@Z  00522c90 f i mmwidget:bm_button.obj
 0001:00121c90       ??_GUIBMButton@@UAEPAXI@Z  00522c90 f i mmwidget:bm_button.obj
 0001:00121cc0       ?Enable@UIBMButton@@UAEXXZ 00522cc0 f i mmwidget:bm_button.obj
 0001:00121ce0       ?Disable@UIBMButton@@UAEXXZ 00522ce0 f i mmwidget:bm_button.obj
 0001:00121d00       ??0UICWArray@@QAE@XZ       00522d00 f   mmwidget:cwarray.obj
 0001:00121dc0       ??1UICWArray@@UAE@XZ       00522dc0 f   mmwidget:cwarray.obj
 0001:00121dd0       ?Reset@UICWArray@@UAEXXZ   00522dd0 f   mmwidget:cwarray.obj
 0001:00121de0       ?Init@UICWArray@@QAEXMMMMHVdatCallback@@@Z 00522de0 f   mmwidget:cwarray.obj
 0001:00122030       ?VScrollCB@UICWArray@@QAEXXZ 00523030 f   mmwidget:cwarray.obj
 0001:001220a0       ?SetVScrollVals@UICWArray@@QAEXXZ 005230a0 f   mmwidget:cwarray.obj
 0001:00122110       ?SetVScrollPos@UICWArray@@QAEXXZ 00523110 f   mmwidget:cwarray.obj
 0001:00122140       ?SetStartOffset@UICWArray@@QAEXH@Z 00523140 f   mmwidget:cwarray.obj
 0001:00122180       ?Redraw@UICWArray@@QAEXXZ  00523180 f   mmwidget:cwarray.obj
 0001:001222e0       ?Switch@UICWArray@@UAEXH@Z 005232e0 f   mmwidget:cwarray.obj
 0001:00122320       ?Action@UICWArray@@UAEXTeqEvent@@@Z 00523320 f   mmwidget:cwarray.obj
 0001:00122460       ?CaptureAction@UICWArray@@UAEXTeqEvent@@@Z 00523460 f   mmwidget:cwarray.obj
 0001:001224d0       ?Update@UICWArray@@UAEXXZ  005234d0 f   mmwidget:cwarray.obj
 0001:00122560       ?EnterCapture@UICWArray@@QAEXH@Z 00523560 f   mmwidget:cwarray.obj
 0001:001225d0       ?ForceCapture@UICWArray@@QAEXXZ 005235d0 f   mmwidget:cwarray.obj
 0001:00122600       ?AcceptCapture@UICWArray@@QAEXXZ 00523600 f   mmwidget:cwarray.obj
 0001:00122650       ?ResetCapture@UICWArray@@QAEXXZ 00523650 f   mmwidget:cwarray.obj
 0001:00122680       ?CheckCapture@UICWArray@@QAEXXZ 00523680 f   mmwidget:cwarray.obj
 0001:00122730       ?SaveCFG@UICWArray@@QAEXXZ 00523730 f   mmwidget:cwarray.obj
 0001:00122770       ?LoadCFG@UICWArray@@QAEXXZ 00523770 f   mmwidget:cwarray.obj
 0001:001227c0       ?DefaultCFG@UICWArray@@QAEXXZ 005237c0 f   mmwidget:cwarray.obj
 0001:001227f0       ?DebugForceSetting@UICWArray@@QAEXXZ 005237f0 f   mmwidget:cwarray.obj
 0001:00122810       ??_GUICWArray@@UAEPAXI@Z   00523810 f i mmwidget:cwarray.obj
 0001:00122810       ??_EUICWArray@@UAEPAXI@Z   00523810 f i mmwidget:cwarray.obj
 0001:00122840       ??_EUIControlWidget@@UAEPAXI@Z 00523840 f i mmwidget:cwarray.obj
 0001:001228a0       ??0UIVScrollBar@@QAE@XZ    005238a0 f   mmwidget:vscrollbar.obj
 0001:00122940       ??1UIVScrollBar@@UAE@XZ    00523940 f   mmwidget:vscrollbar.obj
 0001:001229d0       ?Init@UIVScrollBar@@QAEXMMMMHMMPAHVdatCallback@@H@Z 005239d0 f   mmwidget:vscrollbar.obj
 0001:00122a40       ?LoadBitmap@UIVScrollBar@@QAEXXZ 00523a40 f   mmwidget:vscrollbar.obj
 0001:00122b60       ?SetHotSpots@UIVScrollBar@@QAEXXZ 00523b60 f   mmwidget:vscrollbar.obj
 0001:00122bf0       ?Inc@UIVScrollBar@@QAEMXZ  00523bf0 f   mmwidget:vscrollbar.obj
 0001:00122c50       ?Dec@UIVScrollBar@@QAEMXZ  00523c50 f   mmwidget:vscrollbar.obj
 0001:00122cb0       ?SetStep@UIVScrollBar@@QAEXHM@Z 00523cb0 f   mmwidget:vscrollbar.obj
 0001:00122d10       ?SetRange@UIVScrollBar@@QAEXMM@Z 00523d10 f   mmwidget:vscrollbar.obj
 0001:00122d70       ?SetTrough@UIVScrollBar@@QAEXMM@Z 00523d70 f   mmwidget:vscrollbar.obj
 0001:00122df0       ?Update@UIVScrollBar@@UAEXXZ 00523df0 f   mmwidget:vscrollbar.obj
 0001:00122e10       ?Switch@UIVScrollBar@@UAEXH@Z 00523e10 f   mmwidget:vscrollbar.obj
 0001:00122e60       ?Action@UIVScrollBar@@UAEXTeqEvent@@@Z 00523e60 f   mmwidget:vscrollbar.obj
 0001:00122f30       ?EvalMouseXY@UIVScrollBar@@QAEXMM@Z 00523f30 f   mmwidget:vscrollbar.obj
 0001:001230c0       ?Cull@UIVScrollBar@@UAEXXZ 005240c0 f   mmwidget:vscrollbar.obj
 0001:00123230       ??_GUIVScrollBar@@UAEPAXI@Z 00524230 f i mmwidget:vscrollbar.obj
 0001:00123230       ??_EUIVScrollBar@@UAEPAXI@Z 00524230 f i mmwidget:vscrollbar.obj
 0001:00123260       ?SetPosition@UIVScrollBar@@UAEXMM@Z 00524260 f i mmwidget:vscrollbar.obj
 0001:00123280       ?Enable@UIVScrollBar@@UAEXXZ 00524280 f i mmwidget:vscrollbar.obj
 0001:001232a0       ?Disable@UIVScrollBar@@UAEXXZ 005242a0 f i mmwidget:vscrollbar.obj
 0001:001232c0       ??0mmToolTip@@QAE@XZ       005242c0 f   mmwidget:ttip.obj
 0001:00123330       ??1mmToolTip@@UAE@XZ       00524330 f   mmwidget:ttip.obj
 0001:00123390       ?Init@mmToolTip@@QAEXPAVUIMenu@@PAULocString@@@Z 00524390 f   mmwidget:ttip.obj
 0001:00123440       ?SetText@mmToolTip@@QAEXPAULocString@@@Z 00524440 f   mmwidget:ttip.obj
 0001:00123460       ?Switch@mmToolTip@@QAEXH@Z 00524460 f   mmwidget:ttip.obj
 0001:00123470       ?Update@mmToolTip@@UAEXXZ  00524470 f   mmwidget:ttip.obj
 0001:00123480       ??_EmmToolTip@@UAEPAXI@Z   00524480 f i mmwidget:ttip.obj
 0001:00123480       ??_GmmToolTip@@UAEPAXI@Z   00524480 f i mmwidget:ttip.obj
 0001:001234b0       ??0TextDropWidget@@QAE@XZ  005244b0 f   mmwidget:tdwidget.obj
 0001:00123570       ??1TextDropWidget@@UAE@XZ  00524570 f   mmwidget:tdwidget.obj
 0001:001235e0       ?Init@TextDropWidget@@QAEXPAXMMMMMVstring@@H@Z 005245e0 f   mmwidget:tdwidget.obj
 0001:001236f0       ?GetCount@TextDropWidget@@QAEHXZ 005246f0 f   mmwidget:tdwidget.obj
 0001:00123700       ?SetString@TextDropWidget@@QAEXVstring@@@Z 00524700 f   mmwidget:tdwidget.obj
 0001:001237c0       ?SetValue@TextDropWidget@@QAEHH@Z 005247c0 f   mmwidget:tdwidget.obj
 0001:00123860       ?SetHighlight@TextDropWidget@@QAEHH@Z 00524860 f   mmwidget:tdwidget.obj
 0001:001238d0       ?Inc@TextDropWidget@@QAEHXZ 005248d0 f   mmwidget:tdwidget.obj
 0001:001238e0       ?Dec@TextDropWidget@@QAEHXZ 005248e0 f   mmwidget:tdwidget.obj
 0001:001238f0       ?IncDrop@TextDropWidget@@QAEHXZ 005248f0 f   mmwidget:tdwidget.obj
 0001:00123920       ?DecDrop@TextDropWidget@@QAEHXZ 00524920 f   mmwidget:tdwidget.obj
 0001:00123950       ?Capture@TextDropWidget@@QAEHMM@Z 00524950 f   mmwidget:tdwidget.obj
 0001:00123990       ?Switch@TextDropWidget@@QAEXHAAVVector4@@@Z 00524990 f   mmwidget:tdwidget.obj
 0001:001239b0       ?Update@TextDropWidget@@UAEXXZ 005249b0 f   mmwidget:tdwidget.obj
 0001:001239c0       ?IsActive@TextDropWidget@@QAEHXZ 005249c0 f   mmwidget:tdwidget.obj
 0001:001239d0       ?SetActive@TextDropWidget@@QAEXH@Z 005249d0 f   mmwidget:tdwidget.obj
 0001:001239e0       ?SetDisabledMask@TextDropWidget@@QAEXJ@Z 005249e0 f   mmwidget:tdwidget.obj
 0001:00123a00       ?GetDisabledMask@TextDropWidget@@QAEJXZ 00524a00 f   mmwidget:tdwidget.obj
 0001:00123a10       ??_ETextDropWidget@@UAEPAXI@Z 00524a10 f i mmwidget:tdwidget.obj
 0001:00123a10       ??_GTextDropWidget@@UAEPAXI@Z 00524a10 f i mmwidget:tdwidget.obj
 0001:00123a40       ??0mmDropDown@@QAE@XZ      00524a40 f   mmwidget:dropdown.obj
 0001:00123ac0       ??1mmDropDown@@UAE@XZ      00524ac0 f   mmwidget:dropdown.obj
 0001:00123b40       ?Init@mmDropDown@@QAEXPAXMMMMVstring@@H@Z 00524b40 f   mmwidget:dropdown.obj
 0001:00123cc0       ?InitString@mmDropDown@@QAEXVstring@@@Z 00524cc0 f   mmwidget:dropdown.obj
 0001:001240c0       ?SetString@mmDropDown@@AAEXVstring@@@Z 005250c0 f   mmwidget:dropdown.obj
 0001:001241b0       ?GetCurrentString@mmDropDown@@QAEXPADH@Z 005251b0 f   mmwidget:dropdown.obj
 0001:00124200       ?SetDisabledColors@mmDropDown@@QAEXXZ 00525200 f   mmwidget:dropdown.obj
 0001:00124280       ?FindFirstEnabled@mmDropDown@@QAEHXZ 00525280 f   mmwidget:dropdown.obj
 0001:001242b0       ?SetHighlight@mmDropDown@@QAEXH@Z 005252b0 f   mmwidget:dropdown.obj
 0001:00124320       ?GetHit@mmDropDown@@QAEHMM@Z 00525320 f   mmwidget:dropdown.obj
 0001:001243f0       ?Update@mmDropDown@@UAEXXZ 005253f0 f   mmwidget:dropdown.obj
 0001:00124400       ?GetXmin@mmDropDown@@QAEMXZ 00525400 f   mmwidget:dropdown.obj
 0001:00124410       ?GetYmin@mmDropDown@@QAEMXZ 00525410 f   mmwidget:dropdown.obj
 0001:00124420       ?GetW@mmDropDown@@QAEMXZ   00525420 f   mmwidget:dropdown.obj
 0001:00124430       ?GetH@mmDropDown@@QAEMXZ   00525430 f   mmwidget:dropdown.obj
 0001:00124440       ??_EmmDropDown@@UAEPAXI@Z  00525440 f i mmwidget:dropdown.obj
 0001:00124440       ??_GmmDropDown@@UAEPAXI@Z  00525440 f i mmwidget:dropdown.obj
 0001:00124470       ??0VSWidget@@QAE@XZ        00525470 f   mmwidget:vswidget.obj
 0001:00124500       ??1VSWidget@@UAE@XZ        00525500 f   mmwidget:vswidget.obj
 0001:00124590       ?Init@VSWidget@@QAEXMMMMPAHVdatCallback@@H@Z 00525590 f   mmwidget:vswidget.obj
 0001:001245f0       ?LoadBitmap@VSWidget@@QAEXXZ 005255f0 f   mmwidget:vswidget.obj
 0001:00124730       ?CalcTroughRatio@VSWidget@@QAEXM@Z 00525730 f   mmwidget:vswidget.obj
 0001:001247a0       ?SetHotSpots@VSWidget@@QAEXXZ 005257a0 f   mmwidget:vswidget.obj
 0001:00124810       ?SyncData@VSWidget@@QAEXXZ 00525810 f   mmwidget:vswidget.obj
 0001:00124850       ?Inc@VSWidget@@QAEMXZ      00525850 f   mmwidget:vswidget.obj
 0001:001248a0       ?Dec@VSWidget@@QAEMXZ      005258a0 f   mmwidget:vswidget.obj
 0001:00124900       ?SetStep@VSWidget@@QAEXHM@Z 00525900 f   mmwidget:vswidget.obj
 0001:00124970       ?SetTrough@VSWidget@@QAEXM@Z 00525970 f   mmwidget:vswidget.obj
 0001:00124a00       ?Update@VSWidget@@UAEXXZ   00525a00 f   mmwidget:vswidget.obj
 0001:00124a30       ?Switch@VSWidget@@QAEXHMM@Z 00525a30 f   mmwidget:vswidget.obj
 0001:00124a80       ?Action@VSWidget@@QAEHTeqEvent@@MMH@Z 00525a80 f   mmwidget:vswidget.obj
 0001:00124b40       ?EvalMouseXY@VSWidget@@QAEXMMH@Z 00525b40 f   mmwidget:vswidget.obj
 0001:00124cc0       ?Cull@VSWidget@@UAEXXZ     00525cc0 f   mmwidget:vswidget.obj
 0001:00124e30       ??_GVSWidget@@UAEPAXI@Z    00525e30 f i mmwidget:vswidget.obj
 0001:00124e30       ??_EVSWidget@@UAEPAXI@Z    00525e30 f i mmwidget:vswidget.obj
 0001:00124e60       ??0mmSlider@@QAE@XZ        00525e60 f   mmwidget:sliderbar.obj
 0001:00124ef0       ??1mmSlider@@UAE@XZ        00525ef0 f   mmwidget:sliderbar.obj
 0001:00124fb0       ?Init@mmSlider@@QAEXPADPAVuiWidget@@MMMMHMMHH@Z 00525fb0 f   mmwidget:sliderbar.obj
 0001:00125010       ?LoadBitmap@mmSlider@@QAEXPAD@Z 00526010 f   mmwidget:sliderbar.obj
 0001:001251b0       ?SetReadWrite@mmSlider@@QAEXH@Z 005261b0 f   mmwidget:sliderbar.obj
 0001:001251d0       ?IsReadWrite@mmSlider@@QAEHXZ 005261d0 f   mmwidget:sliderbar.obj
 0001:001251e0       ?SetValue@mmSlider@@QAEMM@Z 005261e0 f   mmwidget:sliderbar.obj
 0001:00125240       ?GetScreenHeight@mmSlider@@QAEMXZ 00526240 f   mmwidget:sliderbar.obj
 0001:00125260       ?FudgeWidth@mmSlider@@QAEMXZ 00526260 f   mmwidget:sliderbar.obj
 0001:00125290       ?SetPosition@mmSlider@@QAEXMM@Z 00526290 f   mmwidget:sliderbar.obj
 0001:001252b0       ?GetSliderHotSpots@mmSlider@@QAEXAAM00000@Z 005262b0 f   mmwidget:sliderbar.obj
 0001:00125360       ?UpdatePosition@mmSlider@@QAEXXZ 00526360 f   mmwidget:sliderbar.obj
 0001:00125390       ?Inc@mmSlider@@QAEMXZ      00526390 f   mmwidget:sliderbar.obj
 0001:001253b0       ?Dec@mmSlider@@QAEMXZ      005263b0 f   mmwidget:sliderbar.obj
 0001:001253d0       ?SetStep@mmSlider@@QAEXM@Z 005263d0 f   mmwidget:sliderbar.obj
 0001:00125440       ?SetRange@mmSlider@@QAEXMM@Z 00526440 f   mmwidget:sliderbar.obj
 0001:001254a0       ?Update@mmSlider@@UAEXXZ   005264a0 f   mmwidget:sliderbar.obj
 0001:001254c0       ?Cull@mmSlider@@UAEXXZ     005264c0 f   mmwidget:sliderbar.obj
 0001:00125650       ??_EmmSlider@@UAEPAXI@Z    00526650 f i mmwidget:sliderbar.obj
 0001:00125650       ??_GmmSlider@@UAEPAXI@Z    00526650 f i mmwidget:sliderbar.obj
 0001:00125680       ??0mmToggle@@QAE@XZ        00526680 f   mmwidget:toggle.obj
 0001:001256a0       ??1mmToggle@@UAE@XZ        005266a0 f   mmwidget:toggle.obj
 0001:00125700       ?Init@mmToggle@@QAEXPADMMMM@Z 00526700 f   mmwidget:toggle.obj
 0001:001257a0       ?LoadBitmap@mmToggle@@AAEXPAD@Z 005267a0 f   mmwidget:toggle.obj
 0001:001257e0       ?SetSize@mmToggle@@AAEXMM@Z 005267e0 f   mmwidget:toggle.obj
 0001:00125890       ?Update@mmToggle@@UAEXXZ   00526890 f   mmwidget:toggle.obj
 0001:001258b0       ?Cull@mmToggle@@UAEXXZ     005268b0 f   mmwidget:toggle.obj
 0001:00125920       ??_GmmToggle@@UAEPAXI@Z    00526920 f i mmwidget:toggle.obj
 0001:00125920       ??_EmmToggle@@UAEPAXI@Z    00526920 f i mmwidget:toggle.obj
 0001:00125950       ??0mmToggle2@@QAE@XZ       00526950 f   mmwidget:toggle2.obj
 0001:00125970       ??1mmToggle2@@UAE@XZ       00526970 f   mmwidget:toggle2.obj
 0001:001259d0       ?Init@mmToggle2@@QAEXPADMMPAH@Z 005269d0 f   mmwidget:toggle2.obj
 0001:00125a00       ?LoadBitmap@mmToggle2@@AAEXPAD@Z 00526a00 f   mmwidget:toggle2.obj
 0001:00125a60       ?SetPosition@mmToggle2@@QAEXMM@Z 00526a60 f   mmwidget:toggle2.obj
 0001:00125b00       ?Update@mmToggle2@@UAEXXZ  00526b00 f   mmwidget:toggle2.obj
 0001:00125b20       ?Cull@mmToggle2@@UAEXXZ    00526b20 f   mmwidget:toggle2.obj
 0001:00125bc0       ??_EmmToggle2@@UAEPAXI@Z   00526bc0 f i mmwidget:toggle2.obj
 0001:00125bc0       ??_GmmToggle2@@UAEPAXI@Z   00526bc0 f i mmwidget:toggle2.obj
 0001:00125bf0       ?AutoDetect@@YAXH@Z        00526bf0 f   mmui:graphics.obj
 0001:00125f20       ??0GraphicsOptions@@QAE@H@Z 00526f20 f   mmui:graphics.obj
 0001:00126d60       ??1GraphicsOptions@@UAE@XZ 00527d60 f   mmui:graphics.obj
 0001:00126dd0       ?SetResolution@GraphicsOptions@@QAEXXZ 00527dd0 f   mmui:graphics.obj
 0001:00126de0       ?TogglePeds@GraphicsOptions@@QAEXXZ 00527de0 f   mmui:graphics.obj
 0001:00126e00       ?SetLightQuality@GraphicsOptions@@QAEXXZ 00527e00 f   mmui:graphics.obj
 0001:00126eb0       ?SetRenderer@GraphicsOptions@@QAEXXZ 00527eb0 f   mmui:graphics.obj
 0001:00126ec0       ?PreSetup@GraphicsOptions@@UAEXXZ 00527ec0 f   mmui:graphics.obj
 0001:00126f60       ?ResetDefaultAction@GraphicsOptions@@UAEXXZ 00527f60 f   mmui:graphics.obj
 0001:00127030       ?CancelAction@GraphicsOptions@@UAEXXZ 00528030 f   mmui:graphics.obj
 0001:00127040       ?DoneAction@GraphicsOptions@@UAEXXZ 00528040 f   mmui:graphics.obj
 0001:00127080       ?FocusDescription@GraphicsOptions@@QAEXPAX0@Z 00528080 f   mmui:graphics.obj
 0001:001270b0       ??_EGraphicsOptions@@UAEPAXI@Z 005280b0 f i mmui:graphics.obj
 0001:001270b0       ??_GGraphicsOptions@@UAEPAXI@Z 005280b0 f i mmui:graphics.obj
 0001:001270e0       ?StoreCurrentSetup@OptionsBase@@UAEXXZ 005280e0 f i mmui:graphics.obj
 0001:001270f0       ?IsAnOptionMenu@OptionsBase@@UAEHXZ 005280f0 f i mmui:graphics.obj
 0001:00127100       ??0VehicleSelectBase@@QAE@H@Z 00528100 f   mmui:vselect.obj
 0001:00127260       ?IncColor@VehicleSelectBase@@QAEXXZ 00528260 f   mmui:vselect.obj
 0001:00127320       ?DecColor@VehicleSelectBase@@QAEXXZ 00528320 f   mmui:vselect.obj
 0001:001273f0       ?IncTrans@VehicleSelectBase@@QAEXXZ 005283f0 f   mmui:vselect.obj
 0001:00127400       ?DecTrans@VehicleSelectBase@@QAEXXZ 00528400 f   mmui:vselect.obj
 0001:00127410       ?ColorCB@VehicleSelectBase@@QAEXXZ 00528410 f   mmui:vselect.obj
 0001:00127430       ?InitCarSelection@VehicleSelectBase@@QAEXHMMMM@Z 00528430 f   mmui:vselect.obj
 0001:00128560       ??1VehicleSelectBase@@UAE@XZ 00529560 f   mmui:vselect.obj
 0001:00128600       ?PreSetup@VehicleSelectBase@@UAEXXZ 00529600 f   mmui:vselect.obj
 0001:001286d0       ?PostSetup@VehicleSelectBase@@UAEXXZ 005296d0 f   mmui:vselect.obj
 0001:001286f0       ?AllSetCar@VehicleSelectBase@@QAEXPADH@Z 005296f0 f   mmui:vselect.obj
 0001:00128740       ?TDPickCB@VehicleSelectBase@@QAEXXZ 00529740 f   mmui:vselect.obj
 0001:00128750       ?Reset@VehicleSelectBase@@UAEXXZ 00529750 f   mmui:vselect.obj
 0001:00128760       ?Update@VehicleSelectBase@@UAEXXZ 00529760 f   mmui:vselect.obj
 0001:00128940       ?GetCarTitle@VehicleSelectBase@@QAEPADHPADFPAVstring@@@Z 00529940 f   mmui:vselect.obj
 0001:00128a70       ?CurrentVehicleIsLocked@VehicleSelectBase@@QAEHXZ 00529a70 f   mmui:vselect.obj
 0001:00128ad0       ?SetLastUnlockedVehicle@VehicleSelectBase@@QAEXXZ 00529ad0 f   mmui:vselect.obj
 0001:00128b30       ?CarMod@VehicleSelectBase@@QAEXAAH@Z 00529b30 f   mmui:vselect.obj
 0001:00128b60       ?SetPick@VehicleSelectBase@@QAEXHF@Z 00529b60 f   mmui:vselect.obj
 0001:00128e60       ?ShowCarDesc@VehicleSelectBase@@QAEXXZ 00529e60 f   mmui:vselect.obj
 0001:00129080       ?LoadStats@VehicleSelectBase@@QAEHPAD@Z 0052a080 f   mmui:vselect.obj
 0001:00129120       ?max@@YAMMM@Z              0052a120 f   mmui:vselect.obj
 0001:00129140       ?min@@YAMMM@Z              0052a140 f   mmui:vselect.obj
 0001:00129160       ?AssignVehicleStats@VehicleSelectBase@@QAEXHMMMM@Z 0052a160 f   mmui:vselect.obj
 0001:001292d0       ?FillStats@VehicleSelectBase@@QAEXXZ 0052a2d0 f   mmui:vselect.obj
 0001:00129320       ?SetLockedLabel@VehicleSelectBase@@QAEXXZ 0052a320 f   mmui:vselect.obj
 0001:001294b0       ?LockColor@VehicleSelectBase@@QAEXXZ 0052a4b0 f   mmui:vselect.obj
 0001:00129530       ?FocusDescription@VehicleSelectBase@@QAEXHH@Z 0052a530 f   mmui:vselect.obj
 0001:001296a0       ??_GVehicleSelectBase@@UAEPAXI@Z 0052a6a0 f i mmui:vselect.obj
 0001:001296a0       ??_EVehicleSelectBase@@UAEPAXI@Z 0052a6a0 f i mmui:vselect.obj
 0001:001296d0       ??_EasDofCS@@UAEPAXI@Z     0052a6d0 f i mmui:vselect.obj
 0001:00129730       ??1asDofCS@@UAE@XZ         0052a730 f i mmui:vselect.obj
 0001:00129740       ??_EmmVehicleForm@@UAEPAXI@Z 0052a740 f i mmui:vselect.obj
 0001:001297a0       ?DecCar@VehicleSelectBase@@QAEXXZ 0052a7a0 f i mmui:vselect.obj
 0001:001297b0       ?IncCar@VehicleSelectBase@@QAEXXZ 0052a7b0 f i mmui:vselect.obj
 0001:001297c0       ?SetShowcaseFlag@VehicleSelectBase@@QAEXXZ 0052a7c0 f i mmui:vselect.obj
 0001:001297d0       ?GetDamage@mmVehicleForm@@QAE?AVmmDamage@@XZ 0052a7d0 f i mmui:vselect.obj
 0001:00129800       ?IsValid@mmVehInfo@@QAEHXZ 0052a800 f i mmui:vselect.obj
 0001:00129810       ??0AudioOptions@@QAE@H@Z   0052a810 f   mmui:audio.obj
 0001:0012a4b0       ??1AudioOptions@@UAE@XZ    0052b4b0 f   mmui:audio.obj
 0001:0012a530       ?PreSetup@AudioOptions@@UAEXXZ 0052b530 f   mmui:audio.obj
 0001:0012a580       ?SetSFXVolume@AudioOptions@@QAEXXZ 0052b580 f   mmui:audio.obj
 0001:0012a5e0       ?SetMusicVolume@AudioOptions@@QAEXXZ 0052b5e0 f   mmui:audio.obj
 0001:0012a640       ?SetBalance@AudioOptions@@QAEXXZ 0052b640 f   mmui:audio.obj
 0001:0012a6b0       ?SetQuality@AudioOptions@@QAEXXZ 0052b6b0 f   mmui:audio.obj
 0001:0012a730       ?SetStereoFX@AudioOptions@@QAEXXZ 0052b730 f   mmui:audio.obj
 0001:0012a780       ?StoreCurrentSetup@AudioOptions@@UAEXXZ 0052b780 f   mmui:audio.obj
 0001:0012a790       ?ResetDefaultAction@AudioOptions@@UAEXXZ 0052b790 f   mmui:audio.obj
 0001:0012a870       ?CancelAction@AudioOptions@@UAEXXZ 0052b870 f   mmui:audio.obj
 0001:0012a900       ?DoneAction@AudioOptions@@UAEXXZ 0052b900 f   mmui:audio.obj
 0001:0012a910       ?SetAudioState@AudioOptions@@QAEXXZ 0052b910 f   mmui:audio.obj
 0001:0012aa90       ?SetMusic@AudioOptions@@QAEXXZ 0052ba90 f   mmui:audio.obj
 0001:0012aae0       ?SetAmbient@AudioOptions@@QAEXXZ 0052bae0 f   mmui:audio.obj
 0001:0012ab30       ?SetSoundFX@AudioOptions@@QAEXXZ 0052bb30 f   mmui:audio.obj
 0001:0012ab50       ?SetCommentary@AudioOptions@@QAEXXZ 0052bb50 f   mmui:audio.obj
 0001:0012ab80       ?FindDevice@AudioOptions@@QAEHPAD@Z 0052bb80 f   mmui:audio.obj
 0001:0012ac00       ?GetCurrentDeviceName@AudioOptions@@QAEPADXZ 0052bc00 f   mmui:audio.obj
 0001:0012ac20       ?ResetStereo@AudioOptions@@QAEXXZ 0052bc20 f   mmui:audio.obj
 0001:0012ac40       ?ResetSoundFX@AudioOptions@@QAEXXZ 0052bc40 f   mmui:audio.obj
 0001:0012ac70       ?ResetMusic@AudioOptions@@QAEXXZ 0052bc70 f   mmui:audio.obj
 0001:0012acd0       ?ResetAmbient@AudioOptions@@QAEXXZ 0052bcd0 f   mmui:audio.obj
 0001:0012ad30       ?ResetSoundQuality@AudioOptions@@QAEXXZ 0052bd30 f   mmui:audio.obj
 0001:0012ad70       ?ResetCommentary@AudioOptions@@QAEXXZ 0052bd70 f   mmui:audio.obj
 0001:0012ad90       ?SetDevice@AudioOptions@@QAEXH@Z 0052bd90 f   mmui:audio.obj
 0001:0012ae30       ?ToggleMusic@AudioOptions@@QAEXXZ 0052be30 f   mmui:audio.obj
 0001:0012af20       ?ToggleAmbient@AudioOptions@@QAEXXZ 0052bf20 f   mmui:audio.obj
 0001:0012af60       ?LoadUIMusicCSV@AudioOptions@@QAEXPAD@Z 0052bf60 f   mmui:audio.obj
 0001:0012b050       ?FocusDescription@AudioOptions@@QAEXHH@Z 0052c050 f   mmui:audio.obj
 0001:0012b1a0       ??_EAudioOptions@@UAEPAXI@Z 0052c1a0 f i mmui:audio.obj
 0001:0012b1a0       ??_GAudioOptions@@UAEPAXI@Z 0052c1a0 f i mmui:audio.obj
 0001:0012b1d0       ??0Dialog_Eject@@QAE@HMMMMPAD@Z 0052c1d0 f   mmui:dlg_eject.obj
 0001:0012b3b0       ??1Dialog_Eject@@UAE@XZ    0052c3b0 f   mmui:dlg_eject.obj
 0001:0012b410       ?PostSetup@Dialog_Eject@@UAEXXZ 0052c410 f   mmui:dlg_eject.obj
 0001:0012b420       ?PreSetup@Dialog_Eject@@UAEXXZ 0052c420 f   mmui:dlg_eject.obj
 0001:0012b430       ?BootButtonCB@Dialog_Eject@@QAEXXZ 0052c430 f   mmui:dlg_eject.obj
 0001:0012b490       ?AddName@Dialog_Eject@@QAEXPBDKH@Z 0052c490 f   mmui:dlg_eject.obj
 0001:0012b530       ?RemoveName@Dialog_Eject@@QAEXPBDK@Z 0052c530 f   mmui:dlg_eject.obj
 0001:0012b680       ?RemoveName@Dialog_Eject@@QAEXK@Z 0052c680 f   mmui:dlg_eject.obj
 0001:0012b7c0       ?ClearNames@Dialog_Eject@@QAEXXZ 0052c7c0 f   mmui:dlg_eject.obj
 0001:0012b840       ?PostNames@Dialog_Eject@@QAEXXZ 0052c840 f   mmui:dlg_eject.obj
 0001:0012b870       ?SetBootCB@Dialog_Eject@@QAEXVdatCallback@@@Z 0052c870 f   mmui:dlg_eject.obj
 0001:0012b890       ?FindRosterName@Dialog_Eject@@QAEHPBD@Z 0052c890 f   mmui:dlg_eject.obj
 0001:0012b900       ?FindRosterName@Dialog_Eject@@QAEHK@Z 0052c900 f   mmui:dlg_eject.obj
 0001:0012b930       ??_EDialog_Eject@@UAEPAXI@Z 0052c930 f i mmui:dlg_eject.obj
 0001:0012b930       ??_GDialog_Eject@@UAEPAXI@Z 0052c930 f i mmui:dlg_eject.obj
 0001:0012b960       ??0Dialog_City2@@QAE@HMMMMPAD@Z 0052c960 f   mmui:dlg_city2.obj
 0001:0012bc90       ??1Dialog_City2@@UAE@XZ    0052cc90 f   mmui:dlg_city2.obj
 0001:0012bcf0       ?PreSetup@Dialog_City2@@UAEXXZ 0052ccf0 f   mmui:dlg_city2.obj
 0001:0012bd00       ?PostSetup@Dialog_City2@@UAEXXZ 0052cd00 f   mmui:dlg_city2.obj
 0001:0012bd10       ?ScrollCB@Dialog_City2@@QAEXXZ 0052cd10 f   mmui:dlg_city2.obj
 0001:0012bd20       ?CancelCB@Dialog_City2@@QAEXXZ 0052cd20 f   mmui:dlg_city2.obj
 0001:0012bd50       ?DoneCB@Dialog_City2@@QAEXXZ 0052cd50 f   mmui:dlg_city2.obj
 0001:0012bdf0       ?SetCurrentCity@Dialog_City2@@QAEXH@Z 0052cdf0 f   mmui:dlg_city2.obj
 0001:0012be30       ??_EDialog_City2@@UAEPAXI@Z 0052ce30 f i mmui:dlg_city2.obj
 0001:0012be30       ??_GDialog_City2@@UAEPAXI@Z 0052ce30 f i mmui:dlg_city2.obj
 0001:0012be60       ??_EmmCompCity@@UAEPAXI@Z  0052ce60 f i mmui:dlg_city2.obj
 0001:0012bec0       ??0Dialog_ReplayEdit@@QAE@HMMMMPAD@Z 0052cec0 f   mmui:dlg_redit.obj
 0001:0012c050       ??1Dialog_ReplayEdit@@UAE@XZ 0052d050 f   mmui:dlg_redit.obj
 0001:0012c060       ?PreSetup@Dialog_ReplayEdit@@UAEXXZ 0052d060 f   mmui:dlg_redit.obj
 0001:0012c070       ?ReplayDescCallback@Dialog_ReplayEdit@@QAEXXZ 0052d070 f   mmui:dlg_redit.obj
 0001:0012c080       ?SetDesc@Dialog_ReplayEdit@@QAEXPAD@Z 0052d080 f   mmui:dlg_redit.obj
 0001:0012c0f0       ??_GDialog_ReplayEdit@@UAEPAXI@Z 0052d0f0 f i mmui:dlg_redit.obj
 0001:0012c0f0       ??_EDialog_ReplayEdit@@UAEPAXI@Z 0052d0f0 f i mmui:dlg_redit.obj
 0001:0012c120       ??0Dialog_Replay@@QAE@HMMMMPAD@Z 0052d120 f   mmui:dlg_replay.obj
 0001:0012c560       ??1Dialog_Replay@@UAE@XZ   0052d560 f   mmui:dlg_replay.obj
 0001:0012c5f0       ?PreSetup@Dialog_Replay@@UAEXXZ 0052d5f0 f   mmui:dlg_replay.obj
 0001:0012c600       ?PostSetup@Dialog_Replay@@UAEXXZ 0052d600 f   mmui:dlg_replay.obj
 0001:0012c610       ?ScrollCB@Dialog_Replay@@QAEXXZ 0052d610 f   mmui:dlg_replay.obj
 0001:0012c630       ?CancelCB@Dialog_Replay@@QAEXXZ 0052d630 f   mmui:dlg_replay.obj
 0001:0012c660       ?DoneCB@Dialog_Replay@@QAEXXZ 0052d660 f   mmui:dlg_replay.obj
 0001:0012c680       ?EditCB@Dialog_Replay@@QAEXXZ 0052d680 f   mmui:dlg_replay.obj
 0001:0012c690       ?SetDescription@Dialog_Replay@@QAEXPAD@Z 0052d690 f   mmui:dlg_replay.obj
 0001:0012c6e0       ?GetDescription@Dialog_Replay@@QAEPADXZ 0052d6e0 f   mmui:dlg_replay.obj
 0001:0012c7f0       ?DeleteCB@Dialog_Replay@@QAEXXZ 0052d7f0 f   mmui:dlg_replay.obj
 0001:0012c8b0       ?SetCurrentReplay@Dialog_Replay@@QAEXH@Z 0052d8b0 f   mmui:dlg_replay.obj
 0001:0012c900       ?GetSelectedReplay@Dialog_Replay@@QAEPADXZ 0052d900 f   mmui:dlg_replay.obj
 0001:0012c940       ?SetDriverStats@Dialog_Replay@@QAEXPAD00@Z 0052d940 f   mmui:dlg_replay.obj
 0001:0012c9a0       ?isReplayFile@@YA_NPBD@Z   0052d9a0 f   mmui:dlg_replay.obj
 0001:0012ca10       ?LoadDlgReplayCB@@YAXPBD_NPAX@Z 0052da10 f   mmui:dlg_replay.obj
 0001:0012cac0       ?LoadAll@Dialog_Replay@@QAEXXZ 0052dac0 f   mmui:dlg_replay.obj
 0001:0012cae0       ??_GDialog_Replay@@UAEPAXI@Z 0052dae0 f i mmui:dlg_replay.obj
 0001:0012cae0       ??_EDialog_Replay@@UAEPAXI@Z 0052dae0 f i mmui:dlg_replay.obj
 0001:0012cb10       ??_EmmCompReplay@@UAEPAXI@Z 0052db10 f i mmui:dlg_replay.obj
 0001:0012cb70       ??0Dialog_Host@@QAE@HMMMMPAD@Z 0052db70 f   mmui:dlg_host.obj
 0001:0012cd90       ??1Dialog_Host@@UAE@XZ     0052dd90 f   mmui:dlg_host.obj
 0001:0012cda0       ?PreSetup@Dialog_Host@@UAEXXZ 0052dda0 f   mmui:dlg_host.obj
 0001:0012cde0       ?PasswordCallback@Dialog_Host@@QAEXXZ 0052dde0 f   mmui:dlg_host.obj
 0001:0012cdf0       ?Clear@Dialog_Host@@QAEXXZ 0052ddf0 f   mmui:dlg_host.obj
 0001:0012ce30       ??_EDialog_Host@@UAEPAXI@Z 0052de30 f i mmui:dlg_host.obj
 0001:0012ce30       ??_GDialog_Host@@UAEPAXI@Z 0052de30 f i mmui:dlg_host.obj
 0001:0012ce60       ??0Dialog_Password@@QAE@HMMMMPAD@Z 0052de60 f   mmui:dlg_password.obj
 0001:0012cff0       ??1Dialog_Password@@UAE@XZ 0052dff0 f   mmui:dlg_password.obj
 0001:0012d000       ?PreSetup@Dialog_Password@@UAEXXZ 0052e000 f   mmui:dlg_password.obj
 0001:0012d010       ?PasswordCallback@Dialog_Password@@QAEXXZ 0052e010 f   mmui:dlg_password.obj
 0001:0012d020       ??_GDialog_Password@@UAEPAXI@Z 0052e020 f i mmui:dlg_password.obj
 0001:0012d020       ??_EDialog_Password@@UAEPAXI@Z 0052e020 f i mmui:dlg_password.obj
 0001:0012d050       ??0Dialog_RaceEnvironment@@QAE@HMMMMPAD@Z 0052e050 f   mmui:dlg_renv.obj
 0001:0012d720       ??1Dialog_RaceEnvironment@@UAE@XZ 0052e720 f   mmui:dlg_renv.obj
 0001:0012d730       ?PreSetup@Dialog_RaceEnvironment@@UAEXXZ 0052e730 f   mmui:dlg_renv.obj
 0001:0012d780       ?ControlPedSlider@Dialog_RaceEnvironment@@QAEXXZ 0052e780 f   mmui:dlg_renv.obj
 0001:0012d7a0       ?SetMultiRaceOptions@Dialog_RaceEnvironment@@QAEXH@Z 0052e7a0 f   mmui:dlg_renv.obj
 0001:0012d7e0       ?DoneCallback@Dialog_RaceEnvironment@@QAEXXZ 0052e7e0 f   mmui:dlg_renv.obj
 0001:0012d830       ?CancelCallback@Dialog_RaceEnvironment@@QAEXXZ 0052e830 f   mmui:dlg_renv.obj
 0001:0012d840       ??_GDialog_RaceEnvironment@@UAEPAXI@Z 0052e840 f i mmui:dlg_renv.obj
 0001:0012d840       ??_EDialog_RaceEnvironment@@UAEPAXI@Z 0052e840 f i mmui:dlg_renv.obj
 0001:0012d870       ??0Dialog_HallOfFame@@QAE@HMMMMPAD@Z 0052e870 f   mmui:dlg_hoff.obj
 0001:0012ddb0       ??1Dialog_HallOfFame@@UAE@XZ 0052edb0 f   mmui:dlg_hoff.obj
 0001:0012ddc0       ?PreSetup@Dialog_HallOfFame@@UAEXXZ 0052edc0 f   mmui:dlg_hoff.obj
 0001:0012ddd0       ?AddRaceRecord@Dialog_HallOfFame@@QAEXHPAD00H00@Z 0052edd0 f   mmui:dlg_hoff.obj
 0001:0012df10       ?ResetRaceRecord@Dialog_HallOfFame@@QAEXXZ 0052ef10 f   mmui:dlg_hoff.obj
 0001:0012dfa0       ?SortByCity@Dialog_HallOfFame@@QAEXXZ 0052efa0 f   mmui:dlg_hoff.obj
 0001:0012dfc0       ?SetSortState@Dialog_HallOfFame@@QAEXXZ 0052efc0 f   mmui:dlg_hoff.obj
 0001:0012e040       ?InitRaceRecord@Dialog_HallOfFame@@QAEXXZ 0052f040 f   mmui:dlg_hoff.obj
 0001:0012e1e0       ??_GDialog_HallOfFame@@UAEPAXI@Z 0052f1e0 f i mmui:dlg_hoff.obj
 0001:0012e1e0       ??_EDialog_HallOfFame@@UAEPAXI@Z 0052f1e0 f i mmui:dlg_hoff.obj
 0001:0012e210       ??0Dialog_DriverRec@@QAE@HMMMMPAD@Z 0052f210 f   mmui:dlg_drec.obj
 0001:0012e6a0       ??1Dialog_DriverRec@@UAE@XZ 0052f6a0 f   mmui:dlg_drec.obj
 0001:0012e6b0       ?PreSetup@Dialog_DriverRec@@UAEXXZ 0052f6b0 f   mmui:dlg_drec.obj
 0001:0012e6c0       ?InitDriverRecord@Dialog_DriverRec@@QAEXH@Z 0052f6c0 f   mmui:dlg_drec.obj
 0001:0012e790       ?AddDriverRecord@Dialog_DriverRec@@QAEHHPADHM0H@Z 0052f790 f   mmui:dlg_drec.obj
 0001:0012e8d0       ?ResetDriverRecord@Dialog_DriverRec@@QAEXXZ 0052f8d0 f   mmui:dlg_drec.obj
 0001:0012e960       ?SetRecordPosition@Dialog_DriverRec@@QAEXH@Z 0052f960 f   mmui:dlg_drec.obj
 0001:0012e980       ?SetSortState@Dialog_DriverRec@@QAEXXZ 0052f980 f   mmui:dlg_drec.obj
 0001:0012e9e0       ?SetCityState@Dialog_DriverRec@@QAEXXZ 0052f9e0 f   mmui:dlg_drec.obj
 0001:0012ea00       ??_EDialog_DriverRec@@UAEPAXI@Z 0052fa00 f i mmui:dlg_drec.obj
 0001:0012ea00       ??_GDialog_DriverRec@@UAEPAXI@Z 0052fa00 f i mmui:dlg_drec.obj
 0001:0012ea30       ??0Dialog_Message@@QAE@HMMMMPAD@Z 0052fa30 f   mmui:dlg_msg.obj
 0001:0012eb50       ?Init@Dialog_Message@@QAEXHPAD0@Z 0052fb50 f   mmui:dlg_msg.obj
 0001:0012ebc0       ??1Dialog_Message@@UAE@XZ  0052fbc0 f   mmui:dlg_msg.obj
 0001:0012ebd0       ?PreSetup@Dialog_Message@@UAEXXZ 0052fbd0 f   mmui:dlg_msg.obj
 0001:0012ebe0       ??_EDialog_Message@@UAEPAXI@Z 0052fbe0 f i mmui:dlg_msg.obj
 0001:0012ebe0       ??_GDialog_Message@@UAEPAXI@Z 0052fbe0 f i mmui:dlg_msg.obj
 0001:0012ec10       ??0Dialog_NewPlayer@@QAE@HMMMMPAD@Z 0052fc10 f   mmui:dlg_newp.obj
 0001:0012ef70       ??1Dialog_NewPlayer@@UAE@XZ 0052ff70 f   mmui:dlg_newp.obj
 0001:0012ef80       ?EnterNewPlayer@Dialog_NewPlayer@@QAEXXZ 0052ff80 f   mmui:dlg_newp.obj
 0001:0012ef90       ?PreSetup@Dialog_NewPlayer@@UAEXXZ 0052ff90 f   mmui:dlg_newp.obj
 0001:0012efc0       ??_GDialog_NewPlayer@@UAEPAXI@Z 0052ffc0 f i mmui:dlg_newp.obj
 0001:0012efc0       ??_EDialog_NewPlayer@@UAEPAXI@Z 0052ffc0 f i mmui:dlg_newp.obj
 0001:0012eff0       ??0Dialog_Serial@@QAE@HMMMMPAD@Z 0052fff0 f   mmui:dlg_serial.obj
 0001:0012f9a0       ??1Dialog_Serial@@UAE@XZ   005309a0 f   mmui:dlg_serial.obj
 0001:0012fa00       ?PreSetup@Dialog_Serial@@UAEXXZ 00530a00 f   mmui:dlg_serial.obj
 0001:0012fa10       ?IPAddressCallback@Dialog_Serial@@QAEXXZ 00530a10 f   mmui:dlg_serial.obj
 0001:0012fa20       ?BuildComs@Dialog_Serial@@QAEXXZ 00530a20 f   mmui:dlg_serial.obj
 0001:0012fae0       ?GetCommPack@Dialog_Serial@@QAEPAUNETCOMMPACK@@XZ 00530ae0 f   mmui:dlg_serial.obj
 0001:0012faf0       ??_GDialog_Serial@@UAEPAXI@Z 00530af0 f i mmui:dlg_serial.obj
 0001:0012faf0       ??_EDialog_Serial@@UAEPAXI@Z 00530af0 f i mmui:dlg_serial.obj
 0001:0012fb20       ??0Dialog_ControlAssign@@QAE@HMMMMPAD@Z 00530b20 f   mmui:dlg_ctrl.obj
 0001:0012fc30       ??1Dialog_ControlAssign@@UAE@XZ 00530c30 f   mmui:dlg_ctrl.obj
 0001:0012fc40       ?PreSetup@Dialog_ControlAssign@@UAEXXZ 00530c40 f   mmui:dlg_ctrl.obj
 0001:0012fc50       ??_EDialog_ControlAssign@@UAEPAXI@Z 00530c50 f i mmui:dlg_ctrl.obj
 0001:0012fc50       ??_GDialog_ControlAssign@@UAEPAXI@Z 00530c50 f i mmui:dlg_ctrl.obj
 0001:0012fc80       ??0Dialog_TCPIP@@QAE@HMMMMPAD@Z 00530c80 f   mmui:dlg_tcpip.obj
 0001:0012fe10       ??1Dialog_TCPIP@@UAE@XZ    00530e10 f   mmui:dlg_tcpip.obj
 0001:0012fe20       ?PreSetup@Dialog_TCPIP@@UAEXXZ 00530e20 f   mmui:dlg_tcpip.obj
 0001:0012fe30       ?IPAddressCallback@Dialog_TCPIP@@QAEXXZ 00530e30 f   mmui:dlg_tcpip.obj
 0001:0012fe40       ?SetIPAddress@Dialog_TCPIP@@QAEXPAD@Z 00530e40 f   mmui:dlg_tcpip.obj
 0001:0012feb0       ??_EDialog_TCPIP@@UAEPAXI@Z 00530eb0 f i mmui:dlg_tcpip.obj
 0001:0012feb0       ??_GDialog_TCPIP@@UAEPAXI@Z 00530eb0 f i mmui:dlg_tcpip.obj
 0001:0012fee0       ??0NetArena@@QAE@H@Z       00530ee0 f   mmui:netarena.obj
 0001:001307a0       ??1NetArena@@UAE@XZ        005317a0 f   mmui:netarena.obj
 0001:00130840       ?PreSetup@NetArena@@UAEXXZ 00531840 f   mmui:netarena.obj
 0001:00130850       ?EnablePlayButton@NetArena@@QAEXXZ 00531850 f   mmui:netarena.obj
 0001:00130860       ?DisablePlayButton@NetArena@@QAEXXZ 00531860 f   mmui:netarena.obj
 0001:00130870       ?ResetGameChat@NetArena@@QAEXXZ 00531870 f   mmui:netarena.obj
 0001:00130930       ?AddGameChatLine@NetArena@@QAEXPAD@Z 00531930 f   mmui:netarena.obj
 0001:001309d0       ?PostChatMessages@NetArena@@QAEXXZ 005319d0 f   mmui:netarena.obj
 0001:00130aa0       ?ChatEntry@NetArena@@QAEXXZ 00531aa0 f   mmui:netarena.obj
 0001:00130b70       ?RetrieveChatLine@NetArena@@QAEHPAD@Z 00531b70 f   mmui:netarena.obj
 0001:00130bc0       ?FindRosterName@NetArena@@QAEHPAD@Z 00531bc0 f   mmui:netarena.obj
 0001:00130c30       ?AddRosterName@NetArena@@QAEXPAD@Z 00531c30 f   mmui:netarena.obj
 0001:00130c50       ?AddRosterName@NetArena@@QAEXPAULocString@@00KHH@Z 00531c50 f   mmui:netarena.obj
 0001:00130e50       ?RemoveRosterEntry@NetArena@@QAEXH@Z 00531e50 f   mmui:netarena.obj
 0001:00130f20       ?ResetRoster@NetArena@@QAEXXZ 00531f20 f   mmui:netarena.obj
 0001:00130fb0       ?RemoveRosterName@NetArena@@QAEXPAD@Z 00531fb0 f   mmui:netarena.obj
 0001:00130ff0       ?SetStatus@NetArena@@QAEXKHH@Z 00531ff0 f   mmui:netarena.obj
 0001:00131050       ?GetStatus@NetArena@@QAE_NK@Z 00532050 f   mmui:netarena.obj
 0001:001310a0       ?GetRaceName@NetArena@@QAEPADXZ 005320a0 f   mmui:netarena.obj
 0001:00131310       ?PostHostSettings@NetArena@@QAEXH@Z 00532310 f   mmui:netarena.obj
 0001:001318c0       ?PostPlayerInfo@NetArena@@QAEXPAULocString@@00@Z 005328c0 f   mmui:netarena.obj
 0001:00131970       ?SyncJoin@NetArena@@QAEXXZ 00532970 f   mmui:netarena.obj
 0001:00131990       ?LateJoin@NetArena@@QAEXXZ 00532990 f   mmui:netarena.obj
 0001:001319b0       ?SetHost@NetArena@@QAEXH@Z 005329b0 f   mmui:netarena.obj
 0001:00131a40       ?TeamCallback@NetArena@@QAEXXZ 00532a40 f   mmui:netarena.obj
 0001:00131a50       ?SetTeamWidgets@NetArena@@QAEXXZ 00532a50 f   mmui:netarena.obj
 0001:00131af0       ?LoadRaceMap@NetArena@@QAEXXZ 00532af0 f   mmui:netarena.obj
 0001:00131b80       ?ChangeRosterData@NetArena@@QAEXPAULocString@@KHH@Z 00532b80 f   mmui:netarena.obj
 0001:00131bf0       ?ShowRosterTeam@NetArena@@QAEXH@Z 00532bf0 f   mmui:netarena.obj
 0001:00131c30       ?SetMyStatus@NetArena@@QAEXH@Z 00532c30 f   mmui:netarena.obj
 0001:00131c80       ??_GNetArena@@UAEPAXI@Z    00532c80 f i mmui:netarena.obj
 0001:00131c80       ??_ENetArena@@UAEPAXI@Z    00532c80 f i mmui:netarena.obj
 0001:00131cb0       ??0HostRaceMenu@@QAE@H@Z   00532cb0 f   mmui:racehost.obj
 0001:00131df0       ??1HostRaceMenu@@UAE@XZ    00532df0 f   mmui:racehost.obj
 0001:00131e70       ?PreSetup@HostRaceMenu@@UAEXXZ 00532e70 f   mmui:racehost.obj
 0001:00131e90       ?InitCRWidgets@HostRaceMenu@@UAEXXZ 00532e90 f   mmui:racehost.obj
 0001:00132830       ?SetCRWidgets@HostRaceMenu@@UAEXH@Z 00533830 f   mmui:racehost.obj
 0001:00132930       ?SetLimitControl@HostRaceMenu@@QAEXXZ 00533930 f   mmui:racehost.obj
 0001:00132ae0       ?EncodeCRData@HostRaceMenu@@QAEHXZ 00533ae0 f   mmui:racehost.obj
 0001:00132b30       ?DecodeCRData@HostRaceMenu@@QAEXH@Z 00533b30 f   mmui:racehost.obj
 0001:00132ba0       ?GetLimit@HostRaceMenu@@QAEXAAH0@Z 00533ba0 f   mmui:racehost.obj
 0001:00132bf0       ?SetLimit@HostRaceMenu@@QAEXAAH0@Z 00533bf0 f   mmui:racehost.obj
 0001:00132c70       ?SetGoldMass@HostRaceMenu@@QAEXH@Z 00533c70 f   mmui:racehost.obj
 0001:00132ca0       ?GetGoldMass@HostRaceMenu@@QAEHXZ 00533ca0 f   mmui:racehost.obj
 0001:00132cb0       ?GetLimitVal@HostRaceMenu@@QAEHAAH@Z 00533cb0 f   mmui:racehost.obj
 0001:00132d00       ?GetGoldMassVal@HostRaceMenu@@QAEHXZ 00533d00 f   mmui:racehost.obj
 0001:00132d10       ?SetGameClassCallback@HostRaceMenu@@QAEXXZ 00533d10 f   mmui:racehost.obj
 0001:00132d20       ?LimitInc@HostRaceMenu@@QAEXXZ 00533d20 f   mmui:racehost.obj
 0001:00132d70       ?LimitDec@HostRaceMenu@@QAEXXZ 00533d70 f   mmui:racehost.obj
 0001:00132dc0       ?MassInc@HostRaceMenu@@QAEXXZ 00533dc0 f   mmui:racehost.obj
 0001:00132df0       ?MassDec@HostRaceMenu@@QAEXXZ 00533df0 f   mmui:racehost.obj
 0001:00132e20       ??_GHostRaceMenu@@UAEPAXI@Z 00533e20 f i mmui:racehost.obj
 0001:00132e20       ??_EHostRaceMenu@@UAEPAXI@Z 00533e20 f i mmui:racehost.obj
 0001:00132e50       ?FocusThis@@YAXXZ          00533e50 f   mmui:control.obj
 0001:00132e60       ??0ControlSetup@@QAE@H@Z   00533e60 f   mmui:control.obj
 0001:00133060       ??1ControlSetup@@UAE@XZ    00534060 f   mmui:control.obj
 0001:001330c0       ?CreateDeviceOptions@ControlSetup@@QAEXXZ 005340c0 f   mmui:control.obj
 0001:00133600       ?DeactivateAllDeviceOptions@ControlSetup@@QAEXXZ 00534600 f   mmui:control.obj
 0001:00133660       ?ActivateDeviceOptions@ControlSetup@@QAEXXZ 00534660 f   mmui:control.obj
 0001:00133940       ?SetControlPosition@ControlSetup@@QAEMPAVuiWidget@@MM@Z 00534940 f   mmui:control.obj
 0001:00133960       ?POVCB@ControlSetup@@QAEXXZ 00534960 f   mmui:control.obj
 0001:00133970       ?SetSensitivityCB@ControlSetup@@QAEXXZ 00534970 f   mmui:control.obj
 0001:00133980       ?ControlSelect@ControlSetup@@QAEXXZ 00534980 f   mmui:control.obj
 0001:001339d0       ?PreSetup@ControlSetup@@UAEXXZ 005349d0 f   mmui:control.obj
 0001:00133a10       ?SetFFPermissions@ControlSetup@@QAEXXZ 00534a10 f   mmui:control.obj
 0001:00133a50       ?InitCustomControls@ControlSetup@@QAEXXZ 00534a50 f   mmui:control.obj
 0001:00133ae0       ?Update@ControlSetup@@UAEXXZ 00534ae0 f   mmui:control.obj
 0001:00133b00       ?StoreCurrentSetup@ControlSetup@@UAEXXZ 00534b00 f   mmui:control.obj
 0001:00133b10       ?ResetDefaultAction@ControlSetup@@UAEXXZ 00534b10 f   mmui:control.obj
 0001:00133b50       ?LaunchJoyCpl@ControlSetup@@QAEXXZ 00534b50 f   mmui:control.obj
 0001:00133ce0       ?CancelAction@ControlSetup@@UAEXXZ 00534ce0 f   mmui:control.obj
 0001:00133cf0       ?DoneAction@ControlSetup@@UAEXXZ 00534cf0 f   mmui:control.obj
 0001:00133d00       ?FocusDescription@ControlSetup@@QAEXPAX0@Z 00534d00 f   mmui:control.obj
 0001:00133d30       ??_GControlSetup@@UAEPAXI@Z 00534d30 f i mmui:control.obj
 0001:00133d30       ??_EControlSetup@@UAEPAXI@Z 00534d30 f i mmui:control.obj
 0001:00133d60       ??0ControlCustom@@QAE@H@Z  00534d60 f   mmui:ctrlcus.obj
 0001:00133e00       ??1ControlCustom@@UAE@XZ   00534e00 f   mmui:ctrlcus.obj
 0001:00133e10       ?BadAssignCB@ControlCustom@@QAEXXZ 00534e10 f   mmui:ctrlcus.obj
 0001:00133e60       ?ClearBadAssignment@ControlCustom@@QAEXXZ 00534e60 f   mmui:ctrlcus.obj
 0001:00133e70       ?CancelBadAssignment@ControlCustom@@QAEXXZ 00534e70 f   mmui:ctrlcus.obj
 0001:00133e90       ?VerifyBadAssignment@ControlCustom@@QAEXXZ 00534e90 f   mmui:ctrlcus.obj
 0001:00133eb0       ?ResetDefaultAction@ControlCustom@@UAEXXZ 00534eb0 f   mmui:ctrlcus.obj
 0001:00133ed0       ?DoneAction@ControlCustom@@UAEXXZ 00534ed0 f   mmui:ctrlcus.obj
 0001:00133ee0       ?CancelAction@ControlCustom@@UAEXXZ 00534ee0 f   mmui:ctrlcus.obj
 0001:00133f00       ??_EControlCustom@@UAEPAXI@Z 00534f00 f i mmui:ctrlcus.obj
 0001:00133f00       ??_GControlCustom@@UAEPAXI@Z 00534f00 f i mmui:ctrlcus.obj
 0001:00133f30       ??0OptionsMenu@@QAE@H@Z    00534f30 f   mmui:options.obj
 0001:00134250       ??1OptionsMenu@@UAE@XZ     00535250 f   mmui:options.obj
 0001:00134260       ?PreSetup@OptionsMenu@@UAEXXZ 00535260 f   mmui:options.obj
 0001:001342a0       ?PostSetup@OptionsMenu@@UAEXXZ 005352a0 f   mmui:options.obj
 0001:001342c0       ?FocusDescription@OptionsMenu@@QAEXHH@Z 005352c0 f   mmui:options.obj
 0001:001342f0       ??_GOptionsMenu@@UAEPAXI@Z 005352f0 f i mmui:options.obj
 0001:001342f0       ??_EOptionsMenu@@UAEPAXI@Z 005352f0 f i mmui:options.obj
 0001:00134320       ??0CrashCourseIntro@@QAE@H@Z 00535320 f   mmui:ccintro.obj
 0001:00134460       ??1CrashCourseIntro@@UAE@XZ 00535460 f   mmui:ccintro.obj
 0001:00134470       ?PreSetup@CrashCourseIntro@@UAEXXZ 00535470 f   mmui:ccintro.obj
 0001:00134490       ?PostSetup@CrashCourseIntro@@UAEXXZ 00535490 f   mmui:ccintro.obj
 0001:001344a0       ??_GCrashCourseIntro@@UAEPAXI@Z 005354a0 f i mmui:ccintro.obj
 0001:001344a0       ??_ECrashCourseIntro@@UAEPAXI@Z 005354a0 f i mmui:ccintro.obj
 0001:001344d0       ??0ccStatus@@QAE@XZ        005354d0 f   mmui:crash.obj
 0001:00134500       ??1ccStatus@@UAE@XZ        00535500 f   mmui:crash.obj
 0001:00134560       ?LoadBitmap@ccStatus@@QAEXPADHHH@Z 00535560 f   mmui:crash.obj
 0001:001345d0       ?Update@ccStatus@@UAEXXZ   005355d0 f   mmui:crash.obj
 0001:001345f0       ?Cull@ccStatus@@UAEXXZ     005355f0 f   mmui:crash.obj
 0001:00134640       ?SetStatus@ccStatus@@QAEXF@Z 00535640 f   mmui:crash.obj
 0001:00134650       ??0CrashCourse@@QAE@H@Z    00535650 f   mmui:crash.obj
 0001:00134cf0       ??1CrashCourse@@UAE@XZ     00535cf0 f   mmui:crash.obj
 0001:00134d70       ?SetRaceGrade@CrashCourse@@QAEXHH@Z 00535d70 f   mmui:crash.obj
 0001:00134da0       ?PreSetup@CrashCourse@@UAEXXZ 00535da0 f   mmui:crash.obj
 0001:00134f40       ?GameCallback@CrashCourse@@QAEXXZ 00535f40 f   mmui:crash.obj
 0001:00134f60       ?SetEnvironment@CrashCourse@@QAEXXZ 00535f60 f   mmui:crash.obj
 0001:001351b0       ?SetRaceState@CrashCourse@@QAEXXZ 005361b0 f   mmui:crash.obj
 0001:001352d0       ?ChangeLocalVals@CrashCourse@@QAEXXZ 005362d0 f   mmui:crash.obj
 0001:001354e0       ?FocusDescription@CrashCourse@@QAEXHH@Z 005364e0 f   mmui:crash.obj
 0001:001354f0       ?SetProgressMask@CrashCourse@@QAEXH@Z 005364f0 f   mmui:crash.obj
 0001:00135510       ?SetBlitzMask@CrashCourse@@QAEXH@Z 00536510 f   mmui:crash.obj
 0001:00135530       ?SetCheckpointMask@CrashCourse@@QAEXH@Z 00536530 f   mmui:crash.obj
 0001:00135550       ?IncRaceName@CrashCourse@@QAEXXZ 00536550 f   mmui:crash.obj
 0001:001355f0       ?DecRaceName@CrashCourse@@QAEXXZ 005365f0 f   mmui:crash.obj
 0001:00135660       ?SetVehicleNext@CrashCourse@@QAEX_N@Z 00536660 f   mmui:crash.obj
 0001:001356b0       ??_EccStatus@@UAEPAXI@Z    005366b0 f i mmui:crash.obj
 0001:001356b0       ??_GccStatus@@UAEPAXI@Z    005366b0 f i mmui:crash.obj
 0001:001356e0       ??_GCrashCourse@@UAEPAXI@Z 005366e0 f i mmui:crash.obj
 0001:001356e0       ??_ECrashCourse@@UAEPAXI@Z 005366e0 f i mmui:crash.obj
 0001:00135710       ??0NetSelectMenu@@QAE@H@Z  00536710 f   mmui:netselect.obj
 0001:00135e90       ??1NetSelectMenu@@UAE@XZ   00536e90 f   mmui:netselect.obj
 0001:00135f00       ?PreSetup@NetSelectMenu@@UAEXXZ 00536f00 f   mmui:netselect.obj
 0001:00135f80       ?PostSetup@NetSelectMenu@@UAEXXZ 00536f80 f   mmui:netselect.obj
 0001:00135fa0       ?HostCB@NetSelectMenu@@QAEXXZ 00536fa0 f   mmui:netselect.obj
 0001:00135fb0       ?JoinCB@NetSelectMenu@@QAEXXZ 00536fb0 f   mmui:netselect.obj
 0001:00135fc0       ?GetHostJoin@NetSelectMenu@@QAEHXZ 00536fc0 f   mmui:netselect.obj
 0001:00135fd0       ?FocusDescription@NetSelectMenu@@QAEXHH@Z 00536fd0 f   mmui:netselect.obj
 0001:00136070       ?SetDescription@NetSelectMenu@@QAEXPAULocString@@@Z 00537070 f   mmui:netselect.obj
 0001:00136080       ?JoinCallback@NetSelectMenu@@QAEXXZ 00537080 f   mmui:netselect.obj
 0001:00136090       ?ShowTCPIPNetSessions@NetSelectMenu@@QAEXXZ 00537090 f   mmui:netselect.obj
 0001:001360a0       ?DisableSessions@NetSelectMenu@@QAEXXZ 005370a0 f   mmui:netselect.obj
 0001:001360b0       ?ProtocolBack@NetSelectMenu@@QAEXXZ 005370b0 f   mmui:netselect.obj
 0001:001360d0       ?SetNetname@NetSelectMenu@@QAEXPAD@Z 005370d0 f   mmui:netselect.obj
 0001:00136110       ?SetPhoneNumber@NetSelectMenu@@QAEXPAD@Z 00537110 f   mmui:netselect.obj
 0001:00136130       ?SetIPAddress@NetSelectMenu@@QAEXPAD@Z 00537130 f   mmui:netselect.obj
 0001:00136150       ?GetSessions@NetSelectMenu@@QAEPAVUITextScroll@@XZ 00537150 f   mmui:netselect.obj
 0001:00136160       ?GetSessionID@NetSelectMenu@@QAEHXZ 00537160 f   mmui:netselect.obj
 0001:00136170       ?SetSession@NetSelectMenu@@QAEXPADH@Z 00537170 f   mmui:netselect.obj
 0001:001361a0       ?IPAddressCallback@NetSelectMenu@@QAEXXZ 005371a0 f   mmui:netselect.obj
 0001:001361c0       ?BuildComs@NetSelectMenu@@QAEXXZ 005371c0 f   mmui:netselect.obj
 0001:001362b0       ?SetComs@NetSelectMenu@@QAEXXZ 005372b0 f   mmui:netselect.obj
 0001:001363b0       ?ReparentWidgets@NetSelectMenu@@QAEXH@Z 005373b0 f   mmui:netselect.obj
 0001:001363c0       ?WidgetSwitch@NetSelectMenu@@QAEXHH@Z 005373c0 f   mmui:netselect.obj
 0001:001363d0       ?AddWidgetToList@NetSelectMenu@@QAEXHPAVuiWidget@@@Z 005373d0 f   mmui:netselect.obj
 0001:001363e0       ?AddModem@NetSelectMenu@@QAEXPADH@Z 005373e0 f   mmui:netselect.obj
 0001:001364f0       ?ClearProtocol@NetSelectMenu@@QAEXXZ 005374f0 f   mmui:netselect.obj
 0001:00136500       ?SetIPXButton@NetSelectMenu@@QAEXH@Z 00537500 f   mmui:netselect.obj
 0001:00136530       ?SetTCPLocalButton@NetSelectMenu@@QAEXH@Z 00537530 f   mmui:netselect.obj
 0001:00136540       ?SetTCPNetButton@NetSelectMenu@@QAEXH@Z 00537540 f   mmui:netselect.obj
 0001:00136570       ?SetModemButton@NetSelectMenu@@QAEXH@Z 00537570 f   mmui:netselect.obj
 0001:001365a0       ?SetSerialButton@NetSelectMenu@@QAEXH@Z 005375a0 f   mmui:netselect.obj
 0001:001365d0       ?GetCommPack@NetSelectMenu@@QAEPAUNETCOMMPACK@@XZ 005375d0 f   mmui:netselect.obj
 0001:001365e0       ?NetNameCB@NetSelectMenu@@QAEXXZ 005375e0 f   mmui:netselect.obj
 0001:00136610       ?EnableSearchLabel@NetSelectMenu@@QAEX_N@Z 00537610 f   mmui:netselect.obj
 0001:00136640       ??0string@@QAE@PBD@Z       00537640 f i mmui:netselect.obj
 0001:001366b0       ??_GNetSelectMenu@@UAEPAXI@Z 005376b0 f i mmui:netselect.obj
 0001:001366b0       ??_ENetSelectMenu@@UAEPAXI@Z 005376b0 f i mmui:netselect.obj
 0001:001366e0       ??0RaceMenu@@QAE@H@Z       005376e0 f   mmui:race.obj
 0001:001367b0       ??1RaceMenu@@UAE@XZ        005377b0 f   mmui:race.obj
 0001:001367c0       ?GetRaceID@RaceMenu@@QAEHXZ 005377c0 f   mmui:race.obj
 0001:00136850       ?SetProgressMask@RaceMenu@@QAEXH@Z 00537850 f   mmui:race.obj
 0001:00136870       ?SetBlitzMask@RaceMenu@@QAEXH@Z 00537870 f   mmui:race.obj
 0001:00136890       ?SetCheckpointMask@RaceMenu@@QAEXH@Z 00537890 f   mmui:race.obj
 0001:001368b0       ?SetCircuitMask@RaceMenu@@QAEXH@Z 005378b0 f   mmui:race.obj
 0001:001368d0       ?GetRaceName@RaceMenu@@QAEPADW4dgGameMode@@H@Z 005378d0 f   mmui:race.obj
 0001:001369f0       ??_ERaceMenu@@UAEPAXI@Z    005379f0 f i mmui:race.obj
 0001:001369f0       ??_GRaceMenu@@UAEPAXI@Z    005379f0 f i mmui:race.obj
 0001:00136a20       ?SetCRWidgets@RaceMenuBase@@UAEXH@Z 00537a20 f i mmui:race.obj
 0001:00136a30       ?InitCRWidgets@RaceMenuBase@@UAEXXZ 00537a30 f i mmui:race.obj
 0001:00136a40       ??0VehShowcase@@QAE@H@Z    00537a40 f   mmui:vshow.obj
 0001:00136b90       ??1VehShowcase@@UAE@XZ     00537b90 f   mmui:vshow.obj
 0001:00136bf0       ?PreSetup@VehShowcase@@UAEXXZ 00537bf0 f   mmui:vshow.obj
 0001:00136c60       ?PostSetup@VehShowcase@@UAEXXZ 00537c60 f   mmui:vshow.obj
 0001:00136c70       ??_EVehShowcase@@UAEPAXI@Z 00537c70 f i mmui:vshow.obj
 0001:00136c70       ??_GVehShowcase@@UAEPAXI@Z 00537c70 f i mmui:vshow.obj
 0001:00136ca0       ??0Vehicle@@QAE@H@Z        00537ca0 f   mmui:vehicle.obj
 0001:00136d80       ??1Vehicle@@UAE@XZ         00537d80 f   mmui:vehicle.obj
 0001:00136d90       ?SetSubMenu@Vehicle@@QAEXH@Z 00537d90 f   mmui:vehicle.obj
 0001:00136db0       ?SetSubMenuButtons@Vehicle@@QAEXXZ 00537db0 f   mmui:vehicle.obj
 0001:00136dd0       ?PreSetup@Vehicle@@UAEXXZ  00537dd0 f   mmui:vehicle.obj
 0001:00136de0       ?PostSetup@Vehicle@@UAEXXZ 00537de0 f   mmui:vehicle.obj
 0001:00136df0       ??_EVehicle@@UAEPAXI@Z     00537df0 f i mmui:vehicle.obj
 0001:00136df0       ??_GVehicle@@UAEPAXI@Z     00537df0 f i mmui:vehicle.obj
 0001:00136e20       ?GetMidtownRegString@@YAXPADH00@Z 00537e20 f   mmui:about.obj
 0001:00136ea0       ??0AboutMenu@@QAE@H@Z      00537ea0 f   mmui:about.obj
 0001:00137080       ??1AboutMenu@@UAE@XZ       00538080 f   mmui:about.obj
 0001:00137090       ?PreSetup@AboutMenu@@UAEXXZ 00538090 f   mmui:about.obj
 0001:001370b0       ?Update@AboutMenu@@UAEXXZ  005380b0 f   mmui:about.obj
 0001:00137120       ?Cull@AboutMenu@@UAEXXZ    00538120 f   mmui:about.obj
 0001:001371d0       ??_EAboutMenu@@UAEPAXI@Z   005381d0 f i mmui:about.obj
 0001:001371d0       ??_GAboutMenu@@UAEPAXI@Z   005381d0 f i mmui:about.obj
 0001:00137200       ??0MainMenu@@QAE@H@Z       00538200 f   mmui:main.obj
 0001:001375f0       ??1MainMenu@@UAE@XZ        005385f0 f   mmui:main.obj
 0001:00137660       ?PreSetup@MainMenu@@UAEXXZ 00538660 f   mmui:main.obj
 0001:00137670       ?EnableReplay@MainMenu@@QAEXH@Z 00538670 f   mmui:main.obj
 0001:00137690       ?IsReplayReadOnly@MainMenu@@QAEHXZ 00538690 f   mmui:main.obj
 0001:001376a0       ?InitDriver@MainMenu@@QAEXXZ 005386a0 f   mmui:main.obj
 0001:00137b20       ?RemovePlayer@MainMenu@@QAEXPAD@Z 00538b20 f   mmui:main.obj
 0001:00137d80       ?SetPlayerPick@MainMenu@@QAEXH@Z 00538d80 f   mmui:main.obj
 0001:00137d90       ?DecPlayer@MainMenu@@QAEXXZ 00538d90 f   mmui:main.obj
 0001:00137dc0       ?IncPlayer@MainMenu@@QAEXXZ 00538dc0 f   mmui:main.obj
 0001:00137df0       ?RemoveAllPlayers@MainMenu@@QAEXXZ 00538df0 f   mmui:main.obj
 0001:00137e00       ?AddPlayer@MainMenu@@QAEXPAD@Z 00538e00 f   mmui:main.obj
 0001:00137f20       ?TDPickCB@MainMenu@@QAEXXZ 00538f20 f   mmui:main.obj
 0001:00137f30       ?DeleteCB@MainMenu@@QAEXXZ 00538f30 f   mmui:main.obj
 0001:00137f40       ?EnterNewPlayer@MainMenu@@QAEXXZ 00538f40 f   mmui:main.obj
 0001:00137f50       ?DisplayDriverInfo@MainMenu@@QAEXPAD0000H@Z 00538f50 f   mmui:main.obj
 0001:00138010       ?SetController@MainMenu@@QAEXPAD@Z 00539010 f   mmui:main.obj
 0001:00138030       ?SetNetName@MainMenu@@QAEXPAD@Z 00539030 f   mmui:main.obj
 0001:00138040       ?FocusDescription@MainMenu@@QAEXHH@Z 00539040 f   mmui:main.obj
 0001:00138070       ??_GMainMenu@@UAEPAXI@Z    00539070 f i mmui:main.obj
 0001:00138070       ??_EMainMenu@@UAEPAXI@Z    00539070 f i mmui:main.obj
 0001:00138190       ??0RaceMenuBase@@QAE@H@Z   00539190 f   mmui:racebase.obj
 0001:00138270       ?Init@RaceMenuBase@@QAEXH@Z 00539270 f   mmui:racebase.obj
 0001:001392e0       ??1RaceMenuBase@@UAE@XZ    0053a2e0 f   mmui:racebase.obj
 0001:001392f0       ?PreSetup@RaceMenuBase@@UAEXXZ 0053a2f0 f   mmui:racebase.obj
 0001:00139320       ?FocusDescription@RaceMenuBase@@QAEXHH@Z 0053a320 f   mmui:racebase.obj
 0001:00139370       ?WidgetOnOff@RaceMenuBase@@QAEXHPAVuiWidget@@@Z 0053a370 f   mmui:racebase.obj
 0001:001393e0       ?SetRW@RaceMenuBase@@QAEXXZ 0053a3e0 f   mmui:racebase.obj
 0001:001397e0       ?CheatCallback@RaceMenuBase@@QAEXXZ 0053a7e0 f   mmui:racebase.obj
 0001:001397f0       ?SyncRaceState@RaceMenuBase@@QAEXXZ 0053a7f0 f   mmui:racebase.obj
 0001:00139870       ?CityChange@RaceMenuBase@@QAEXXZ 0053a870 f   mmui:racebase.obj
 0001:001399e0       ?AnotherCityChangeCB@RaceMenuBase@@QAEXXZ 0053a9e0 f   mmui:racebase.obj
 0001:00139a60       ?GameCallback@RaceMenuBase@@QAEXXZ 0053aa60 f   mmui:racebase.obj
 0001:00139ae0       ?LapsCallback@RaceMenuBase@@QAEXXZ 0053aae0 f   mmui:racebase.obj
 0001:00139af0       ?AICallback@RaceMenuBase@@QAEXXZ 0053aaf0 f   mmui:racebase.obj
 0001:00139b40       ?ChangeLocalVals@RaceMenuBase@@QAEXXZ 0053ab40 f   mmui:racebase.obj
 0001:00139de0       ?SetStateRace@RaceMenuBase@@QAEXXZ 0053ade0 f   mmui:racebase.obj
 0001:0013a1b0       ?LoadRaceMap@RaceMenuBase@@QAEXXZ 0053b1b0 f   mmui:racebase.obj
 0001:0013a240       ?DecRaceName@RaceMenuBase@@QAEXXZ 0053b240 f   mmui:racebase.obj
 0001:0013a2f0       ?IncRaceName@RaceMenuBase@@QAEXXZ 0053b2f0 f   mmui:racebase.obj
 0001:0013a3a0       ?IncLocale@RaceMenuBase@@QAEXXZ 0053b3a0 f   mmui:racebase.obj
 0001:0013a3d0       ?DecLocale@RaceMenuBase@@QAEXXZ 0053b3d0 f   mmui:racebase.obj
 0001:0013a3f0       ?IncTime@RaceMenuBase@@QAEXXZ 0053b3f0 f   mmui:racebase.obj
 0001:0013a420       ?DecTime@RaceMenuBase@@QAEXXZ 0053b420 f   mmui:racebase.obj
 0001:0013a450       ?IncWeather@RaceMenuBase@@QAEXXZ 0053b450 f   mmui:racebase.obj
 0001:0013a480       ?DecWeather@RaceMenuBase@@QAEXXZ 0053b480 f   mmui:racebase.obj
 0001:0013a4b0       ??_ERaceMenuBase@@UAEPAXI@Z 0053b4b0 f i mmui:racebase.obj
 0001:0013a4b0       ??_GRaceMenuBase@@UAEPAXI@Z 0053b4b0 f i mmui:racebase.obj
 0001:0013a4e0       ??0PUResults@@QAE@HMMMMPADHH@Z 0053b4e0 f   mmui:pu_results.obj
 0001:0013a630       ?Init320@PUResults@@QAEXXZ 0053b630 f   mmui:pu_results.obj
 0001:0013ab00       ?Init640@PUResults@@QAEXXZ 0053bb00 f   mmui:pu_results.obj
 0001:0013b010       ??1PUResults@@UAE@XZ       0053c010 f   mmui:pu_results.obj
 0001:0013b020       ?AddTitle@PUResults@@QAEXPAULocString@@0@Z 0053c020 f   mmui:pu_results.obj
 0001:0013b050       ?Reset@PUResults@@UAEXXZ   0053c050 f   mmui:pu_results.obj
 0001:0013b060       ?RosterRO@PUResults@@QAEXH@Z 0053c060 f   mmui:pu_results.obj
 0001:0013b080       ?RestartRO@PUResults@@QAEXH@Z 0053c080 f   mmui:pu_results.obj
 0001:0013b0a0       ?IsRosterReadOnly@PUResults@@QAEHXZ 0053c0a0 f   mmui:pu_results.obj
 0001:0013b0b0       ?IsRaceMenuReadOnly@PUResults@@QAEHXZ 0053c0b0 f   mmui:pu_results.obj
 0001:0013b0c0       ?RaceMenuRO@PUResults@@QAEXH@Z 0053c0c0 f   mmui:pu_results.obj
 0001:0013b0e0       ?AddName@PUResults@@QAEXHPBDM@Z 0053c0e0 f   mmui:pu_results.obj
 0001:0013b1a0       ?AddName@PUResults@@QAEXHPBD0@Z 0053c1a0 f   mmui:pu_results.obj
 0001:0013b240       ?AddName@PUResults@@QAEXHPBDH@Z 0053c240 f   mmui:pu_results.obj
 0001:0013b310       ?AddLoser@PUResults@@QAEXHPBD@Z 0053c310 f   mmui:pu_results.obj
 0001:0013b370       ?ClearNames@PUResults@@QAEXXZ 0053c370 f   mmui:pu_results.obj
 0001:0013b3e0       ?DisableNextRace@PUResults@@QAEXXZ 0053c3e0 f   mmui:pu_results.obj
 0001:0013b3f0       ?EnableNextRace@PUResults@@QAEXXZ 0053c3f0 f   mmui:pu_results.obj
 0001:0013b400       ?SetMessage@PUResults@@QAEXPAULocString@@@Z 0053c400 f   mmui:pu_results.obj
 0001:0013b420       ??_GPUResults@@UAEPAXI@Z   0053c420 f i mmui:pu_results.obj
 0001:0013b420       ??_EPUResults@@UAEPAXI@Z   0053c420 f i mmui:pu_results.obj
 0001:0013b450       ?SetLocalDetail@PUGraphics@@QAEXM@Z 0053c450 f   mmui:pu_graphics.obj
 0001:0013b460       ?FixLameLighting@PUGraphics@@QAEXXZ 0053c460 f   mmui:pu_graphics.obj
 0001:0013b510       ??0PUGraphics@@QAE@HMMMM@Z 0053c510 f   mmui:pu_graphics.obj
 0001:0013b960       ??1PUGraphics@@UAE@XZ      0053c960 f   mmui:pu_graphics.obj
 0001:0013b970       ?PreSetup@PUGraphics@@UAEXXZ 0053c970 f   mmui:pu_graphics.obj
 0001:0013b9a0       ?CancelAction@PUGraphics@@QAEXXZ 0053c9a0 f   mmui:pu_graphics.obj
 0001:0013b9b0       ?SetFarClip@PUGraphics@@QAEXM@Z 0053c9b0 f   mmui:pu_graphics.obj
 0001:0013b9d0       ?FixClip@PUGraphics@@QAEXXZ 0053c9d0 f   mmui:pu_graphics.obj
 0001:0013ba20       ?RenderQualityCB@PUGraphics@@QAEXXZ 0053ca20 f   mmui:pu_graphics.obj
 0001:0013ba30       ??_GPUGraphics@@UAEPAXI@Z  0053ca30 f i mmui:pu_graphics.obj
 0001:0013ba30       ??_EPUGraphics@@UAEPAXI@Z  0053ca30 f i mmui:pu_graphics.obj
 0001:0013ba60       ??0PUMain@@QAE@HMMMMPAD@Z  0053ca60 f   mmui:pu_main.obj
 0001:0013bca0       ??1PUMain@@UAE@XZ          0053cca0 f   mmui:pu_main.obj
 0001:0013bcb0       ?RplRO@PUMain@@QAEXH@Z     0053ccb0 f   mmui:pu_main.obj
 0001:0013bcd0       ?RestartRO@PUMain@@QAEXH@Z 0053ccd0 f   mmui:pu_main.obj
 0001:0013bcf0       ?RaceMenuRO@PUMain@@QAEXH@Z 0053ccf0 f   mmui:pu_main.obj
 0001:0013bd10       ?IsRaceMenuReadOnly@PUMain@@QAEHXZ 0053cd10 f   mmui:pu_main.obj
 0001:0013bd20       ??_EPUMain@@UAEPAXI@Z      0053cd20 f i mmui:pu_main.obj
 0001:0013bd20       ??_GPUMain@@UAEPAXI@Z      0053cd20 f i mmui:pu_main.obj
 0001:0013bd50       ??0PURoster@@QAE@HMMMM@Z   0053cd50 f   mmui:pu_roster.obj
 0001:0013bf00       ??1PURoster@@UAE@XZ        0053cf00 f   mmui:pu_roster.obj
 0001:0013bf10       ?Reset@PURoster@@UAEXXZ    0053cf10 f   mmui:pu_roster.obj
 0001:0013bf20       ?BootButtonCB@PURoster@@QAEXXZ 0053cf20 f   mmui:pu_roster.obj
 0001:0013bf80       ?SetHost@PURoster@@QAEXH@Z 0053cf80 f   mmui:pu_roster.obj
 0001:0013bff0       ?AddName@PURoster@@QAEXPBDKH@Z 0053cff0 f   mmui:pu_roster.obj
 0001:0013c0d0       ?RemoveName@PURoster@@QAEXPBDK@Z 0053d0d0 f   mmui:pu_roster.obj
 0001:0013c210       ?RemoveName@PURoster@@QAEXK@Z 0053d210 f   mmui:pu_roster.obj
 0001:0013c340       ?ClearNames@PURoster@@QAEXXZ 0053d340 f   mmui:pu_roster.obj
 0001:0013c3c0       ?PostNames@PURoster@@QAEXXZ 0053d3c0 f   mmui:pu_roster.obj
 0001:0013c3f0       ?SetBootCB@PURoster@@QAEXVdatCallback@@@Z 0053d3f0 f   mmui:pu_roster.obj
 0001:0013c410       ?FindRosterName@PURoster@@QAEHPBD@Z 0053d410 f   mmui:pu_roster.obj
 0001:0013c480       ?FindRosterName@PURoster@@QAEHK@Z 0053d480 f   mmui:pu_roster.obj
 0001:0013c4b0       ??_EPURoster@@UAEPAXI@Z    0053d4b0 f i mmui:pu_roster.obj
 0001:0013c4b0       ??_GPURoster@@UAEPAXI@Z    0053d4b0 f i mmui:pu_roster.obj
 0001:0013c4e0       ??0PUQuit@@QAE@HMMMMPAD@Z  0053d4e0 f   mmui:pu_quit.obj
 0001:0013c690       ??1PUQuit@@UAE@XZ          0053d690 f   mmui:pu_quit.obj
 0001:0013c6a0       ?EnableMigrateHost@PUQuit@@QAEX_N@Z 0053d6a0 f   mmui:pu_quit.obj
 0001:0013c6e0       ??_EPUQuit@@UAEPAXI@Z      0053d6e0 f i mmui:pu_quit.obj
 0001:0013c6e0       ??_GPUQuit@@UAEPAXI@Z      0053d6e0 f i mmui:pu_quit.obj
 0001:0013c710       ??0PUReplay@@QAE@HMMMMPAD@Z 0053d710 f   mmui:pu_replay.obj
 0001:0013c9d0       ??1PUReplay@@UAE@XZ        0053d9d0 f   mmui:pu_replay.obj
 0001:0013c9e0       ?SaveRO@PUReplay@@QAEXH@Z  0053d9e0 f   mmui:pu_replay.obj
 0001:0013ca00       ?GetSaveRO@PUReplay@@QAEHXZ 0053da00 f   mmui:pu_replay.obj
 0001:0013ca10       ??_EPUReplay@@UAEPAXI@Z    0053da10 f i mmui:pu_replay.obj
 0001:0013ca10       ??_GPUReplay@@UAEPAXI@Z    0053da10 f i mmui:pu_replay.obj
 0001:0013ca40       ??0PUKey@@QAE@HMMMM@Z      0053da40 f   mmui:pu_key.obj
 0001:0013cae0       ??1PUKey@@UAE@XZ           0053dae0 f   mmui:pu_key.obj
 0001:0013caf0       ?PreSetup@PUKey@@EAEXXZ    0053daf0 f   mmui:pu_key.obj
 0001:0013cdb0       ?PostSetup@PUKey@@EAEXXZ   0053ddb0 f   mmui:pu_key.obj
 0001:0013cdf0       ??_GPUKey@@UAEPAXI@Z       0053ddf0 f i mmui:pu_key.obj
